
experiment1.elf:     file format elf32-littlenios2
experiment1.elf
architecture: nios2, flags 0x00000112:
EXEC_P, HAS_SYMS, D_PAGED
start address 0x000801bc

Program Header:
    LOAD off    0x00001000 vaddr 0x00080000 paddr 0x00080000 align 2**12
         filesz 0x00000020 memsz 0x00000020 flags r-x
    LOAD off    0x00001020 vaddr 0x00080020 paddr 0x00080020 align 2**12
         filesz 0x0001a120 memsz 0x0001a120 flags r-x
    LOAD off    0x0001b140 vaddr 0x0009a140 paddr 0x0009bc54 align 2**12
         filesz 0x00001b14 memsz 0x00001b14 flags rw-
    LOAD off    0x0001d768 vaddr 0x0009d768 paddr 0x0009d768 align 2**12
         filesz 0x00000000 memsz 0x0001cdf8 flags rw-

Sections:
Idx Name          Size      VMA       LMA       File off  Algn
  0 .entry        00000020  00080000  00080000  00001000  2**5
                  CONTENTS, ALLOC, LOAD, READONLY, CODE
  1 .exceptions   0000019c  00080020  00080020  00001020  2**2
                  CONTENTS, ALLOC, LOAD, READONLY, CODE
  2 .text         00019160  000801bc  000801bc  000011bc  2**2
                  CONTENTS, ALLOC, LOAD, READONLY, CODE
  3 .rodata       00000e24  0009931c  0009931c  0001a31c  2**2
                  CONTENTS, ALLOC, LOAD, READONLY, DATA
  4 .rwdata       00001b14  0009a140  0009bc54  0001b140  2**2
                  CONTENTS, ALLOC, LOAD, DATA, SMALL_DATA
  5 .bss          0001cdf8  0009d768  0009d768  0001d768  2**2
                  ALLOC, SMALL_DATA
  6 .comment      00000023  00000000  00000000  0001cc54  2**0
                  CONTENTS, READONLY
  7 .debug_aranges 00000f78  00000000  00000000  0001cc78  2**3
                  CONTENTS, READONLY, DEBUGGING
  8 .debug_pubnames 00002741  00000000  00000000  0001dbf0  2**0
                  CONTENTS, READONLY, DEBUGGING
  9 .debug_info   0003812b  00000000  00000000  00020331  2**0
                  CONTENTS, READONLY, DEBUGGING
 10 .debug_abbrev 0000a519  00000000  00000000  0005845c  2**0
                  CONTENTS, READONLY, DEBUGGING
 11 .debug_line   0001ea5a  00000000  00000000  00062975  2**0
                  CONTENTS, READONLY, DEBUGGING
 12 .debug_frame  00002b94  00000000  00000000  000813d0  2**2
                  CONTENTS, READONLY, DEBUGGING
 13 .debug_str    000027d2  00000000  00000000  00083f64  2**0
                  CONTENTS, READONLY, DEBUGGING
 14 .debug_loc    0000dda6  00000000  00000000  00086736  2**0
                  CONTENTS, READONLY, DEBUGGING
 15 .debug_alt_sim_info 00000010  00000000  00000000  000944dc  2**2
                  CONTENTS, READONLY, DEBUGGING
 16 .debug_ranges 000009f8  00000000  00000000  000944f0  2**3
                  CONTENTS, READONLY, DEBUGGING
 17 .thread_model 00000006  00000000  00000000  0009a0be  2**0
                  CONTENTS, READONLY
 18 .cpu          00000005  00000000  00000000  0009a0c4  2**0
                  CONTENTS, READONLY
 19 .qsys         00000001  00000000  00000000  0009a0c9  2**0
                  CONTENTS, READONLY
 20 .simulation_enabled 00000001  00000000  00000000  0009a0ca  2**0
                  CONTENTS, READONLY
 21 .stderr_dev   0000000b  00000000  00000000  0009a0cb  2**0
                  CONTENTS, READONLY
 22 .stdin_dev    0000000b  00000000  00000000  0009a0d6  2**0
                  CONTENTS, READONLY
 23 .stdout_dev   0000000b  00000000  00000000  0009a0e1  2**0
                  CONTENTS, READONLY
 24 .sopc_system_name 0000000b  00000000  00000000  0009a0ec  2**0
                  CONTENTS, READONLY
 25 .quartus_project_dir 00000077  00000000  00000000  0009a0f7  2**0
                  CONTENTS, READONLY
 26 .sopcinfo     0004b6f3  00000000  00000000  0009a16e  2**0
                  CONTENTS, READONLY
SYMBOL TABLE:
00080000 l    d  .entry	00000000 .entry
00080020 l    d  .exceptions	00000000 .exceptions
000801bc l    d  .text	00000000 .text
0009931c l    d  .rodata	00000000 .rodata
0009a140 l    d  .rwdata	00000000 .rwdata
0009d768 l    d  .bss	00000000 .bss
00000000 l    d  .comment	00000000 .comment
00000000 l    d  .debug_aranges	00000000 .debug_aranges
00000000 l    d  .debug_pubnames	00000000 .debug_pubnames
00000000 l    d  .debug_info	00000000 .debug_info
00000000 l    d  .debug_abbrev	00000000 .debug_abbrev
00000000 l    d  .debug_line	00000000 .debug_line
00000000 l    d  .debug_frame	00000000 .debug_frame
00000000 l    d  .debug_str	00000000 .debug_str
00000000 l    d  .debug_loc	00000000 .debug_loc
00000000 l    d  .debug_alt_sim_info	00000000 .debug_alt_sim_info
00000000 l    d  .debug_ranges	00000000 .debug_ranges
000801f4 l       .text	00000000 alt_after_alt_main
00000000 l    df *ABS*	00000000 alt_irq_handler.c
00000000 l    df *ABS*	00000000 PB_button.c
00000000 l    df *ABS*	00000000 alt_ucosii_simple_error_check.c
00000000 l    df *ABS*	00000000 experiment1.c
00000000 l    df *ABS*	00000000 tasks.c
00000000 l    df *ABS*	00000000 lib2-divmod.c
000825d4 l     F .text	0000007c udivmodsi4
00000000 l    df *ABS*	00000000 lib2-mul.c
00000000 l    df *ABS*	00000000 fprintf.c
00000000 l    df *ABS*	00000000 fwrite.c
00000000 l    df *ABS*	00000000 impure.c
0009a140 l     O .rwdata	00000400 impure_data
00000000 l    df *ABS*	00000000 printf.c
00000000 l    df *ABS*	00000000 putchar.c
00000000 l    df *ABS*	00000000 puts.c
00000000 l    df *ABS*	00000000 rand.c
00000000 l    df *ABS*	00000000 strlen.c
00000000 l    df *ABS*	00000000 vfprintf.c
00082afc l     F .text	00000058 __sprint_r
00099d36 l     O .rodata	00000010 blanks.3452
00099d26 l     O .rodata	00000010 zeroes.3453
00000000 l    df *ABS*	00000000 wsetup.c
00000000 l    df *ABS*	00000000 dtoa.c
00084b78 l     F .text	00000244 quorem
00000000 l    df *ABS*	00000000 fflush.c
00000000 l    df *ABS*	00000000 findfp.c
000865a0 l     F .text	00000058 std
000866ac l     F .text	00000008 __fp_lock
000866b4 l     F .text	00000008 __fp_unlock
00000000 l    df *ABS*	00000000 mallocr.c
00000000 l    df *ABS*	00000000 fvwrite.c
00000000 l    df *ABS*	00000000 fwalk.c
00000000 l    df *ABS*	00000000 locale.c
0009bba4 l     O .rwdata	00000004 charset
00099d68 l     O .rodata	00000030 lconv
00000000 l    df *ABS*	00000000 makebuf.c
00000000 l    df *ABS*	00000000 mallocr.c
00000000 l    df *ABS*	00000000 memchr.c
00000000 l    df *ABS*	00000000 memcpy.c
00000000 l    df *ABS*	00000000 memmove.c
00000000 l    df *ABS*	00000000 memset.c
00000000 l    df *ABS*	00000000 mprec.c
00099eb0 l     O .rodata	0000000c p05.2458
00000000 l    df *ABS*	00000000 putc.c
00000000 l    df *ABS*	00000000 mallocr.c
00000000 l    df *ABS*	00000000 s_isinfd.c
00000000 l    df *ABS*	00000000 s_isnand.c
00000000 l    df *ABS*	00000000 sbrkr.c
00000000 l    df *ABS*	00000000 stdio.c
00000000 l    df *ABS*	00000000 strcmp.c
00000000 l    df *ABS*	00000000 wbuf.c
00000000 l    df *ABS*	00000000 writer.c
00000000 l    df *ABS*	00000000 mallocr.c
00000000 l    df *ABS*	00000000 closer.c
00000000 l    df *ABS*	00000000 fclose.c
00000000 l    df *ABS*	00000000 fstatr.c
00000000 l    df *ABS*	00000000 int_errno.c
00000000 l    df *ABS*	00000000 isattyr.c
00000000 l    df *ABS*	00000000 lseekr.c
00000000 l    df *ABS*	00000000 readr.c
00000000 l    df *ABS*	00000000 libgcc2.c
00000000 l    df *ABS*	00000000 libgcc2.c
00000000 l    df *ABS*	00000000 libgcc2.c
00000000 l    df *ABS*	00000000 dp-bit.c
0008aebc l     F .text	00000410 _fpadd_parts
00000000 l    df *ABS*	00000000 dp-bit.c
00000000 l    df *ABS*	00000000 dp-bit.c
00000000 l    df *ABS*	00000000 dp-bit.c
00000000 l    df *ABS*	00000000 dp-bit.c
00000000 l    df *ABS*	00000000 dp-bit.c
00000000 l    df *ABS*	00000000 dp-bit.c
00000000 l    df *ABS*	00000000 dp-bit.c
00000000 l    df *ABS*	00000000 dp-bit.c
00000000 l    df *ABS*	00000000 dp-bit.c
00000000 l    df *ABS*	00000000 dp-bit.c
00000000 l    df *ABS*	00000000 dp-bit.c
00000000 l    df *ABS*	00000000 libgcc2.c
00000000 l    df *ABS*	00000000 libgcc2.c
00000000 l    df *ABS*	00000000 dp-bit.c
00000000 l    df *ABS*	00000000 dp-bit.c
00000000 l    df *ABS*	00000000 dp-bit.c
00000000 l    df *ABS*	00000000 alt_close.c
0008c67c l     F .text	00000060 alt_get_errno
00000000 l    df *ABS*	00000000 alt_dev.c
0008c6dc l     F .text	0000002c alt_dev_null_write
00000000 l    df *ABS*	00000000 alt_errno.c
00000000 l    df *ABS*	00000000 alt_fstat.c
0008c7e0 l     F .text	00000060 alt_get_errno
00000000 l    df *ABS*	00000000 alt_irq_register.c
00000000 l    df *ABS*	00000000 alt_irq_vars.c
00000000 l    df *ABS*	00000000 alt_isatty.c
0008cac4 l     F .text	00000060 alt_get_errno
00000000 l    df *ABS*	00000000 alt_load.c
0008cba4 l     F .text	0000006c alt_load_section
00000000 l    df *ABS*	00000000 alt_lseek.c
0008cd04 l     F .text	00000060 alt_get_errno
00000000 l    df *ABS*	00000000 alt_main.c
00000000 l    df *ABS*	00000000 alt_read.c
0008cf50 l     F .text	00000060 alt_get_errno
00000000 l    df *ABS*	00000000 alt_release_fd.c
00000000 l    df *ABS*	00000000 alt_sbrk.c
0009bbcc l     O .rwdata	00000004 heap_end
00000000 l    df *ABS*	00000000 alt_write.c
0008d208 l     F .text	00000060 alt_get_errno
00000000 l    df *ABS*	00000000 alt_env_lock.c
0009bbd0 l     O .rwdata	00000004 lockid
0009d7a0 l     O .bss	00000004 locks
00000000 l    df *ABS*	00000000 alt_malloc_lock.c
0009bbd4 l     O .rwdata	00000004 lockid
0009d7a8 l     O .bss	00000004 locks
00000000 l    df *ABS*	00000000 os_core.c
0008ec40 l     F .text	00000044 OS_InitMisc
0008ec84 l     F .text	0000006c OS_InitRdyList
0008ede8 l     F .text	000000e0 OS_InitTCBList
0008eb64 l     F .text	000000dc OS_InitEventList
0008ecf0 l     F .text	0000007c OS_InitTaskIdle
0008ed6c l     F .text	0000007c OS_InitTaskStat
0008f05c l     F .text	00000070 OS_SchedNew
00000000 l    df *ABS*	00000000 os_dbg.c
00000000 l    df *ABS*	00000000 os_flag.c
00090f7c l     F .text	00000110 OS_FlagTaskRdy
00090cd4 l     F .text	000001c4 OS_FlagBlock
00000000 l    df *ABS*	00000000 os_mbox.c
00000000 l    df *ABS*	00000000 os_mem.c
00000000 l    df *ABS*	00000000 os_q.c
00000000 l    df *ABS*	00000000 os_sem.c
00000000 l    df *ABS*	00000000 os_task.c
00000000 l    df *ABS*	00000000 os_time.c
00000000 l    df *ABS*	00000000 alt_sys_init.c
0009aafc l     O .rwdata	0000106c jtag_uart_0
0009bb68 l     O .rwdata	0000002c character_lcd_0
00096578 l     F .text	00000038 alt_dev_reg
00000000 l    df *ABS*	00000000 altera_avalon_jtag_uart_fd.c
00000000 l    df *ABS*	00000000 altera_avalon_jtag_uart_init.c
00096830 l     F .text	000002c4 altera_avalon_jtag_uart_irq
00096af4 l     F .text	00000114 altera_avalon_jtag_uart_timeout
00000000 l    df *ABS*	00000000 altera_avalon_jtag_uart_ioctl.c
00000000 l    df *ABS*	00000000 altera_avalon_jtag_uart_read.c
00000000 l    df *ABS*	00000000 altera_avalon_jtag_uart_write.c
00000000 l    df *ABS*	00000000 altera_avalon_performance_counter.c
00000000 l    df *ABS*	00000000 altera_avalon_timer_sc.c
00097498 l     F .text	00000070 alt_avalon_timer_sc_irq
00000000 l    df *ABS*	00000000 altera_up_avalon_character_lcd.c
00000000 l    df *ABS*	00000000 alt_alarm_start.c
00000000 l    df *ABS*	00000000 alt_dcache_flush_all.c
00000000 l    df *ABS*	00000000 alt_dev_llist_insert.c
00097cec l     F .text	00000060 alt_get_errno
00000000 l    df *ABS*	00000000 alt_do_ctors.c
00000000 l    df *ABS*	00000000 alt_do_dtors.c
00000000 l    df *ABS*	00000000 alt_find_dev.c
00000000 l    df *ABS*	00000000 alt_icache_flush_all.c
00000000 l    df *ABS*	00000000 alt_iic.c
00000000 l    df *ABS*	00000000 alt_iic_isr_register.c
00000000 l    df *ABS*	00000000 alt_io_redirect.c
00098190 l     F .text	000000d8 alt_open_fd
00000000 l    df *ABS*	00000000 alt_open.c
000982e0 l     F .text	000000f8 alt_file_locked
00098564 l     F .text	00000060 alt_get_errno
00000000 l    df *ABS*	00000000 alt_tick.c
00000000 l    df *ABS*	00000000 altera_nios2_qsys_irq.c
00000040 l       *ABS*	00000000 OSCtxSw_SWITCH_PC
00000000 l    df *ABS*	00000000 os_cpu_c.c
00000014 l       *ABS*	00000000 OSTCBNext_OFFSET
00000032 l       *ABS*	00000000 OSTCBPrio_OFFSET
00000000 l       *ABS*	00000000 OSTCBStkPtr_OFFSET
00000000 l    df *ABS*	00000000 alt_find_file.c
00000000 l    df *ABS*	00000000 alt_get_fd.c
00000000 l    df *ABS*	00000000 atexit.c
00000000 l    df *ABS*	00000000 exit.c
00000000 l    df *ABS*	00000000 memcmp.c
00000000 l    df *ABS*	00000000 __atexit.c
00000000 l    df *ABS*	00000000 __call_atexit.c
0009908c l     F .text	00000004 register_fini
00000000 l    df *ABS*	00000000 alt_exit.c
00099240 l     F .text	00000040 alt_sim_halt
0008291c g     F .text	0000001c putchar
0009d768 g     O .bss	00000004 MemoryPartition
00088390 g     F .text	00000094 _mprec_log10
0009bc22 g     O .rwdata	00000002 OSTaskNameSize
0008847c g     F .text	00000088 __any_on
00089f6c g     F .text	00000070 _isatty_r
00099e88 g     O .rodata	00000028 __mprec_tinytens
0008cd64 g     F .text	000000c8 alt_main
00082940 g     F .text	000000a0 _puts_r
000ba2d0 g     O .bss	00000100 alt_irq
00089fdc g     F .text	00000078 _lseek_r
000924fc g     F .text	000000d4 OS_MemInit
0009bc54 g       *ABS*	00000000 __flash_rwdata_start
0009645c g     F .text	00000064 OSTimeSet
00097614 g     F .text	00000034 alt_up_character_lcd_send_cmd
0008b9dc g     F .text	00000088 __eqdf2
0008d7bc g     F .text	000006b4 OSEventPendMulti
000ba560 g       *ABS*	00000000 __alt_heap_start
00098b6c g     F .text	00000020 OSTaskCreateHook
000828a4 g     F .text	00000044 printf
0009bbfa g     O .rwdata	00000002 OSMboxEn
0008dec4 g     F .text	0000007c OSIntEnter
000898d8 g     F .text	00000068 __sseek
00086608 g     F .text	000000a4 __sinit
00097474 g     F .text	00000024 alt_get_cpu_freq
00089ad8 g     F .text	00000130 __swbuf_r
0009bc0a g     O .rwdata	00000002 OSQEn
00087314 g     F .text	00000084 _setlocale_r
00086708 g     F .text	0000009c __sfmoreglue
00081d34 g     F .text	000001f8 bubble_sort_3
0008d478 g     F .text	000000d0 __malloc_unlock
00098bc8 g     F .text	0000001c OSTaskStatHook
0009d7b0 g     O .bss	00000001 OSLockNesting
000802c4 g     F .text	00000044 KEY3_Pressed
0009bc48 g     O .rwdata	00000002 OSDataSize
0009d7b1 g     O .bss	00000001 OSRunning
00087e0c g     F .text	000000e0 memmove
00098c00 g     F .text	0000001c OSInitHookBegin
0009bc40 g     O .rwdata	00000002 OSTmrSize
000866f8 g     F .text	00000010 _cleanup
00088504 g     F .text	000000bc _Balloc
0009d7b4 g     O .bss	00000004 OSIdleCtr
0009e7d4 g     O .bss	000001b0 gen_array_tcb
0008baec g     F .text	00000088 __gtdf2
00098838 g       .text	00000000 OSStartTsk
00000000  w      *UND*	00000000 __errno
00097598 g     F .text	0000007c get_DDRAM_addr
0008f390 g     F .text	000002e0 OS_TCBInit
00080000 g     F .entry	0000000c __reset
0009e984 g     O .bss	0000006c merge_sort_tcb
0009bc46 g     O .rwdata	00000002 OSTmrWheelTblSize
00080020 g       *ABS*	00000000 __flash_exceptions_start
0009bbe6 g     O .rwdata	00000002 OSEventSize
0009d7b8 g     O .bss	00000001 OSPrioHighRdy
00089ef8 g     F .text	00000074 _fstat_r
00098b8c g     F .text	00000020 OSTaskDelHook
0009d788 g     O .bss	00000004 errno
00098818 g       .text	00000000 OSStartHighRdy
00094c14 g     F .text	00000200 OSTaskCreateExt
00080958 g     F .text	0000003c initialize_task
000907f0 g     F .text	00000068 OSFlagPendGetFlagsRdy
0009bc26 g     O .rwdata	00000002 OSTaskStatStkSize
0008f7fc g     F .text	00000334 OSFlagAccept
00092c38 g     F .text	000000c8 OSQFlush
000925d0 g     F .text	00000154 OSQAccept
0009d798 g     O .bss	00000004 alt_argv
0009e9f0 g     O .bss	00008000 gen_array_stk
000a3b94 g       *ABS*	00000000 _gp
00094a40 g     F .text	000001d4 OSTaskCreate
000944cc g     F .text	00000574 OSTaskChangePrio
0009d7ac g     O .bss	00000004 alt_heapsem
0008f670 g     F .text	0000018c OSDebugInit
00094e14 g     F .text	0000040c OSTaskDel
0009a97c g     O .rwdata	00000180 alt_fd_list
000b6c4c g     O .bss	00000370 OSFlagTbl
00082938 g     F .text	00000008 _putchar_r
0008e940 g     F .text	000000b8 OS_EventTaskRemove
00097e14 g     F .text	00000094 alt_find_dev
00087d6c g     F .text	000000a0 memcpy
0009bc10 g     O .rwdata	00000002 OSRdyTblSize
000977ac g     F .text	0000004c alt_up_character_lcd_write_fd
000866ec g     F .text	0000000c _cleanup_r
0008bc84 g     F .text	000000f8 __floatsidf
00098268 g     F .text	00000078 alt_io_redirect
0008bbfc g     F .text	00000088 __ltdf2
00081b3c g     F .text	000001f8 bubble_sort_2
0009931c g       *ABS*	00000000 __DTOR_END__
00081f2c g     F .text	00000288 merge_sort
00080af8 g     F .text	00000168 init_OS_data_structs
000829e0 g     F .text	00000014 puts
0008d548 g     F .text	00000130 OSEventNameGet
0009bbf4 g     O .rwdata	00000002 OSFlagMax
000882e0 g     F .text	000000b0 __ratio
0008df40 g     F .text	00000100 OSIntExit
0009bc2e g     O .rwdata	00000002 OSTCBSize
0009d7b9 g     O .bss	00000001 OSPrioCur
00096d70 g     F .text	000002c0 altera_avalon_jtag_uart_read
00000000  w      *UND*	00000000 malloc
000828e8 g     F .text	00000034 _printf_r
00082710 g     F .text	00000008 __udivsi3
0008ca00 g     F .text	000000c4 isatty
0009bc14 g     O .rwdata	00000002 OSStkWidth
00099d98 g     O .rodata	000000c8 __mprec_tens
0009bc08 g     O .rwdata	00000002 OSPtrSize
000872f0 g     F .text	00000008 __locale_charset
0009bbe8 g     O .rwdata	00000002 OSEventTblSize
0009878c g       .text	00000000 OSCtxSw
000a69f0 g     O .bss	00000010 MboxGenArrayStart
0009d77c g     O .bss	00000004 __malloc_top_pad
0009d7bc g     O .bss	00000004 OSTCBList
00097410 g     F .text	00000040 perf_get_num_starts
0009d78c g     O .bss	00000004 alt_fd_list_lock
0009bba0 g     O .rwdata	00000004 __mb_cur_max
000a6a00 g     O .bss	00000010 MboxBubbleSortStart
000872f8 g     F .text	0000000c _localeconv_r
00088c68 g     F .text	0000003c __i2b
00086cd4 g     F .text	0000049c __sfvwrite_r
000b6fbc g     O .bss	00000c30 OSMemTbl
0009d7c0 g     O .bss	00000001 OSTickStepState
00089860 g     F .text	00000070 _sbrk_r
0009bc0c g     O .rwdata	00000002 OSQMax
000b7bec g     O .bss	00000800 OSTaskStatStk
000920e4 g     F .text	0000010c OSMemNameGet
0009bbec g     O .rwdata	00000002 OSFlagEn
0008a054 g     F .text	00000078 _read_r
0009bc32 g     O .rwdata	00000002 OSTimeTickHookEn
0009319c g     F .text	00000180 OSQPost
0009108c g     F .text	000000ac OS_FlagUnlink
0009a540 g     O .rwdata	0000000c __lc_ctype
0009bbc0 g     O .rwdata	00000004 alt_max_fd
0008ef1c g     F .text	0000006c OS_MemCopy
0008ef88 g     F .text	000000d4 OS_Sched
0008c37c g     F .text	00000138 __unpack_d
00089dd4 g     F .text	00000110 _fclose_r
00091fe0 g     F .text	00000104 OSMemGet
00091c94 g     F .text	00000130 OSMboxQuery
00095548 g     F .text	000001c4 OSTaskNameSet
0008656c g     F .text	00000034 fflush
0009d780 g     O .bss	00000004 __malloc_max_sbrked_mem
0009d7c4 g     O .bss	00000004 OSCtxSwCtr
00098be4 g     F .text	0000001c OSTimeTickHook
0008c840 g     F .text	000001c0 alt_irq_register
0009bbf6 g     O .rwdata	00000002 OSFlagNameSize
0008e9f8 g     F .text	00000104 OS_EventTaskRemoveMulti
0008b34c g     F .text	00000074 __adddf3
0008e7ec g     F .text	00000154 OS_EventTaskWaitMulti
000881c0 g     F .text	00000120 __b2d
0009bc0e g     O .rwdata	00000002 OSQSize
0008a85c g     F .text	00000660 __umoddi3
0008cc10 g     F .text	000000f4 lseek
00081944 g     F .text	000001f8 bubble_sort_1
00093d78 g     F .text	0000027c OSSemPend
0009bb9c g     O .rwdata	00000004 _global_impure_ptr
0009d834 g     O .bss	00000fa0 data_array
000a6a10 g     O .bss	00000010 PBSemaphore
000891fc g     F .text	000005f4 _realloc_r
0009bbf8 g     O .rwdata	00000002 OSLowestPrio
000ba560 g       *ABS*	00000000 __bss_end
00098098 g     F .text	000000f8 alt_iic_isr_register
00098c54 g     F .text	00000020 OSTCBInitHook
0009bc3e g     O .rwdata	00000002 OSTmrCfgTicksPerSec
0009865c g     F .text	00000110 alt_tick
000919d4 g     F .text	00000134 OSMboxPost
0008a1f0 g     F .text	0000066c __udivdi3
0009bbe0 g     O .rwdata	00000002 OSEventEn
00099e60 g     O .rodata	00000028 __mprec_bigtens
00088ef0 g     F .text	00000120 __s2b
0009bc3a g     O .rwdata	00000002 OSTmrCfgNameSize
0008be54 g     F .text	00000194 __floatunsidf
000880e0 g     F .text	00000060 __mcmp
00080ce4 g     F .text	000002c4 sorting
000866d4 g     F .text	00000018 __fp_lock_all
00098050 g     F .text	00000048 alt_ic_irq_enabled
00090e98 g     F .text	000000e4 OS_FlagInit
000985c4 g     F .text	00000098 alt_alarm_stop
0009bc1c g     O .rwdata	00000002 OSTaskIdleStkSize
0009d790 g     O .bss	00000004 alt_irq_active
00093904 g     F .text	000000c0 OSSemAccept
00092310 g     F .text	000000f0 OSMemPut
00091dc4 g     F .text	0000021c OSMemCreate
0009d7c8 g     O .bss	00000004 OSIdleCtrMax
000800ec g     F .exceptions	000000d0 alt_irq_handler
0009a954 g     O .rwdata	00000028 alt_dev_null
0009bc30 g     O .rwdata	00000002 OSTicksPerSec
00080280 g     F .text	00000044 KEY2_Pressed
00097a94 g     F .text	00000034 alt_up_character_lcd_cursor_blink_on
0009878c g       .text	00000000 OSIntCtxSw
00097c1c g     F .text	0000001c alt_dcache_flush_all
00087fac g     F .text	00000070 __hi0bits
0008bd7c g     F .text	000000d8 __fixdfsi
000821b4 g     F .text	00000420 task_launcher
0008154c g     F .text	000001e8 gen_array_3
0009d7cc g     O .bss	00000004 OSTCBFreeList
0009bc54 g       *ABS*	00000000 __ram_rwdata_end
00093ff4 g     F .text	0000017c OSSemPendAbort
0009bbb8 g     O .rwdata	00000008 alt_dev_list
0008d0e4 g     F .text	00000124 write
00089114 g     F .text	000000e8 _putc_r
000a6a20 g     O .bss	000001b0 bubble_sort_tcb
0009bc34 g     O .rwdata	00000002 OSVersionNbr
0009a140 g       *ABS*	00000000 __ram_rodata_end
0008c708 g     F .text	000000d8 fstat
00082758 g     F .text	0000002c fprintf
0009bbdc g     O .rwdata	00000004 OSEndiannessTest
00088dd0 g     F .text	00000120 __pow5mult
0009d770 g     O .bss	00000004 __nlocale_changed
00082718 g     F .text	00000008 __umodsi3
0009bbee g     O .rwdata	00000002 OSFlagGrpSize
000ba560 g       *ABS*	00000000 end
000966f8 g     F .text	00000138 altera_avalon_jtag_uart_init
0008f200 g     F .text	000000c8 OS_TaskStat
00081184 g     F .text	000001e4 gen_array_1
00099318 g       *ABS*	00000000 __CTOR_LIST__
00100000 g       *ABS*	00000000 __alt_stack_pointer
00097508 g     F .text	00000090 alt_avalon_timer_sc_init
0008bfe8 g     F .text	00000080 __clzsi2
00097030 g     F .text	000002dc altera_avalon_jtag_uart_write
000865f8 g     F .text	00000004 __sfp_lock_acquire
00087c88 g     F .text	000000e4 memchr
0008eec8 g     F .text	00000054 OS_MemClr
000976bc g     F .text	00000078 alt_up_character_lcd_write
00082b54 g     F .text	00001ec4 ___vfprintf_internal_r
0009885c g     F .text	00000310 OSTaskStkInit
000869c0 g     F .text	00000314 _free_r
0008e548 g     F .text	00000194 OS_EventTaskRdy
00099090 g     F .text	000001b0 __call_exitprocs
0009d7d0 g     O .bss	00000001 OSCPUUsage
0009d774 g     O .bss	00000004 __mlocale_changed
0009bbac g     O .rwdata	00000004 __malloc_sbrk_base
000801bc g     F .text	0000003c _start
0009d804 g     O .bss	00000004 _alt_tick_rate
00092d00 g     F .text	00000320 OSQPend
00095f0c g     F .text	0000014c OSTimeDly
00082a10 g     F .text	00000078 rand
000888c8 g     F .text	0000014c __lshift
000a6bd0 g     O .bss	00008000 bubble_sort_stk
0009d808 g     O .bss	00000004 _alt_nticks
0008ce2c g     F .text	00000124 read
000964f4 g     F .text	00000084 alt_sys_init
00097920 g     F .text	000000b0 alt_up_character_lcd_shift_display
00098f58 g     F .text	00000134 __register_exitproc
0009d7d1 g     O .bss	00000001 OSTaskCtr
00096058 g     F .text	00000190 OSTimeDlyHMSM
00088a14 g     F .text	00000254 __multiply
000979d0 g     F .text	00000090 alt_up_character_lcd_erase_pos
00096c08 g     F .text	00000074 altera_avalon_jtag_uart_close
00082720 g     F .text	00000038 __mulsi3
0009a140 g       *ABS*	00000000 __ram_rwdata_start
0009931c g       *ABS*	00000000 __ram_rodata_start
0009d80c g     O .bss	00000028 __malloc_current_mallinfo
0009bbe2 g     O .rwdata	00000002 OSEventMax
000885c0 g     F .text	0000017c __d2b
00094170 g     F .text	00000128 OSSemPost
0008023c g     F .text	00000044 KEY1_Pressed
0008e0cc g     F .text	000000e4 OSSchedUnlock
000965b0 g     F .text	00000058 altera_avalon_jtag_uart_read_fd
00098d94 g     F .text	00000104 alt_get_fd
0009d7d4 g     O .bss	00000004 OSMemFreeList
0008e220 g     F .text	000000ac OSStatInit
00090c00 g     F .text	000000d4 OSFlagQuery
0008c4b4 g     F .text	000000c8 __fpcmp_parts_d
0009bc18 g     O .rwdata	00000002 OSTaskCreateExtEn
00089d64 g     F .text	00000070 _close_r
0009730c g     F .text	000000b0 perf_get_section_time
00098ee4 g     F .text	00000074 memcmp
0008e52c g     F .text	0000001c OS_Dummy
00096660 g     F .text	00000048 altera_avalon_jtag_uart_close_fd
000ba560 g       *ABS*	00000000 __alt_stack_base
000966a8 g     F .text	00000050 altera_avalon_jtag_uart_ioctl_fd
000827b8 g     F .text	000000ac _fwrite_r
00084a3c g     F .text	0000013c __swsetup_r
000b83ec g     O .bss	000001e0 OSQTbl
0008b784 g     F .text	00000258 __divdf3
000867a4 g     F .text	000000f0 __sfp
00088424 g     F .text	00000058 __copybits
000973bc g     F .text	00000054 perf_get_total_time
0009a54c g     O .rwdata	00000408 __malloc_av_
00086604 g     F .text	00000004 __sinit_lock_release
0009d7d8 g     O .bss	00000004 OSTCBHighRdy
0008b3c0 g     F .text	000003c4 __muldf3
000899bc g     F .text	00000060 __sread
0009d7dc g     O .bss	00000004 OSQFreeList
000aebd0 g     O .bss	00002000 merge_sort_stk
00098c74 g     F .text	00000120 alt_find_file
00097c38 g     F .text	000000b4 alt_dev_llist_insert
0008d370 g     F .text	00000108 __malloc_lock
00082784 g     F .text	00000034 _fprintf_r
0008d028 g     F .text	000000bc sbrk
0008d678 g     F .text	00000144 OSEventNameSet
00086370 g     F .text	000001fc _fflush_r
00089c9c g     F .text	000000c8 _calloc_r
0009d7e0 g     O .bss	00000001 OSRdyGrp
0009d768 g       *ABS*	00000000 __bss_start
00087eec g     F .text	00000098 memset
00080994 g     F .text	00000164 main
0009d79c g     O .bss	00000004 alt_envp
0009d784 g     O .bss	00000004 __malloc_max_total_mem
00096608 g     F .text	00000058 altera_avalon_jtag_uart_write_fd
00089c08 g     F .text	0000001c __swbuf
000829f4 g     F .text	0000001c srand
00099ff0 g     O .rodata	00000100 OSUnMapTbl
0009bc12 g     O .rwdata	00000002 OSSemEn
00097870 g     F .text	000000b0 alt_up_character_lcd_shift_cursor
00090858 g     F .text	000003a8 OSFlagPost
000898d0 g     F .text	00000008 __sclose
00080474 g     F .text	000004e4 alt_ucosii_simple_error_handler
00100000 g       *ABS*	00000000 __alt_heap_limit
00089ee4 g     F .text	00000014 fclose
0008e6dc g     F .text	00000110 OS_EventTaskWait
0008f2c8 g     F .text	000000c8 OS_TaskStatStkChk
000ba3d0 g     O .bss	00000190 _atexit0
00095220 g     F .text	00000170 OSTaskDelReq
00084dbc g     F .text	000015b4 _dtoa_r
00087548 g     F .text	00000740 _malloc_r
0009bbc4 g     O .rwdata	00000004 alt_errno
0008e1b0 g     F .text	00000070 OSStart
0008d314 g     F .text	0000005c __env_unlock
00087238 g     F .text	000000b8 _fwalk
0009570c g     F .text	00000218 OSTaskResume
00092400 g     F .text	000000fc OSMemQuery
0009bc24 g     O .rwdata	00000002 OSTaskStatEn
0009bbfe g     O .rwdata	00000002 OSMemMax
0009331c g     F .text	00000188 OSQPostFront
00089010 g     F .text	00000104 putc
00082650 g     F .text	00000060 __divsi3
0009d7e1 g     O .bss	00000004 OSRdyTbl
0009bbd8 g     O .rwdata	00000002 OSDebugEn
00099ebc g     O .rodata	00000014 __thenan_df
0009767c g     F .text	00000040 alt_up_character_lcd_open_dev
00086894 g     F .text	0000012c _malloc_trim_r
0009931c g       *ABS*	00000000 __CTOR_END__
0009bbf0 g     O .rwdata	00000002 OSFlagNodeSize
0009bc38 g     O .rwdata	00000002 OSTmrCfgMax
00097648 g     F .text	00000034 alt_up_character_lcd_init
00089a1c g     F .text	000000bc strcmp
00092724 g     F .text	00000214 OSQCreate
00095390 g     F .text	000001b8 OSTaskNameGet
0009931c g       *ABS*	00000000 __flash_rodata_start
000934a4 g     F .text	00000234 OSQPostOpt
0008e2cc g     F .text	00000240 OSTimeTick
0009bc20 g     O .rwdata	00000002 OSTaskMax
0009931c g       *ABS*	00000000 __DTOR_LIST__
000939c4 g     F .text	00000114 OSSemCreate
0009bc44 g     O .rwdata	00000002 OSTmrWheelSize
0008ba64 g     F .text	00000088 __nedf2
0009bc1a g     O .rwdata	00000002 OSTaskDelEn
00080000 g       *ABS*	00000000 __alt_mem_sram_0
00094298 g     F .text	00000130 OSSemQuery
00092938 g     F .text	00000300 OSQDel
00093020 g     F .text	0000017c OSQPendAbort
000964c0 g     F .text	00000034 alt_irq_init
0008cfb0 g     F .text	00000078 alt_release_fd
000803dc g     F .text	00000054 init_button_irq
00097a60 g     F .text	00000034 alt_up_character_lcd_cursor_off
00099ed0 g     O .rodata	00000100 __clz_tab
0009d778 g     O .bss	00000004 _PathLocale
00098e98 g     F .text	00000014 atexit
00089c24 g     F .text	00000078 _write_r
000b0bd0 g     O .bss	00002000 sorting_stk
0008e040 g     F .text	0000008c OSSchedLock
00087398 g     F .text	0000001c setlocale
0008fb30 g     F .text	0000013c OSFlagCreate
00080c60 g     F .text	00000084 init_create_tasks
0009bb98 g     O .rwdata	00000004 _impure_ptr
0009d794 g     O .bss	00000004 alt_argc
00097db0 g     F .text	00000064 _do_dtors
0009bbea g     O .rwdata	00000002 OSEventMultiEn
0008fc6c g     F .text	000002a8 OSFlagDel
0009d7e8 g     O .bss	00000004 OSEventFreeList
00091858 g     F .text	0000017c OSMboxPendAbort
00080020 g       .exceptions	00000000 alt_irq_entry
00088140 g     F .text	00000080 __ulp
000897f0 g     F .text	00000040 __isinfd
000901ac g     F .text	00000644 OSFlagPend
0009bc36 g     O .rwdata	00000002 OSTmrEn
000866bc g     F .text	00000018 __fp_unlock_all
0009bbb0 g     O .rwdata	00000008 alt_fs_list
00080430 g     F .text	00000044 alt_ucosii_check_return_code
0008f0cc g     F .text	00000080 OS_StrCopy
0009bc00 g     O .rwdata	00000002 OSMemNameSize
00098c1c g     F .text	0000001c OSInitHookEnd
00080020 g       *ABS*	00000000 __ram_exceptions_start
0009bc2c g     O .rwdata	00000002 OSTCBPrioTblMax
00087304 g     F .text	00000010 localeconv
0009bc28 g     O .rwdata	00000002 OSTaskStatStkChkEn
000911dc g     F .text	00000114 OSMboxCreate
00097ec4 g     F .text	00000050 alt_ic_isr_register
0009bbfc g     O .rwdata	00000002 OSMemEn
00082864 g     F .text	00000040 fwrite
0009bc06 g     O .rwdata	00000002 OSMutexEn
0009bc54 g       *ABS*	00000000 _edata
000801f8 g     F .text	00000044 KEY0_Pressed
000ba560 g       *ABS*	00000000 _end
0009d7ec g     O .bss	00000001 OSIntNesting
000801bc g       *ABS*	00000000 __ram_exceptions_end
00096c7c g     F .text	000000f4 altera_avalon_jtag_uart_ioctl
000b2bd0 g     O .bss	00000010 MboxBubbleSortDone
000961e8 g     F .text	00000210 OSTimeDlyResume
00090058 g     F .text	00000154 OSFlagNameSet
00091590 g     F .text	000002c8 OSMboxPend
00095924 g     F .text	000001fc OSTaskStkChk
00097fb0 g     F .text	000000a0 alt_ic_irq_disable
0009d76c g     O .bss	00000004 MboxMergeSortDone
0009bc02 g     O .rwdata	00000002 OSMemSize
00089940 g     F .text	0000007c __swrite
0009bba8 g     O .rwdata	00000004 __malloc_trim_threshold
00097450 g     F .text	00000024 alt_get_performance_counter_base
0009876c g     F .text	00000020 altera_nios2_qsys_irq_init
0009d7f0 g     O .bss	00000004 OSTCBCur
00098eac g     F .text	00000038 exit
0009bc04 g     O .rwdata	00000002 OSMemTblSize
00087170 g     F .text	000000c8 _fwalk_reent
0008873c g     F .text	0000018c __mdiff
000826b0 g     F .text	00000060 __modsi3
00081734 g     F .text	00000210 bubble_sort_0
00091138 g     F .text	000000a4 OSMboxAccept
00100000 g       *ABS*	00000000 __alt_data_end
00080020 g     F .exceptions	00000000 alt_exception
000865fc g     F .text	00000004 __sfp_lock_release
0008de70 g     F .text	00000054 OSInit
00095d4c g     F .text	00000144 OSTaskQuery
00097734 g     F .text	00000078 alt_up_character_lcd_string
00093858 g     F .text	000000ac OS_QInit
0008f14c g     F .text	00000058 OS_StrLen
000921f0 g     F .text	00000120 OSMemNameSet
0009bb94 g     O .rwdata	00000004 performance_name
0009bc1e g     O .rwdata	00000002 OSTaskProfileEn
0009d7f4 g     O .bss	00000004 OSTime
000b2be0 g     O .bss	00002000 initialize_task_stk
000b85cc g     O .bss	00000800 OSTaskIdleStk
00099280 g     F .text	0000002c _exit
00089830 g     F .text	00000030 __isnand
00091b08 g     F .text	0000018c OSMboxPostOpt
00097ac8 g     F .text	00000154 alt_alarm_start
0008ff14 g     F .text	00000144 OSFlagNameGet
000963f8 g     F .text	00000064 OSTimeGet
0008a0cc g     F .text	00000124 __muldi3
00080fa8 g     F .text	000001dc gen_array_0
000873b4 g     F .text	00000194 __smakebuf_r
00082a88 g     F .text	00000074 strlen
00098bac g     F .text	0000001c OSTaskSwHook
000983d8 g     F .text	0000018c open
000b8dcc g     O .bss	00000b40 OSEventTbl
0008bb74 g     F .text	00000088 __gedf2
000b990c g     O .bss	00000948 OSTCBTbl
000943c8 g     F .text	00000104 OSSemSet
00097ea8 g     F .text	0000001c alt_icache_flush_all
00081368 g     F .text	000001e4 gen_array_2
000977f8 g     F .text	00000078 alt_up_character_lcd_set_cursor_pos
0009bbc8 g     O .rwdata	00000004 alt_priority_mask
00093ad8 g     F .text	000002a0 OSSemDel
0009d7f8 g     O .bss	00000004 OSFlagFreeList
00097f14 g     F .text	0000009c alt_ic_irq_enable
0009bbe4 g     O .rwdata	00000002 OSEventNameSize
000912f0 g     F .text	000002a0 OSMboxDel
00084a18 g     F .text	00000024 __vfprintf_internal
0009d7fc g     O .bss	00000001 OSStatRdy
000ba254 g     O .bss	0000007c OSTCBPrioTbl
0008d268 g     F .text	000000ac __env_lock
0009bc2a g     O .rwdata	00000002 OSTaskSwHookEn
0008b2cc g     F .text	00000080 __subdf3
0008801c g     F .text	000000c4 __lo0bits
0009bc4c g     O .rwdata	00000008 alt_alarm_list
000b4be0 g     O .bss	00002000 task_launcher_stk
0009bbf2 g     O .rwdata	00000002 OSFlagWidth
00097d4c g     F .text	00000064 _do_ctors
00080308 g     F .text	000000d4 handle_button_interrupts
0008c57c g     F .text	00000100 close
0009d7a4 g     O .bss	00000004 alt_envsem
0009d800 g     O .bss	00000004 OSIdleCtrRun
000b6be0 g     O .bss	0000006c sorting_tcb
0008e50c g     F .text	00000020 OSVersion
0009bc3c g     O .rwdata	00000002 OSTmrCfgWheelSize
0008cb24 g     F .text	00000080 alt_load
00095e90 g     F .text	0000007c OS_TaskStkClr
0008c068 g     F .text	00000314 __pack_d
0009bc16 g     O .rwdata	00000002 OSTaskCreateEn
0008eafc g     F .text	00000068 OS_EventWaitListInit
00098c38 g     F .text	0000001c OSTaskIdleHook
00000000  w      *UND*	00000000 free
00086600 g     F .text	00000004 __sinit_lock_acquire
00088ca4 g     F .text	0000012c __multadd
00095b20 g     F .text	0000022c OSTaskSuspend
00087f84 g     F .text	00000028 _Bfree
0008f1a4 g     F .text	0000005c OS_TaskIdle
0009bc42 g     O .rwdata	00000002 OSTmrTblSize
000936d8 g     F .text	00000180 OSQQuery



Disassembly of section .entry:

00080000 <__reset>:
   80000:	00400234 	movhi	at,8
   80004:	08406f14 	ori	at,at,444
   80008:	0800683a 	jmp	at
	...

Disassembly of section .exceptions:

00080020 <alt_exception>:
   80020:	deffed04 	addi	sp,sp,-76
   80024:	dfc00015 	stw	ra,0(sp)
   80028:	d8400215 	stw	at,8(sp)
   8002c:	d8800315 	stw	r2,12(sp)
   80030:	d8c00415 	stw	r3,16(sp)
   80034:	d9000515 	stw	r4,20(sp)
   80038:	d9400615 	stw	r5,24(sp)
   8003c:	d9800715 	stw	r6,28(sp)
   80040:	d9c00815 	stw	r7,32(sp)
   80044:	000b307a 	rdctl	r5,estatus
   80048:	da000915 	stw	r8,36(sp)
   8004c:	da400a15 	stw	r9,40(sp)
   80050:	da800b15 	stw	r10,44(sp)
   80054:	dac00c15 	stw	r11,48(sp)
   80058:	db000d15 	stw	r12,52(sp)
   8005c:	db400e15 	stw	r13,56(sp)
   80060:	db800f15 	stw	r14,60(sp)
   80064:	dbc01015 	stw	r15,64(sp)
   80068:	d9401115 	stw	r5,68(sp)
   8006c:	ebffff04 	addi	r15,ea,-4
   80070:	dbc01215 	stw	r15,72(sp)
   80074:	0009313a 	rdctl	r4,ipending
   80078:	2880004c 	andi	r2,r5,1
   8007c:	10000326 	beq	r2,zero,8008c <alt_exception+0x6c>
   80080:	20000226 	beq	r4,zero,8008c <alt_exception+0x6c>
   80084:	00800ec0 	call	800ec <alt_irq_handler>
   80088:	00000306 	br	80098 <alt_exception+0x78>
   8008c:	df401215 	stw	ea,72(sp)
   80090:	e8bfff17 	ldw	r2,-4(ea)
   80094:	003da03a 	break	0
   80098:	d9401117 	ldw	r5,68(sp)
   8009c:	df401217 	ldw	ea,72(sp)
   800a0:	dfc00017 	ldw	ra,0(sp)
   800a4:	2801707a 	wrctl	estatus,r5
   800a8:	d8400217 	ldw	at,8(sp)
   800ac:	d8800317 	ldw	r2,12(sp)
   800b0:	d8c00417 	ldw	r3,16(sp)
   800b4:	d9000517 	ldw	r4,20(sp)
   800b8:	d9400617 	ldw	r5,24(sp)
   800bc:	d9800717 	ldw	r6,28(sp)
   800c0:	d9c00817 	ldw	r7,32(sp)
   800c4:	da000917 	ldw	r8,36(sp)
   800c8:	da400a17 	ldw	r9,40(sp)
   800cc:	da800b17 	ldw	r10,44(sp)
   800d0:	dac00c17 	ldw	r11,48(sp)
   800d4:	db000d17 	ldw	r12,52(sp)
   800d8:	db400e17 	ldw	r13,56(sp)
   800dc:	db800f17 	ldw	r14,60(sp)
   800e0:	dbc01017 	ldw	r15,64(sp)
   800e4:	dec01304 	addi	sp,sp,76
   800e8:	ef80083a 	eret

000800ec <alt_irq_handler>:
   800ec:	defff904 	addi	sp,sp,-28
   800f0:	dfc00615 	stw	ra,24(sp)
   800f4:	df000515 	stw	fp,20(sp)
   800f8:	df000504 	addi	fp,sp,20
   800fc:	008dec40 	call	8dec4 <OSIntEnter>
   80100:	0005313a 	rdctl	r2,ipending
   80104:	e0bffc15 	stw	r2,-16(fp)
   80108:	e0bffc17 	ldw	r2,-16(fp)
   8010c:	e0bfff15 	stw	r2,-4(fp)
   80110:	e03ffd15 	stw	zero,-12(fp)
   80114:	00800044 	movi	r2,1
   80118:	e0bffe15 	stw	r2,-8(fp)
   8011c:	e0ffff17 	ldw	r3,-4(fp)
   80120:	e0bffe17 	ldw	r2,-8(fp)
   80124:	1884703a 	and	r2,r3,r2
   80128:	1005003a 	cmpeq	r2,r2,zero
   8012c:	1000161e 	bne	r2,zero,80188 <alt_irq_handler+0x9c>
   80130:	e0bffd17 	ldw	r2,-12(fp)
   80134:	00c00334 	movhi	r3,12
   80138:	18e8b404 	addi	r3,r3,-23856
   8013c:	100490fa 	slli	r2,r2,3
   80140:	10c5883a 	add	r2,r2,r3
   80144:	11400017 	ldw	r5,0(r2)
   80148:	e0bffd17 	ldw	r2,-12(fp)
   8014c:	00c00334 	movhi	r3,12
   80150:	18e8b404 	addi	r3,r3,-23856
   80154:	100490fa 	slli	r2,r2,3
   80158:	10c5883a 	add	r2,r2,r3
   8015c:	10800104 	addi	r2,r2,4
   80160:	11000017 	ldw	r4,0(r2)
   80164:	283ee83a 	callr	r5
   80168:	0005313a 	rdctl	r2,ipending
   8016c:	e0bffb15 	stw	r2,-20(fp)
   80170:	e0bffb17 	ldw	r2,-20(fp)
   80174:	e0bfff15 	stw	r2,-4(fp)
   80178:	e0bfff17 	ldw	r2,-4(fp)
   8017c:	1004c03a 	cmpne	r2,r2,zero
   80180:	103fe31e 	bne	r2,zero,80110 <alt_irq_handler+0x24>
   80184:	00000706 	br	801a4 <alt_irq_handler+0xb8>
   80188:	e0bffe17 	ldw	r2,-8(fp)
   8018c:	1085883a 	add	r2,r2,r2
   80190:	e0bffe15 	stw	r2,-8(fp)
   80194:	e0bffd17 	ldw	r2,-12(fp)
   80198:	10800044 	addi	r2,r2,1
   8019c:	e0bffd15 	stw	r2,-12(fp)
   801a0:	003fde06 	br	8011c <alt_irq_handler+0x30>
   801a4:	008df400 	call	8df40 <OSIntExit>
   801a8:	e037883a 	mov	sp,fp
   801ac:	dfc00117 	ldw	ra,4(sp)
   801b0:	df000017 	ldw	fp,0(sp)
   801b4:	dec00204 	addi	sp,sp,8
   801b8:	f800283a 	ret

Disassembly of section .text:

000801bc <_start>:
   801bc:	06c00434 	movhi	sp,16
   801c0:	dec00014 	ori	sp,sp,0
   801c4:	068002b4 	movhi	gp,10
   801c8:	d68ee514 	ori	gp,gp,15252
   801cc:	00800274 	movhi	r2,9
   801d0:	10b5da14 	ori	r2,r2,55144
   801d4:	00c002f4 	movhi	r3,11
   801d8:	18e95814 	ori	r3,r3,42336
   801dc:	10c00326 	beq	r2,r3,801ec <_start+0x30>
   801e0:	10000015 	stw	zero,0(r2)
   801e4:	10800104 	addi	r2,r2,4
   801e8:	10fffd36 	bltu	r2,r3,801e0 <_start+0x24>
   801ec:	008cb240 	call	8cb24 <alt_load>
   801f0:	008cd640 	call	8cd64 <alt_main>

000801f4 <alt_after_alt_main>:
   801f4:	003fff06 	br	801f4 <alt_after_alt_main>

000801f8 <KEY0_Pressed>:
   801f8:	defffd04 	addi	sp,sp,-12
   801fc:	dfc00215 	stw	ra,8(sp)
   80200:	df000115 	stw	fp,4(sp)
   80204:	df000104 	addi	fp,sp,4
   80208:	e03fff05 	stb	zero,-4(fp)
   8020c:	008002b4 	movhi	r2,10
   80210:	109a8404 	addi	r2,r2,27152
   80214:	11000017 	ldw	r4,0(r2)
   80218:	00941700 	call	94170 <OSSemPost>
   8021c:	e0bfff05 	stb	r2,-4(fp)
   80220:	e13fff03 	ldbu	r4,-4(fp)
   80224:	00804300 	call	80430 <alt_ucosii_check_return_code>
   80228:	e037883a 	mov	sp,fp
   8022c:	dfc00117 	ldw	ra,4(sp)
   80230:	df000017 	ldw	fp,0(sp)
   80234:	dec00204 	addi	sp,sp,8
   80238:	f800283a 	ret

0008023c <KEY1_Pressed>:
   8023c:	defffd04 	addi	sp,sp,-12
   80240:	dfc00215 	stw	ra,8(sp)
   80244:	df000115 	stw	fp,4(sp)
   80248:	df000104 	addi	fp,sp,4
   8024c:	e03fff05 	stb	zero,-4(fp)
   80250:	008002b4 	movhi	r2,10
   80254:	109a8404 	addi	r2,r2,27152
   80258:	11000117 	ldw	r4,4(r2)
   8025c:	00941700 	call	94170 <OSSemPost>
   80260:	e0bfff05 	stb	r2,-4(fp)
   80264:	e13fff03 	ldbu	r4,-4(fp)
   80268:	00804300 	call	80430 <alt_ucosii_check_return_code>
   8026c:	e037883a 	mov	sp,fp
   80270:	dfc00117 	ldw	ra,4(sp)
   80274:	df000017 	ldw	fp,0(sp)
   80278:	dec00204 	addi	sp,sp,8
   8027c:	f800283a 	ret

00080280 <KEY2_Pressed>:
   80280:	defffd04 	addi	sp,sp,-12
   80284:	dfc00215 	stw	ra,8(sp)
   80288:	df000115 	stw	fp,4(sp)
   8028c:	df000104 	addi	fp,sp,4
   80290:	e03fff05 	stb	zero,-4(fp)
   80294:	008002b4 	movhi	r2,10
   80298:	109a8404 	addi	r2,r2,27152
   8029c:	11000217 	ldw	r4,8(r2)
   802a0:	00941700 	call	94170 <OSSemPost>
   802a4:	e0bfff05 	stb	r2,-4(fp)
   802a8:	e13fff03 	ldbu	r4,-4(fp)
   802ac:	00804300 	call	80430 <alt_ucosii_check_return_code>
   802b0:	e037883a 	mov	sp,fp
   802b4:	dfc00117 	ldw	ra,4(sp)
   802b8:	df000017 	ldw	fp,0(sp)
   802bc:	dec00204 	addi	sp,sp,8
   802c0:	f800283a 	ret

000802c4 <KEY3_Pressed>:
   802c4:	defffd04 	addi	sp,sp,-12
   802c8:	dfc00215 	stw	ra,8(sp)
   802cc:	df000115 	stw	fp,4(sp)
   802d0:	df000104 	addi	fp,sp,4
   802d4:	e03fff05 	stb	zero,-4(fp)
   802d8:	008002b4 	movhi	r2,10
   802dc:	109a8404 	addi	r2,r2,27152
   802e0:	11000317 	ldw	r4,12(r2)
   802e4:	00941700 	call	94170 <OSSemPost>
   802e8:	e0bfff05 	stb	r2,-4(fp)
   802ec:	e13fff03 	ldbu	r4,-4(fp)
   802f0:	00804300 	call	80430 <alt_ucosii_check_return_code>
   802f4:	e037883a 	mov	sp,fp
   802f8:	dfc00117 	ldw	ra,4(sp)
   802fc:	df000017 	ldw	fp,0(sp)
   80300:	dec00204 	addi	sp,sp,8
   80304:	f800283a 	ret

00080308 <handle_button_interrupts>:
   80308:	defffd04 	addi	sp,sp,-12
   8030c:	dfc00215 	stw	ra,8(sp)
   80310:	df000115 	stw	fp,4(sp)
   80314:	df000104 	addi	fp,sp,4
   80318:	008dec40 	call	8dec4 <OSIntEnter>
   8031c:	00800434 	movhi	r2,16
   80320:	10842304 	addi	r2,r2,4236
   80324:	11000037 	ldwio	r4,0(r2)
   80328:	00800434 	movhi	r2,16
   8032c:	10842304 	addi	r2,r2,4236
   80330:	11400037 	ldwio	r5,0(r2)
   80334:	00827200 	call	82720 <__mulsi3>
   80338:	1007883a 	mov	r3,r2
   8033c:	00800434 	movhi	r2,16
   80340:	10841804 	addi	r2,r2,4192
   80344:	10c00035 	stwio	r3,0(r2)
   80348:	00800434 	movhi	r2,16
   8034c:	10842304 	addi	r2,r2,4236
   80350:	10800037 	ldwio	r2,0(r2)
   80354:	e0bfff15 	stw	r2,-4(fp)
   80358:	e0ffff17 	ldw	r3,-4(fp)
   8035c:	188000a0 	cmpeqi	r2,r3,2
   80360:	1000101e 	bne	r2,zero,803a4 <handle_button_interrupts+0x9c>
   80364:	e0ffff17 	ldw	r3,-4(fp)
   80368:	188000c8 	cmpgei	r2,r3,3
   8036c:	1000041e 	bne	r2,zero,80380 <handle_button_interrupts+0x78>
   80370:	e0ffff17 	ldw	r3,-4(fp)
   80374:	18800060 	cmpeqi	r2,r3,1
   80378:	1000081e 	bne	r2,zero,8039c <handle_button_interrupts+0x94>
   8037c:	00000e06 	br	803b8 <handle_button_interrupts+0xb0>
   80380:	e0ffff17 	ldw	r3,-4(fp)
   80384:	18800120 	cmpeqi	r2,r3,4
   80388:	1000081e 	bne	r2,zero,803ac <handle_button_interrupts+0xa4>
   8038c:	e0ffff17 	ldw	r3,-4(fp)
   80390:	18800220 	cmpeqi	r2,r3,8
   80394:	1000071e 	bne	r2,zero,803b4 <handle_button_interrupts+0xac>
   80398:	00000706 	br	803b8 <handle_button_interrupts+0xb0>
   8039c:	00801f80 	call	801f8 <KEY0_Pressed>
   803a0:	00000506 	br	803b8 <handle_button_interrupts+0xb0>
   803a4:	008023c0 	call	8023c <KEY1_Pressed>
   803a8:	00000306 	br	803b8 <handle_button_interrupts+0xb0>
   803ac:	00802800 	call	80280 <KEY2_Pressed>
   803b0:	00000106 	br	803b8 <handle_button_interrupts+0xb0>
   803b4:	00802c40 	call	802c4 <KEY3_Pressed>
   803b8:	00800434 	movhi	r2,16
   803bc:	10842304 	addi	r2,r2,4236
   803c0:	10000035 	stwio	zero,0(r2)
   803c4:	008df400 	call	8df40 <OSIntExit>
   803c8:	e037883a 	mov	sp,fp
   803cc:	dfc00117 	ldw	ra,4(sp)
   803d0:	df000017 	ldw	fp,0(sp)
   803d4:	dec00204 	addi	sp,sp,8
   803d8:	f800283a 	ret

000803dc <init_button_irq>:
   803dc:	defffe04 	addi	sp,sp,-8
   803e0:	dfc00115 	stw	ra,4(sp)
   803e4:	df000015 	stw	fp,0(sp)
   803e8:	d839883a 	mov	fp,sp
   803ec:	00800434 	movhi	r2,16
   803f0:	10842204 	addi	r2,r2,4232
   803f4:	00c003c4 	movi	r3,15
   803f8:	10c00035 	stwio	r3,0(r2)
   803fc:	00800434 	movhi	r2,16
   80400:	10842304 	addi	r2,r2,4236
   80404:	10000035 	stwio	zero,0(r2)
   80408:	01000084 	movi	r4,2
   8040c:	000b883a 	mov	r5,zero
   80410:	01800234 	movhi	r6,8
   80414:	3180c204 	addi	r6,r6,776
   80418:	008c8400 	call	8c840 <alt_irq_register>
   8041c:	e037883a 	mov	sp,fp
   80420:	dfc00117 	ldw	ra,4(sp)
   80424:	df000017 	ldw	fp,0(sp)
   80428:	dec00204 	addi	sp,sp,8
   8042c:	f800283a 	ret

00080430 <alt_ucosii_check_return_code>:
   80430:	defffd04 	addi	sp,sp,-12
   80434:	dfc00215 	stw	ra,8(sp)
   80438:	df000115 	stw	fp,4(sp)
   8043c:	df000104 	addi	fp,sp,4
   80440:	e13fff05 	stb	r4,-4(fp)
   80444:	e0bfff03 	ldbu	r2,-4(fp)
   80448:	1005003a 	cmpeq	r2,r2,zero
   8044c:	1000041e 	bne	r2,zero,80460 <alt_ucosii_check_return_code+0x30>
   80450:	008e0400 	call	8e040 <OSSchedLock>
   80454:	e13fff03 	ldbu	r4,-4(fp)
   80458:	00804740 	call	80474 <alt_ucosii_simple_error_handler>
   8045c:	008e0cc0 	call	8e0cc <OSSchedUnlock>
   80460:	e037883a 	mov	sp,fp
   80464:	dfc00117 	ldw	ra,4(sp)
   80468:	df000017 	ldw	fp,0(sp)
   8046c:	dec00204 	addi	sp,sp,8
   80470:	f800283a 	ret

00080474 <alt_ucosii_simple_error_handler>:
   80474:	defffc04 	addi	sp,sp,-16
   80478:	dfc00315 	stw	ra,12(sp)
   8047c:	df000215 	stw	fp,8(sp)
   80480:	df000204 	addi	fp,sp,8
   80484:	e13ffe05 	stb	r4,-8(fp)
   80488:	010002b4 	movhi	r4,10
   8048c:	2124c704 	addi	r4,r4,-27876
   80490:	00829e00 	call	829e0 <puts>
   80494:	e0bffe03 	ldbu	r2,-8(fp)
   80498:	e0bfff15 	stw	r2,-4(fp)
   8049c:	e0ffff17 	ldw	r3,-4(fp)
   804a0:	18801968 	cmpgeui	r2,r3,101
   804a4:	10011e1e 	bne	r2,zero,80920 <alt_ucosii_simple_error_handler+0x4ac>
   804a8:	e13fff17 	ldw	r4,-4(fp)
   804ac:	e13fff17 	ldw	r4,-4(fp)
   804b0:	2105883a 	add	r2,r4,r4
   804b4:	1087883a 	add	r3,r2,r2
   804b8:	00800234 	movhi	r2,8
   804bc:	10813304 	addi	r2,r2,1228
   804c0:	1885883a 	add	r2,r3,r2
   804c4:	10800017 	ldw	r2,0(r2)
   804c8:	1000683a 	jmp	r2
   804cc:	00080920 	cmpeqi	zero,zero,8228
   804d0:	00080740 	call	8074 <OSCtxSw_SWITCH_PC+0x8034>
   804d4:	000807e0 	cmpeqi	zero,zero,8223
   804d8:	00080790 	cmplti	zero,zero,8222
   804dc:	00080768 	cmpgeui	zero,zero,8221
   804e0:	00080920 	cmpeqi	zero,zero,8228
   804e4:	00080920 	cmpeqi	zero,zero,8228
   804e8:	00080920 	cmpeqi	zero,zero,8228
   804ec:	00080920 	cmpeqi	zero,zero,8228
   804f0:	00080920 	cmpeqi	zero,zero,8228
   804f4:	000807b8 	rdprs	zero,zero,8222
   804f8:	00080920 	cmpeqi	zero,zero,8228
   804fc:	00080920 	cmpeqi	zero,zero,8228
   80500:	00080920 	cmpeqi	zero,zero,8228
   80504:	00080920 	cmpeqi	zero,zero,8228
   80508:	00080920 	cmpeqi	zero,zero,8228
   8050c:	00080920 	cmpeqi	zero,zero,8228
   80510:	00080920 	cmpeqi	zero,zero,8228
   80514:	00080920 	cmpeqi	zero,zero,8228
   80518:	00080920 	cmpeqi	zero,zero,8228
   8051c:	00080718 	cmpnei	zero,zero,8220
   80520:	00080920 	cmpeqi	zero,zero,8228
   80524:	00080920 	cmpeqi	zero,zero,8228
   80528:	00080920 	cmpeqi	zero,zero,8228
   8052c:	00080920 	cmpeqi	zero,zero,8228
   80530:	00080920 	cmpeqi	zero,zero,8228
   80534:	00080920 	cmpeqi	zero,zero,8228
   80538:	00080920 	cmpeqi	zero,zero,8228
   8053c:	00080920 	cmpeqi	zero,zero,8228
   80540:	00080920 	cmpeqi	zero,zero,8228
   80544:	00080880 	call	8088 <OSCtxSw_SWITCH_PC+0x8048>
   80548:	00080920 	cmpeqi	zero,zero,8228
   8054c:	00080920 	cmpeqi	zero,zero,8228
   80550:	00080920 	cmpeqi	zero,zero,8228
   80554:	00080920 	cmpeqi	zero,zero,8228
   80558:	00080920 	cmpeqi	zero,zero,8228
   8055c:	00080920 	cmpeqi	zero,zero,8228
   80560:	00080920 	cmpeqi	zero,zero,8228
   80564:	00080920 	cmpeqi	zero,zero,8228
   80568:	00080920 	cmpeqi	zero,zero,8228
   8056c:	00080660 	cmpeqi	zero,zero,8217
   80570:	00080920 	cmpeqi	zero,zero,8228
   80574:	00080688 	cmpgei	zero,zero,8218
   80578:	00080920 	cmpeqi	zero,zero,8228
   8057c:	00080920 	cmpeqi	zero,zero,8228
   80580:	00080920 	cmpeqi	zero,zero,8228
   80584:	00080920 	cmpeqi	zero,zero,8228
   80588:	00080920 	cmpeqi	zero,zero,8228
   8058c:	00080920 	cmpeqi	zero,zero,8228
   80590:	00080920 	cmpeqi	zero,zero,8228
   80594:	00080920 	cmpeqi	zero,zero,8228
   80598:	00080920 	cmpeqi	zero,zero,8228
   8059c:	00080920 	cmpeqi	zero,zero,8228
   805a0:	00080920 	cmpeqi	zero,zero,8228
   805a4:	00080920 	cmpeqi	zero,zero,8228
   805a8:	00080920 	cmpeqi	zero,zero,8228
   805ac:	00080920 	cmpeqi	zero,zero,8228
   805b0:	00080920 	cmpeqi	zero,zero,8228
   805b4:	00080920 	cmpeqi	zero,zero,8228
   805b8:	00080920 	cmpeqi	zero,zero,8228
   805bc:	00080920 	cmpeqi	zero,zero,8228
   805c0:	00080830 	cmpltui	zero,zero,8224
   805c4:	00080808 	cmpgei	zero,zero,8224
   805c8:	00080920 	cmpeqi	zero,zero,8228
   805cc:	00080858 	cmpnei	zero,zero,8225
   805d0:	00080920 	cmpeqi	zero,zero,8228
   805d4:	000806d0 	cmplti	zero,zero,8219
   805d8:	00080920 	cmpeqi	zero,zero,8228
   805dc:	00080920 	cmpeqi	zero,zero,8228
   805e0:	00080920 	cmpeqi	zero,zero,8228
   805e4:	00080920 	cmpeqi	zero,zero,8228
   805e8:	00080920 	cmpeqi	zero,zero,8228
   805ec:	00080920 	cmpeqi	zero,zero,8228
   805f0:	00080920 	cmpeqi	zero,zero,8228
   805f4:	00080920 	cmpeqi	zero,zero,8228
   805f8:	00080920 	cmpeqi	zero,zero,8228
   805fc:	00080920 	cmpeqi	zero,zero,8228
   80600:	00080920 	cmpeqi	zero,zero,8228
   80604:	00080920 	cmpeqi	zero,zero,8228
   80608:	00080920 	cmpeqi	zero,zero,8228
   8060c:	00080920 	cmpeqi	zero,zero,8228
   80610:	00080920 	cmpeqi	zero,zero,8228
   80614:	00080920 	cmpeqi	zero,zero,8228
   80618:	00080920 	cmpeqi	zero,zero,8228
   8061c:	00080920 	cmpeqi	zero,zero,8228
   80620:	00080920 	cmpeqi	zero,zero,8228
   80624:	00080920 	cmpeqi	zero,zero,8228
   80628:	00080920 	cmpeqi	zero,zero,8228
   8062c:	00080920 	cmpeqi	zero,zero,8228
   80630:	00080920 	cmpeqi	zero,zero,8228
   80634:	00080920 	cmpeqi	zero,zero,8228
   80638:	00080920 	cmpeqi	zero,zero,8228
   8063c:	00080920 	cmpeqi	zero,zero,8228
   80640:	000808d0 	cmplti	zero,zero,8227
   80644:	00080920 	cmpeqi	zero,zero,8228
   80648:	00080920 	cmpeqi	zero,zero,8228
   8064c:	000808f8 	rdprs	zero,zero,8227
   80650:	00080920 	cmpeqi	zero,zero,8228
   80654:	00080920 	cmpeqi	zero,zero,8228
   80658:	00080920 	cmpeqi	zero,zero,8228
   8065c:	000808a8 	cmpgeui	zero,zero,8226
   80660:	008002b4 	movhi	r2,10
   80664:	10aee604 	addi	r2,r2,-17512
   80668:	10800017 	ldw	r2,0(r2)
   8066c:	11c00317 	ldw	r7,12(r2)
   80670:	010002b4 	movhi	r4,10
   80674:	2124ce04 	addi	r4,r4,-27848
   80678:	01400044 	movi	r5,1
   8067c:	01800ec4 	movi	r6,59
   80680:	00828640 	call	82864 <fwrite>
   80684:	0000af06 	br	80944 <alt_ucosii_simple_error_handler+0x4d0>
   80688:	008002b4 	movhi	r2,10
   8068c:	10aee604 	addi	r2,r2,-17512
   80690:	10800017 	ldw	r2,0(r2)
   80694:	11c00317 	ldw	r7,12(r2)
   80698:	010002b4 	movhi	r4,10
   8069c:	2124dd04 	addi	r4,r4,-27788
   806a0:	01400044 	movi	r5,1
   806a4:	01800ec4 	movi	r6,59
   806a8:	00828640 	call	82864 <fwrite>
   806ac:	008002b4 	movhi	r2,10
   806b0:	10aee604 	addi	r2,r2,-17512
   806b4:	10800017 	ldw	r2,0(r2)
   806b8:	11000317 	ldw	r4,12(r2)
   806bc:	014002b4 	movhi	r5,10
   806c0:	2964ec04 	addi	r5,r5,-27728
   806c4:	01800784 	movi	r6,30
   806c8:	00827580 	call	82758 <fprintf>
   806cc:	00009d06 	br	80944 <alt_ucosii_simple_error_handler+0x4d0>
   806d0:	008002b4 	movhi	r2,10
   806d4:	10aee604 	addi	r2,r2,-17512
   806d8:	10800017 	ldw	r2,0(r2)
   806dc:	11c00317 	ldw	r7,12(r2)
   806e0:	010002b4 	movhi	r4,10
   806e4:	2124f904 	addi	r4,r4,-27676
   806e8:	01400044 	movi	r5,1
   806ec:	01800a04 	movi	r6,40
   806f0:	00828640 	call	82864 <fwrite>
   806f4:	008002b4 	movhi	r2,10
   806f8:	10aee604 	addi	r2,r2,-17512
   806fc:	10800017 	ldw	r2,0(r2)
   80700:	11000317 	ldw	r4,12(r2)
   80704:	014002b4 	movhi	r5,10
   80708:	29650404 	addi	r5,r5,-27632
   8070c:	01800504 	movi	r6,20
   80710:	00827580 	call	82758 <fprintf>
   80714:	00008b06 	br	80944 <alt_ucosii_simple_error_handler+0x4d0>
   80718:	008002b4 	movhi	r2,10
   8071c:	10aee604 	addi	r2,r2,-17512
   80720:	10800017 	ldw	r2,0(r2)
   80724:	11c00317 	ldw	r7,12(r2)
   80728:	010002b4 	movhi	r4,10
   8072c:	21250e04 	addi	r4,r4,-27592
   80730:	01400044 	movi	r5,1
   80734:	01800f84 	movi	r6,62
   80738:	00828640 	call	82864 <fwrite>
   8073c:	00008106 	br	80944 <alt_ucosii_simple_error_handler+0x4d0>
   80740:	008002b4 	movhi	r2,10
   80744:	10aee604 	addi	r2,r2,-17512
   80748:	10800017 	ldw	r2,0(r2)
   8074c:	11c00317 	ldw	r7,12(r2)
   80750:	010002b4 	movhi	r4,10
   80754:	21251e04 	addi	r4,r4,-27528
   80758:	01400044 	movi	r5,1
   8075c:	01801244 	movi	r6,73
   80760:	00828640 	call	82864 <fwrite>
   80764:	00007706 	br	80944 <alt_ucosii_simple_error_handler+0x4d0>
   80768:	008002b4 	movhi	r2,10
   8076c:	10aee604 	addi	r2,r2,-17512
   80770:	10800017 	ldw	r2,0(r2)
   80774:	11c00317 	ldw	r7,12(r2)
   80778:	010002b4 	movhi	r4,10
   8077c:	21253104 	addi	r4,r4,-27452
   80780:	01400044 	movi	r5,1
   80784:	01800d84 	movi	r6,54
   80788:	00828640 	call	82864 <fwrite>
   8078c:	00006d06 	br	80944 <alt_ucosii_simple_error_handler+0x4d0>
   80790:	008002b4 	movhi	r2,10
   80794:	10aee604 	addi	r2,r2,-17512
   80798:	10800017 	ldw	r2,0(r2)
   8079c:	11c00317 	ldw	r7,12(r2)
   807a0:	010002b4 	movhi	r4,10
   807a4:	21253f04 	addi	r4,r4,-27396
   807a8:	01400044 	movi	r5,1
   807ac:	01800a44 	movi	r6,41
   807b0:	00828640 	call	82864 <fwrite>
   807b4:	00006306 	br	80944 <alt_ucosii_simple_error_handler+0x4d0>
   807b8:	008002b4 	movhi	r2,10
   807bc:	10aee604 	addi	r2,r2,-17512
   807c0:	10800017 	ldw	r2,0(r2)
   807c4:	11c00317 	ldw	r7,12(r2)
   807c8:	010002b4 	movhi	r4,10
   807cc:	21254a04 	addi	r4,r4,-27352
   807d0:	01400044 	movi	r5,1
   807d4:	01800a04 	movi	r6,40
   807d8:	00828640 	call	82864 <fwrite>
   807dc:	00005906 	br	80944 <alt_ucosii_simple_error_handler+0x4d0>
   807e0:	008002b4 	movhi	r2,10
   807e4:	10aee604 	addi	r2,r2,-17512
   807e8:	10800017 	ldw	r2,0(r2)
   807ec:	11c00317 	ldw	r7,12(r2)
   807f0:	010002b4 	movhi	r4,10
   807f4:	21255504 	addi	r4,r4,-27308
   807f8:	01400044 	movi	r5,1
   807fc:	01800bc4 	movi	r6,47
   80800:	00828640 	call	82864 <fwrite>
   80804:	00004f06 	br	80944 <alt_ucosii_simple_error_handler+0x4d0>
   80808:	008002b4 	movhi	r2,10
   8080c:	10aee604 	addi	r2,r2,-17512
   80810:	10800017 	ldw	r2,0(r2)
   80814:	11c00317 	ldw	r7,12(r2)
   80818:	010002b4 	movhi	r4,10
   8081c:	21256104 	addi	r4,r4,-27260
   80820:	01400044 	movi	r5,1
   80824:	01800884 	movi	r6,34
   80828:	00828640 	call	82864 <fwrite>
   8082c:	00004506 	br	80944 <alt_ucosii_simple_error_handler+0x4d0>
   80830:	008002b4 	movhi	r2,10
   80834:	10aee604 	addi	r2,r2,-17512
   80838:	10800017 	ldw	r2,0(r2)
   8083c:	11c00317 	ldw	r7,12(r2)
   80840:	010002b4 	movhi	r4,10
   80844:	21256a04 	addi	r4,r4,-27224
   80848:	01400044 	movi	r5,1
   8084c:	01800bc4 	movi	r6,47
   80850:	00828640 	call	82864 <fwrite>
   80854:	00003b06 	br	80944 <alt_ucosii_simple_error_handler+0x4d0>
   80858:	008002b4 	movhi	r2,10
   8085c:	10aee604 	addi	r2,r2,-17512
   80860:	10800017 	ldw	r2,0(r2)
   80864:	11c00317 	ldw	r7,12(r2)
   80868:	010002b4 	movhi	r4,10
   8086c:	21257604 	addi	r4,r4,-27176
   80870:	01400044 	movi	r5,1
   80874:	018009c4 	movi	r6,39
   80878:	00828640 	call	82864 <fwrite>
   8087c:	00003106 	br	80944 <alt_ucosii_simple_error_handler+0x4d0>
   80880:	008002b4 	movhi	r2,10
   80884:	10aee604 	addi	r2,r2,-17512
   80888:	10800017 	ldw	r2,0(r2)
   8088c:	11c00317 	ldw	r7,12(r2)
   80890:	010002b4 	movhi	r4,10
   80894:	21258004 	addi	r4,r4,-27136
   80898:	01400044 	movi	r5,1
   8089c:	01800a84 	movi	r6,42
   808a0:	00828640 	call	82864 <fwrite>
   808a4:	00002706 	br	80944 <alt_ucosii_simple_error_handler+0x4d0>
   808a8:	008002b4 	movhi	r2,10
   808ac:	10aee604 	addi	r2,r2,-17512
   808b0:	10800017 	ldw	r2,0(r2)
   808b4:	11c00317 	ldw	r7,12(r2)
   808b8:	010002b4 	movhi	r4,10
   808bc:	21258b04 	addi	r4,r4,-27092
   808c0:	01400044 	movi	r5,1
   808c4:	01800e04 	movi	r6,56
   808c8:	00828640 	call	82864 <fwrite>
   808cc:	00001d06 	br	80944 <alt_ucosii_simple_error_handler+0x4d0>
   808d0:	008002b4 	movhi	r2,10
   808d4:	10aee604 	addi	r2,r2,-17512
   808d8:	10800017 	ldw	r2,0(r2)
   808dc:	11c00317 	ldw	r7,12(r2)
   808e0:	010002b4 	movhi	r4,10
   808e4:	21259a04 	addi	r4,r4,-27032
   808e8:	01400044 	movi	r5,1
   808ec:	018011c4 	movi	r6,71
   808f0:	00828640 	call	82864 <fwrite>
   808f4:	00001306 	br	80944 <alt_ucosii_simple_error_handler+0x4d0>
   808f8:	008002b4 	movhi	r2,10
   808fc:	10aee604 	addi	r2,r2,-17512
   80900:	10800017 	ldw	r2,0(r2)
   80904:	11c00317 	ldw	r7,12(r2)
   80908:	010002b4 	movhi	r4,10
   8090c:	2125ac04 	addi	r4,r4,-26960
   80910:	01400044 	movi	r5,1
   80914:	018005c4 	movi	r6,23
   80918:	00828640 	call	82864 <fwrite>
   8091c:	00000906 	br	80944 <alt_ucosii_simple_error_handler+0x4d0>
   80920:	008002b4 	movhi	r2,10
   80924:	10aee604 	addi	r2,r2,-17512
   80928:	10800017 	ldw	r2,0(r2)
   8092c:	11c00317 	ldw	r7,12(r2)
   80930:	010002b4 	movhi	r4,10
   80934:	2125b204 	addi	r4,r4,-26936
   80938:	01400044 	movi	r5,1
   8093c:	01800384 	movi	r6,14
   80940:	00828640 	call	82864 <fwrite>
   80944:	e037883a 	mov	sp,fp
   80948:	dfc00117 	ldw	ra,4(sp)
   8094c:	df000017 	ldw	fp,0(sp)
   80950:	dec00204 	addi	sp,sp,8
   80954:	f800283a 	ret

00080958 <initialize_task>:
   80958:	defffc04 	addi	sp,sp,-16
   8095c:	dfc00315 	stw	ra,12(sp)
   80960:	df000215 	stw	fp,8(sp)
   80964:	df000204 	addi	fp,sp,8
   80968:	e13fff15 	stw	r4,-4(fp)
   8096c:	e03ffe05 	stb	zero,-8(fp)
   80970:	008e2200 	call	8e220 <OSStatInit>
   80974:	0080af80 	call	80af8 <init_OS_data_structs>
   80978:	0080c600 	call	80c60 <init_create_tasks>
   8097c:	01003fc4 	movi	r4,255
   80980:	0094e140 	call	94e14 <OSTaskDel>
   80984:	e0bffe05 	stb	r2,-8(fp)
   80988:	e13ffe03 	ldbu	r4,-8(fp)
   8098c:	00804300 	call	80430 <alt_ucosii_check_return_code>
   80990:	003fff06 	br	80990 <initialize_task+0x38>

00080994 <main>:
   80994:	defff704 	addi	sp,sp,-36
   80998:	dfc00815 	stw	ra,32(sp)
   8099c:	df000715 	stw	fp,28(sp)
   809a0:	df000704 	addi	fp,sp,28
   809a4:	e03fff05 	stb	zero,-4(fp)
   809a8:	010002b4 	movhi	r4,10
   809ac:	2125b604 	addi	r4,r4,-26920
   809b0:	00829e00 	call	829e0 <puts>
   809b4:	00803dc0 	call	803dc <init_button_irq>
   809b8:	010002b4 	movhi	r4,10
   809bc:	2125ba04 	addi	r4,r4,-26904
   809c0:	00829e00 	call	829e0 <puts>
   809c4:	00c00434 	movhi	r3,16
   809c8:	18c42a04 	addi	r3,r3,4264
   809cc:	00844474 	movhi	r2,4369
   809d0:	10844444 	addi	r2,r2,4369
   809d4:	18800035 	stwio	r2,0(r3)
   809d8:	010002b4 	movhi	r4,10
   809dc:	2125bf04 	addi	r4,r4,-26884
   809e0:	00829e00 	call	829e0 <puts>
   809e4:	010002b4 	movhi	r4,10
   809e8:	2125c404 	addi	r4,r4,-26864
   809ec:	009767c0 	call	9767c <alt_up_character_lcd_open_dev>
   809f0:	e0bffe15 	stw	r2,-8(fp)
   809f4:	e0bffe17 	ldw	r2,-8(fp)
   809f8:	1004c03a 	cmpne	r2,r2,zero
   809fc:	1000041e 	bne	r2,zero,80a10 <main+0x7c>
   80a00:	010002b4 	movhi	r4,10
   80a04:	2125ca04 	addi	r4,r4,-26840
   80a08:	00829e00 	call	829e0 <puts>
   80a0c:	00000306 	br	80a1c <main+0x88>
   80a10:	010002b4 	movhi	r4,10
   80a14:	2125d104 	addi	r4,r4,-26812
   80a18:	00829e00 	call	829e0 <puts>
   80a1c:	e13ffe17 	ldw	r4,-8(fp)
   80a20:	00976480 	call	97648 <alt_up_character_lcd_init>
   80a24:	e13ffe17 	ldw	r4,-8(fp)
   80a28:	014002b4 	movhi	r5,10
   80a2c:	2965d604 	addi	r5,r5,-26792
   80a30:	00977340 	call	97734 <alt_up_character_lcd_string>
   80a34:	e13ffe17 	ldw	r4,-8(fp)
   80a38:	000b883a 	mov	r5,zero
   80a3c:	01800044 	movi	r6,1
   80a40:	00977f80 	call	977f8 <alt_up_character_lcd_set_cursor_pos>
   80a44:	e13ffe17 	ldw	r4,-8(fp)
   80a48:	014002b4 	movhi	r5,10
   80a4c:	2965db04 	addi	r5,r5,-26772
   80a50:	00977340 	call	97734 <alt_up_character_lcd_string>
   80a54:	010002b4 	movhi	r4,10
   80a58:	2125e004 	addi	r4,r4,-26752
   80a5c:	00829e00 	call	829e0 <puts>
   80a60:	00c00434 	movhi	r3,16
   80a64:	18c40004 	addi	r3,r3,4096
   80a68:	00800044 	movi	r2,1
   80a6c:	18800035 	stwio	r2,0(r3)
   80a70:	010002b4 	movhi	r4,10
   80a74:	2125e804 	addi	r4,r4,-26720
   80a78:	00829e00 	call	829e0 <puts>
   80a7c:	008de700 	call	8de70 <OSInit>
   80a80:	018002f4 	movhi	r6,11
   80a84:	3192f804 	addi	r6,r6,19424
   80a88:	00800104 	movi	r2,4
   80a8c:	d8800015 	stw	r2,0(sp)
   80a90:	008002f4 	movhi	r2,11
   80a94:	108af804 	addi	r2,r2,11232
   80a98:	d8800115 	stw	r2,4(sp)
   80a9c:	00820004 	movi	r2,2048
   80aa0:	d8800215 	stw	r2,8(sp)
   80aa4:	d8000315 	stw	zero,12(sp)
   80aa8:	008000c4 	movi	r2,3
   80aac:	d8800415 	stw	r2,16(sp)
   80ab0:	01000234 	movhi	r4,8
   80ab4:	21025604 	addi	r4,r4,2392
   80ab8:	000b883a 	mov	r5,zero
   80abc:	01c00104 	movi	r7,4
   80ac0:	0094c140 	call	94c14 <OSTaskCreateExt>
   80ac4:	e0bfff05 	stb	r2,-4(fp)
   80ac8:	e13fff03 	ldbu	r4,-4(fp)
   80acc:	00804300 	call	80430 <alt_ucosii_check_return_code>
   80ad0:	010002b4 	movhi	r4,10
   80ad4:	2125f004 	addi	r4,r4,-26688
   80ad8:	00829e00 	call	829e0 <puts>
   80adc:	008e1b00 	call	8e1b0 <OSStart>
   80ae0:	0005883a 	mov	r2,zero
   80ae4:	e037883a 	mov	sp,fp
   80ae8:	dfc00117 	ldw	ra,4(sp)
   80aec:	df000017 	ldw	fp,0(sp)
   80af0:	dec00204 	addi	sp,sp,8
   80af4:	f800283a 	ret

00080af8 <init_OS_data_structs>:
   80af8:	defffb04 	addi	sp,sp,-20
   80afc:	dfc00415 	stw	ra,16(sp)
   80b00:	df000315 	stw	fp,12(sp)
   80b04:	dc000215 	stw	r16,8(sp)
   80b08:	df000204 	addi	fp,sp,8
   80b0c:	010002b4 	movhi	r4,10
   80b10:	2125f504 	addi	r4,r4,-26668
   80b14:	00829e00 	call	829e0 <puts>
   80b18:	e03ffe15 	stw	zero,-8(fp)
   80b1c:	00000d06 	br	80b54 <init_OS_data_structs+0x5c>
   80b20:	e43ffe17 	ldw	r16,-8(fp)
   80b24:	0009883a 	mov	r4,zero
   80b28:	00939c40 	call	939c4 <OSSemCreate>
   80b2c:	1009883a 	mov	r4,r2
   80b30:	00c002b4 	movhi	r3,10
   80b34:	18da8404 	addi	r3,r3,27152
   80b38:	8405883a 	add	r2,r16,r16
   80b3c:	1085883a 	add	r2,r2,r2
   80b40:	10c5883a 	add	r2,r2,r3
   80b44:	11000015 	stw	r4,0(r2)
   80b48:	e0bffe17 	ldw	r2,-8(fp)
   80b4c:	10800044 	addi	r2,r2,1
   80b50:	e0bffe15 	stw	r2,-8(fp)
   80b54:	e0bffe17 	ldw	r2,-8(fp)
   80b58:	10800110 	cmplti	r2,r2,4
   80b5c:	103ff01e 	bne	r2,zero,80b20 <init_OS_data_structs+0x28>
   80b60:	e03ffe15 	stw	zero,-8(fp)
   80b64:	00002106 	br	80bec <init_OS_data_structs+0xf4>
   80b68:	e43ffe17 	ldw	r16,-8(fp)
   80b6c:	0009883a 	mov	r4,zero
   80b70:	00911dc0 	call	911dc <OSMboxCreate>
   80b74:	1009883a 	mov	r4,r2
   80b78:	00c002b4 	movhi	r3,10
   80b7c:	18da8004 	addi	r3,r3,27136
   80b80:	8405883a 	add	r2,r16,r16
   80b84:	1085883a 	add	r2,r2,r2
   80b88:	10c5883a 	add	r2,r2,r3
   80b8c:	11000015 	stw	r4,0(r2)
   80b90:	e43ffe17 	ldw	r16,-8(fp)
   80b94:	0009883a 	mov	r4,zero
   80b98:	00911dc0 	call	911dc <OSMboxCreate>
   80b9c:	1009883a 	mov	r4,r2
   80ba0:	00c002f4 	movhi	r3,11
   80ba4:	18caf404 	addi	r3,r3,11216
   80ba8:	8405883a 	add	r2,r16,r16
   80bac:	1085883a 	add	r2,r2,r2
   80bb0:	10c5883a 	add	r2,r2,r3
   80bb4:	11000015 	stw	r4,0(r2)
   80bb8:	e43ffe17 	ldw	r16,-8(fp)
   80bbc:	0009883a 	mov	r4,zero
   80bc0:	00911dc0 	call	911dc <OSMboxCreate>
   80bc4:	1009883a 	mov	r4,r2
   80bc8:	00c002b4 	movhi	r3,10
   80bcc:	18da7c04 	addi	r3,r3,27120
   80bd0:	8405883a 	add	r2,r16,r16
   80bd4:	1085883a 	add	r2,r2,r2
   80bd8:	10c5883a 	add	r2,r2,r3
   80bdc:	11000015 	stw	r4,0(r2)
   80be0:	e0bffe17 	ldw	r2,-8(fp)
   80be4:	10800044 	addi	r2,r2,1
   80be8:	e0bffe15 	stw	r2,-8(fp)
   80bec:	e0bffe17 	ldw	r2,-8(fp)
   80bf0:	10800110 	cmplti	r2,r2,4
   80bf4:	103fdc1e 	bne	r2,zero,80b68 <init_OS_data_structs+0x70>
   80bf8:	0009883a 	mov	r4,zero
   80bfc:	00911dc0 	call	911dc <OSMboxCreate>
   80c00:	1007883a 	mov	r3,r2
   80c04:	008002b4 	movhi	r2,10
   80c08:	10b5db04 	addi	r2,r2,-10388
   80c0c:	10c00015 	stw	r3,0(r2)
   80c10:	010002b4 	movhi	r4,10
   80c14:	21360d04 	addi	r4,r4,-10188
   80c18:	e1ffff04 	addi	r7,fp,-4
   80c1c:	01400104 	movi	r5,4
   80c20:	0181f404 	movi	r6,2000
   80c24:	0091dc40 	call	91dc4 <OSMemCreate>
   80c28:	1007883a 	mov	r3,r2
   80c2c:	008002b4 	movhi	r2,10
   80c30:	10b5da04 	addi	r2,r2,-10392
   80c34:	10c00015 	stw	r3,0(r2)
   80c38:	e0bfff03 	ldbu	r2,-4(fp)
   80c3c:	11003fcc 	andi	r4,r2,255
   80c40:	00804300 	call	80430 <alt_ucosii_check_return_code>
   80c44:	0005883a 	mov	r2,zero
   80c48:	e037883a 	mov	sp,fp
   80c4c:	dfc00217 	ldw	ra,8(sp)
   80c50:	df000117 	ldw	fp,4(sp)
   80c54:	dc000017 	ldw	r16,0(sp)
   80c58:	dec00304 	addi	sp,sp,12
   80c5c:	f800283a 	ret

00080c60 <init_create_tasks>:
   80c60:	defff804 	addi	sp,sp,-32
   80c64:	dfc00715 	stw	ra,28(sp)
   80c68:	df000615 	stw	fp,24(sp)
   80c6c:	df000604 	addi	fp,sp,24
   80c70:	e03fff05 	stb	zero,-4(fp)
   80c74:	010002b4 	movhi	r4,10
   80c78:	2125fb04 	addi	r4,r4,-26644
   80c7c:	00829e00 	call	829e0 <puts>
   80c80:	018002f4 	movhi	r6,11
   80c84:	319af804 	addi	r6,r6,27616
   80c88:	00800404 	movi	r2,16
   80c8c:	d8800015 	stw	r2,0(sp)
   80c90:	008002f4 	movhi	r2,11
   80c94:	1092f804 	addi	r2,r2,19424
   80c98:	d8800115 	stw	r2,4(sp)
   80c9c:	00820004 	movi	r2,2048
   80ca0:	d8800215 	stw	r2,8(sp)
   80ca4:	d8000315 	stw	zero,12(sp)
   80ca8:	d8000415 	stw	zero,16(sp)
   80cac:	01000234 	movhi	r4,8
   80cb0:	21086d04 	addi	r4,r4,8628
   80cb4:	000b883a 	mov	r5,zero
   80cb8:	01c00404 	movi	r7,16
   80cbc:	0094c140 	call	94c14 <OSTaskCreateExt>
   80cc0:	e0bfff05 	stb	r2,-4(fp)
   80cc4:	e13fff03 	ldbu	r4,-4(fp)
   80cc8:	00804300 	call	80430 <alt_ucosii_check_return_code>
   80ccc:	0005883a 	mov	r2,zero
   80cd0:	e037883a 	mov	sp,fp
   80cd4:	dfc00117 	ldw	ra,4(sp)
   80cd8:	df000017 	ldw	fp,0(sp)
   80cdc:	dec00204 	addi	sp,sp,8
   80ce0:	f800283a 	ret

00080ce4 <sorting>:
// The sorting task
// It has the highest priority
// But it initiates other tasks by posting a message in the corresponding mailboxes
// Then it wait for the result to be computed by monitoring other mailboxes
// In the mean time, it'll suspend itself to free up the processor
void sorting(void* pdata) {
   80ce4:	defff404 	addi	sp,sp,-48
   80ce8:	dfc00b15 	stw	ra,44(sp)
   80cec:	df000a15 	stw	fp,40(sp)
   80cf0:	dc000915 	stw	r16,36(sp)
   80cf4:	df000904 	addi	fp,sp,36
   80cf8:	e13fff15 	stw	r4,-4(fp)
	INT16U *sortedArray, *max_value;
	INT8U return_code = OS_NO_ERR;
   80cfc:	e03ffa05 	stb	zero,-24(fp)
	INT16U * data_array[4];

	while (1) {
		// Delay for 2 secs so that the message from this task will be displayed last
		// If not delay, since it has highest priority, the wait message for PB0 will be displayed first
		OSTimeDlyHMSM(0, 0, 2, 0);
   80d00:	0009883a 	mov	r4,zero
   80d04:	000b883a 	mov	r5,zero
   80d08:	01800084 	movi	r6,2
   80d0c:	000f883a 	mov	r7,zero
   80d10:	00960580 	call	96058 <OSTimeDlyHMSM>

		printf(
   80d14:	010002b4 	movhi	r4,10
   80d18:	21260204 	addi	r4,r4,-26616
   80d1c:	0140fa04 	movi	r5,1000
   80d20:	00828a40 	call	828a4 <printf>
				"Waiting for PB0 to determine min/max 2 arrays each with %d entries\n",
				ARRAY_SIZE);
		OSSemPend(PBSemaphore[0], 0, &return_code);
   80d24:	008002b4 	movhi	r2,10
   80d28:	109a8404 	addi	r2,r2,27152
   80d2c:	11000017 	ldw	r4,0(r2)
   80d30:	e1bffa04 	addi	r6,fp,-24
   80d34:	000b883a 	mov	r5,zero
   80d38:	0093d780 	call	93d78 <OSSemPend>
		alt_ucosii_check_return_code(return_code);
   80d3c:	e0bffa03 	ldbu	r2,-24(fp)
   80d40:	11003fcc 	andi	r4,r2,255
   80d44:	00804300 	call	80430 <alt_ucosii_check_return_code>

		printf("Sorting started\n");
   80d48:	010002b4 	movhi	r4,10
   80d4c:	21261304 	addi	r4,r4,-26548
   80d50:	00829e00 	call	829e0 <puts>

		// Get the memory block from memory partition, and pass that memory block to other task through mailboxes
		// to start data generation
		for (i = 0; i < 4; i++) {
   80d54:	e03ff715 	stw	zero,-36(fp)
   80d58:	00002406 	br	80dec <sorting+0x108>
			data_array[i] = OSMemGet(MemoryPartition, &return_code);
   80d5c:	e43ff717 	ldw	r16,-36(fp)
   80d60:	d126f517 	ldw	r4,-25644(gp)
   80d64:	e17ffa04 	addi	r5,fp,-24
   80d68:	0091fe00 	call	91fe0 <OSMemGet>
   80d6c:	1007883a 	mov	r3,r2
   80d70:	8405883a 	add	r2,r16,r16
   80d74:	1085883a 	add	r2,r2,r2
   80d78:	e13ff704 	addi	r4,fp,-36
   80d7c:	1105883a 	add	r2,r2,r4
   80d80:	10800404 	addi	r2,r2,16
   80d84:	10c00015 	stw	r3,0(r2)
			alt_ucosii_check_return_code(return_code);
   80d88:	e0bffa03 	ldbu	r2,-24(fp)
   80d8c:	11003fcc 	andi	r4,r2,255
   80d90:	00804300 	call	80430 <alt_ucosii_check_return_code>

			return_code = OSMboxPost(MboxGenArrayStart[i],
   80d94:	e0bff717 	ldw	r2,-36(fp)
   80d98:	00c002b4 	movhi	r3,10
   80d9c:	18da7c04 	addi	r3,r3,27120
   80da0:	1085883a 	add	r2,r2,r2
   80da4:	1085883a 	add	r2,r2,r2
   80da8:	10c5883a 	add	r2,r2,r3
   80dac:	11000017 	ldw	r4,0(r2)
   80db0:	e0bff717 	ldw	r2,-36(fp)
   80db4:	1085883a 	add	r2,r2,r2
   80db8:	1085883a 	add	r2,r2,r2
   80dbc:	e0fff704 	addi	r3,fp,-36
   80dc0:	10c5883a 	add	r2,r2,r3
   80dc4:	10800404 	addi	r2,r2,16
   80dc8:	11400017 	ldw	r5,0(r2)
   80dcc:	00919d40 	call	919d4 <OSMboxPost>
   80dd0:	e0bffa05 	stb	r2,-24(fp)
					(void *) (data_array[i]));
			alt_ucosii_check_return_code(return_code);
   80dd4:	e0bffa03 	ldbu	r2,-24(fp)
   80dd8:	11003fcc 	andi	r4,r2,255
   80ddc:	00804300 	call	80430 <alt_ucosii_check_return_code>

		printf("Sorting started\n");

		// Get the memory block from memory partition, and pass that memory block to other task through mailboxes
		// to start data generation
		for (i = 0; i < 4; i++) {
   80de0:	e0bff717 	ldw	r2,-36(fp)
   80de4:	10800044 	addi	r2,r2,1
   80de8:	e0bff715 	stw	r2,-36(fp)
   80dec:	e0bff717 	ldw	r2,-36(fp)
   80df0:	10800110 	cmplti	r2,r2,4
   80df4:	103fd91e 	bne	r2,zero,80d5c <sorting+0x78>
					(void *) (data_array[i]));
			alt_ucosii_check_return_code(return_code);
		}


		printf("-waiting for find_min_max...\n");
   80df8:	010002b4 	movhi	r4,10
   80dfc:	21261704 	addi	r4,r4,-26532
   80e00:	00829e00 	call	829e0 <puts>
		PERF_RESET(performance_name);
   80e04:	d0a00017 	ldw	r2,-32768(gp)
   80e08:	1007883a 	mov	r3,r2
   80e0c:	00800044 	movi	r2,1
   80e10:	18800035 	stwio	r2,0(r3)
		PERF_START_MEASURING(performance_name);
   80e14:	d0a00017 	ldw	r2,-32768(gp)
   80e18:	10800104 	addi	r2,r2,4
   80e1c:	10000035 	stwio	zero,0(r2)
		PERF_BEGIN(performance_name,0);
   80e20:	d0a00017 	ldw	r2,-32768(gp)
   80e24:	10800104 	addi	r2,r2,4
   80e28:	10000035 	stwio	zero,0(r2)

		// Now wait for sorted array
		sortedArray = (INT16U *) OSMboxPend(MboxMergeSortDone, 0, &return_code);
   80e2c:	d126f617 	ldw	r4,-25640(gp)
   80e30:	e1bffa04 	addi	r6,fp,-24
   80e34:	000b883a 	mov	r5,zero
   80e38:	00915900 	call	91590 <OSMboxPend>
   80e3c:	e0bff915 	stw	r2,-28(fp)
		alt_ucosii_check_return_code(return_code);
   80e40:	e0bffa03 	ldbu	r2,-24(fp)
   80e44:	11003fcc 	andi	r4,r2,255
   80e48:	00804300 	call	80430 <alt_ucosii_check_return_code>

		PERF_END(performance_name,0);
   80e4c:	d0a00017 	ldw	r2,-32768(gp)
   80e50:	10000035 	stwio	zero,0(r2)
		PERF_STOP_MEASURING(performance_name);
   80e54:	d0a00017 	ldw	r2,-32768(gp)
   80e58:	10000035 	stwio	zero,0(r2)


		printf("We will now print the final sorted Array:\n");
   80e5c:	010002b4 	movhi	r4,10
   80e60:	21261f04 	addi	r4,r4,-26500
   80e64:	00829e00 	call	829e0 <puts>



		for(i=0;i<4000;i++){
   80e68:	e03ff715 	stw	zero,-36(fp)
   80e6c:	00001406 	br	80ec0 <sorting+0x1dc>
			printf("%d, ",sortedArray[i]);
   80e70:	e0bff717 	ldw	r2,-36(fp)
   80e74:	1085883a 	add	r2,r2,r2
   80e78:	1007883a 	mov	r3,r2
   80e7c:	e0bff917 	ldw	r2,-28(fp)
   80e80:	1885883a 	add	r2,r3,r2
   80e84:	1080000b 	ldhu	r2,0(r2)
   80e88:	117fffcc 	andi	r5,r2,65535
   80e8c:	010002b4 	movhi	r4,10
   80e90:	21262a04 	addi	r4,r4,-26456
   80e94:	00828a40 	call	828a4 <printf>

			if((i%500)==0){
   80e98:	e13ff717 	ldw	r4,-36(fp)
   80e9c:	01407d04 	movi	r5,500
   80ea0:	00826b00 	call	826b0 <__modsi3>
   80ea4:	1004c03a 	cmpne	r2,r2,zero
   80ea8:	1000021e 	bne	r2,zero,80eb4 <sorting+0x1d0>
				OSTimeDly(2000);
   80eac:	0101f404 	movi	r4,2000
   80eb0:	0095f0c0 	call	95f0c <OSTimeDly>

		printf("We will now print the final sorted Array:\n");



		for(i=0;i<4000;i++){
   80eb4:	e0bff717 	ldw	r2,-36(fp)
   80eb8:	10800044 	addi	r2,r2,1
   80ebc:	e0bff715 	stw	r2,-36(fp)
   80ec0:	e0bff717 	ldw	r2,-36(fp)
   80ec4:	1083e810 	cmplti	r2,r2,4000
   80ec8:	103fe91e 	bne	r2,zero,80e70 <sorting+0x18c>
				OSTimeDly(2000);
			}

		}

		printf("\nFinished printing sorted Array!\n");
   80ecc:	010002b4 	movhi	r4,10
   80ed0:	21262c04 	addi	r4,r4,-26448
   80ed4:	00829e00 	call	829e0 <puts>
		// Stop the performance counter


		//printf("Done: Min: %d, Max: %d\n", *min_value, *max_value);

		printf("Total PC: %llu\n", perf_get_section_time(performance_name, 0));
   80ed8:	d1200017 	ldw	r4,-32768(gp)
   80edc:	000b883a 	mov	r5,zero
   80ee0:	009730c0 	call	9730c <perf_get_section_time>
   80ee4:	100d883a 	mov	r6,r2
   80ee8:	180f883a 	mov	r7,r3
   80eec:	010002b4 	movhi	r4,10
   80ef0:	21263504 	addi	r4,r4,-26412
   80ef4:	300b883a 	mov	r5,r6
   80ef8:	380d883a 	mov	r6,r7
   80efc:	00828a40 	call	828a4 <printf>
		printf("Sort  PC: %llu\n", perf_get_section_time(performance_name, 1));
   80f00:	d1200017 	ldw	r4,-32768(gp)
   80f04:	01400044 	movi	r5,1
   80f08:	009730c0 	call	9730c <perf_get_section_time>
   80f0c:	100d883a 	mov	r6,r2
   80f10:	180f883a 	mov	r7,r3
   80f14:	010002b4 	movhi	r4,10
   80f18:	21263904 	addi	r4,r4,-26396
   80f1c:	300b883a 	mov	r5,r6
   80f20:	380d883a 	mov	r6,r7
   80f24:	00828a40 	call	828a4 <printf>
		printf("Merge PC: %llu\n", perf_get_section_time(performance_name, 2));
   80f28:	d1200017 	ldw	r4,-32768(gp)
   80f2c:	01400084 	movi	r5,2
   80f30:	009730c0 	call	9730c <perf_get_section_time>
   80f34:	100d883a 	mov	r6,r2
   80f38:	180f883a 	mov	r7,r3
   80f3c:	010002b4 	movhi	r4,10
   80f40:	21263d04 	addi	r4,r4,-26380
   80f44:	300b883a 	mov	r5,r6
   80f48:	380d883a 	mov	r6,r7
   80f4c:	00828a40 	call	828a4 <printf>

		for (i = 0; i < 4; i++) {
   80f50:	e03ff715 	stw	zero,-36(fp)
   80f54:	00001006 	br	80f98 <sorting+0x2b4>
			return_code = OSMemPut(MemoryPartition, (void *) data_array[i]);
   80f58:	d126f517 	ldw	r4,-25644(gp)
   80f5c:	e0bff717 	ldw	r2,-36(fp)
   80f60:	1085883a 	add	r2,r2,r2
   80f64:	1085883a 	add	r2,r2,r2
   80f68:	e0fff704 	addi	r3,fp,-36
   80f6c:	10c5883a 	add	r2,r2,r3
   80f70:	10800404 	addi	r2,r2,16
   80f74:	11400017 	ldw	r5,0(r2)
   80f78:	00923100 	call	92310 <OSMemPut>
   80f7c:	e0bffa05 	stb	r2,-24(fp)
			alt_ucosii_check_return_code(return_code);
   80f80:	e0bffa03 	ldbu	r2,-24(fp)
   80f84:	11003fcc 	andi	r4,r2,255
   80f88:	00804300 	call	80430 <alt_ucosii_check_return_code>

		printf("Total PC: %llu\n", perf_get_section_time(performance_name, 0));
		printf("Sort  PC: %llu\n", perf_get_section_time(performance_name, 1));
		printf("Merge PC: %llu\n", perf_get_section_time(performance_name, 2));

		for (i = 0; i < 4; i++) {
   80f8c:	e0bff717 	ldw	r2,-36(fp)
   80f90:	10800044 	addi	r2,r2,1
   80f94:	e0bff715 	stw	r2,-36(fp)
   80f98:	e0bff717 	ldw	r2,-36(fp)
   80f9c:	10800110 	cmplti	r2,r2,4
   80fa0:	103fed1e 	bne	r2,zero,80f58 <sorting+0x274>
			return_code = OSMemPut(MemoryPartition, (void *) data_array[i]);
			alt_ucosii_check_return_code(return_code);
		}
	}
   80fa4:	003f5606 	br	80d00 <sorting+0x1c>

00080fa8 <gen_array_0>:
}

// gen_array_0 task
// It randomly generates numbers in the range of 0-65535 (16 bits)
// And stores them in the data array obtained from the mailbox
void gen_array_0(void* pdata) {
   80fa8:	defff604 	addi	sp,sp,-40
   80fac:	dfc00915 	stw	ra,36(sp)
   80fb0:	df000815 	stw	fp,32(sp)
   80fb4:	df000804 	addi	fp,sp,32
   80fb8:	e13ffd15 	stw	r4,-12(fp)
	INT16U * data_array;
	INT8U return_code = OS_NO_ERR;
   80fbc:	e03ffc05 	stb	zero,-16(fp)
	int i;
	INT16U min_value, max_value;
	int switches;

	while (1) {
		printf("gen_array_0 wait for start\n");
   80fc0:	010002b4 	movhi	r4,10
   80fc4:	21264104 	addi	r4,r4,-26364
   80fc8:	00829e00 	call	829e0 <puts>
		data_array = (INT16U *) OSMboxPend(MboxGenArrayStart[0], 0,
   80fcc:	008002b4 	movhi	r2,10
   80fd0:	109a7c04 	addi	r2,r2,27120
   80fd4:	11000017 	ldw	r4,0(r2)
   80fd8:	e1bffc04 	addi	r6,fp,-16
   80fdc:	000b883a 	mov	r5,zero
   80fe0:	00915900 	call	91590 <OSMboxPend>
   80fe4:	e0bffb15 	stw	r2,-20(fp)
				&return_code);
		alt_ucosii_check_return_code(return_code);
   80fe8:	e0bffc03 	ldbu	r2,-16(fp)
   80fec:	11003fcc 	andi	r4,r2,255
   80ff0:	00804300 	call	80430 <alt_ucosii_check_return_code>

		printf("gen_array_0 started (%p)\n", data_array);
   80ff4:	010002b4 	movhi	r4,10
   80ff8:	21264804 	addi	r4,r4,-26336
   80ffc:	e17ffb17 	ldw	r5,-20(fp)
   81000:	00828a40 	call	828a4 <printf>

		max_value = 0;
   81004:	e03ff90d 	sth	zero,-28(fp)
		min_value = 65535;
   81008:	00bfffc4 	movi	r2,-1
   8100c:	e0bff98d 	sth	r2,-26(fp)

		// Get the seed from the switches
		switches = IORD(SWITCH_I_BASE, 0);
   81010:	00800434 	movhi	r2,16
   81014:	10842404 	addi	r2,r2,4240
   81018:	10800037 	ldwio	r2,0(r2)
   8101c:	e0bff815 	stw	r2,-32(fp)

		srand(switches);
   81020:	e13ff817 	ldw	r4,-32(fp)
   81024:	00829f40 	call	829f4 <srand>

		// Start generation
		for (i = 0; i < ARRAY_SIZE; i++) {
   81028:	e03ffa15 	stw	zero,-24(fp)
   8102c:	00003e06 	br	81128 <gen_array_0+0x180>
			data_array[i] = rand() % 65536;
   81030:	e0bffa17 	ldw	r2,-24(fp)
   81034:	1085883a 	add	r2,r2,r2
   81038:	1007883a 	mov	r3,r2
   8103c:	e0bffb17 	ldw	r2,-20(fp)
   81040:	1887883a 	add	r3,r3,r2
   81044:	e0fffe15 	stw	r3,-8(fp)
   81048:	0082a100 	call	82a10 <rand>
   8104c:	1007883a 	mov	r3,r2
   81050:	00a00074 	movhi	r2,32769
   81054:	10bfffc4 	addi	r2,r2,-1
   81058:	1886703a 	and	r3,r3,r2
   8105c:	e0ffff15 	stw	r3,-4(fp)
   81060:	e0ffff17 	ldw	r3,-4(fp)
   81064:	1804403a 	cmpge	r2,r3,zero
   81068:	1000091e 	bne	r2,zero,81090 <gen_array_0+0xe8>
   8106c:	e0bfff17 	ldw	r2,-4(fp)
   81070:	10bfffc4 	addi	r2,r2,-1
   81074:	e0bfff15 	stw	r2,-4(fp)
   81078:	e0ffff17 	ldw	r3,-4(fp)
   8107c:	18fffff4 	orhi	r3,r3,65535
   81080:	e0ffff15 	stw	r3,-4(fp)
   81084:	e0bfff17 	ldw	r2,-4(fp)
   81088:	10800044 	addi	r2,r2,1
   8108c:	e0bfff15 	stw	r2,-4(fp)
   81090:	e0bfff17 	ldw	r2,-4(fp)
   81094:	e0fffe17 	ldw	r3,-8(fp)
   81098:	1880000d 	sth	r2,0(r3)

			// For verification
			if (data_array[i] > max_value)
   8109c:	e0bffa17 	ldw	r2,-24(fp)
   810a0:	1085883a 	add	r2,r2,r2
   810a4:	1007883a 	mov	r3,r2
   810a8:	e0bffb17 	ldw	r2,-20(fp)
   810ac:	1885883a 	add	r2,r3,r2
   810b0:	1080000b 	ldhu	r2,0(r2)
   810b4:	10ffffcc 	andi	r3,r2,65535
   810b8:	e0bff90b 	ldhu	r2,-28(fp)
   810bc:	10c0072e 	bgeu	r2,r3,810dc <gen_array_0+0x134>
				max_value = data_array[i];
   810c0:	e0bffa17 	ldw	r2,-24(fp)
   810c4:	1085883a 	add	r2,r2,r2
   810c8:	1007883a 	mov	r3,r2
   810cc:	e0bffb17 	ldw	r2,-20(fp)
   810d0:	1885883a 	add	r2,r3,r2
   810d4:	1080000b 	ldhu	r2,0(r2)
   810d8:	e0bff90d 	sth	r2,-28(fp)
			if (data_array[i] < min_value)
   810dc:	e0bffa17 	ldw	r2,-24(fp)
   810e0:	1085883a 	add	r2,r2,r2
   810e4:	1007883a 	mov	r3,r2
   810e8:	e0bffb17 	ldw	r2,-20(fp)
   810ec:	1885883a 	add	r2,r3,r2
   810f0:	1080000b 	ldhu	r2,0(r2)
   810f4:	10ffffcc 	andi	r3,r2,65535
   810f8:	e0bff98b 	ldhu	r2,-26(fp)
   810fc:	1880072e 	bgeu	r3,r2,8111c <gen_array_0+0x174>
				min_value = data_array[i];
   81100:	e0bffa17 	ldw	r2,-24(fp)
   81104:	1085883a 	add	r2,r2,r2
   81108:	1007883a 	mov	r3,r2
   8110c:	e0bffb17 	ldw	r2,-20(fp)
   81110:	1885883a 	add	r2,r3,r2
   81114:	1080000b 	ldhu	r2,0(r2)
   81118:	e0bff98d 	sth	r2,-26(fp)
		switches = IORD(SWITCH_I_BASE, 0);

		srand(switches);

		// Start generation
		for (i = 0; i < ARRAY_SIZE; i++) {
   8111c:	e0bffa17 	ldw	r2,-24(fp)
   81120:	10800044 	addi	r2,r2,1
   81124:	e0bffa15 	stw	r2,-24(fp)
   81128:	e0bffa17 	ldw	r2,-24(fp)
   8112c:	1080fa10 	cmplti	r2,r2,1000
   81130:	103fbf1e 	bne	r2,zero,81030 <gen_array_0+0x88>
				max_value = data_array[i];
			if (data_array[i] < min_value)
				min_value = data_array[i];
		}

		printf("gen_array_0 done (min: %d)(max: %d)\n", min_value, max_value);
   81134:	e17ff98b 	ldhu	r5,-26(fp)
   81138:	e1bff90b 	ldhu	r6,-28(fp)
   8113c:	010002b4 	movhi	r4,10
   81140:	21264f04 	addi	r4,r4,-26308
   81144:	00828a40 	call	828a4 <printf>

		// When data generation is finished, the data array is posted to
		// two different mailboxes, so that the two tasks for finding
		// the min and max values in the array will be initiated
		return_code = OSMboxPost(MboxBubbleSortStart[0], (void *) (data_array));
   81148:	008002b4 	movhi	r2,10
   8114c:	109a8004 	addi	r2,r2,27136
   81150:	11000017 	ldw	r4,0(r2)
   81154:	e17ffb17 	ldw	r5,-20(fp)
   81158:	00919d40 	call	919d4 <OSMboxPost>
   8115c:	e0bffc05 	stb	r2,-16(fp)
		alt_ucosii_check_return_code(return_code);
   81160:	e0bffc03 	ldbu	r2,-16(fp)
   81164:	11003fcc 	andi	r4,r2,255
   81168:	00804300 	call	80430 <alt_ucosii_check_return_code>

		OSTimeDlyHMSM(0, 0, 1, 0);
   8116c:	0009883a 	mov	r4,zero
   81170:	000b883a 	mov	r5,zero
   81174:	01800044 	movi	r6,1
   81178:	000f883a 	mov	r7,zero
   8117c:	00960580 	call	96058 <OSTimeDlyHMSM>
	}
   81180:	003f8f06 	br	80fc0 <gen_array_0+0x18>

00081184 <gen_array_1>:
}

// gen_array_1 task
// It randomly generates numbers in the range of 0-65535 (16 bits)
// And stores them in the data array obtained from the mailbox
void gen_array_1(void* pdata) {
   81184:	defff604 	addi	sp,sp,-40
   81188:	dfc00915 	stw	ra,36(sp)
   8118c:	df000815 	stw	fp,32(sp)
   81190:	df000804 	addi	fp,sp,32
   81194:	e13ffd15 	stw	r4,-12(fp)
	INT16U * data_array;
	INT8U return_code = OS_NO_ERR;
   81198:	e03ffc05 	stb	zero,-16(fp)
	int i;
	INT16U min_value, max_value;
	int switches;

	while (1) {
		printf("gen_array_1 wait for start\n");
   8119c:	010002b4 	movhi	r4,10
   811a0:	21265904 	addi	r4,r4,-26268
   811a4:	00829e00 	call	829e0 <puts>
		data_array = (INT16U *) OSMboxPend(MboxGenArrayStart[1], 0,
   811a8:	008002b4 	movhi	r2,10
   811ac:	109a7c04 	addi	r2,r2,27120
   811b0:	11000117 	ldw	r4,4(r2)
   811b4:	e1bffc04 	addi	r6,fp,-16
   811b8:	000b883a 	mov	r5,zero
   811bc:	00915900 	call	91590 <OSMboxPend>
   811c0:	e0bffb15 	stw	r2,-20(fp)
				&return_code);
		alt_ucosii_check_return_code(return_code);
   811c4:	e0bffc03 	ldbu	r2,-16(fp)
   811c8:	11003fcc 	andi	r4,r2,255
   811cc:	00804300 	call	80430 <alt_ucosii_check_return_code>

		printf("gen_array_1 started (%p)\n", data_array);
   811d0:	010002b4 	movhi	r4,10
   811d4:	21266004 	addi	r4,r4,-26240
   811d8:	e17ffb17 	ldw	r5,-20(fp)
   811dc:	00828a40 	call	828a4 <printf>

		max_value = 0;
   811e0:	e03ff90d 	sth	zero,-28(fp)
		min_value = 65535;
   811e4:	00bfffc4 	movi	r2,-1
   811e8:	e0bff98d 	sth	r2,-26(fp)

		// Get the seed from the switches
		switches = IORD(SWITCH_I_BASE, 0);
   811ec:	00800434 	movhi	r2,16
   811f0:	10842404 	addi	r2,r2,4240
   811f4:	10800037 	ldwio	r2,0(r2)
   811f8:	e0bff815 	stw	r2,-32(fp)

		srand(~switches);
   811fc:	e0bff817 	ldw	r2,-32(fp)
   81200:	0084303a 	nor	r2,zero,r2
   81204:	1009883a 	mov	r4,r2
   81208:	00829f40 	call	829f4 <srand>

		// Start generation
		for (i = 0; i < ARRAY_SIZE; i++) {
   8120c:	e03ffa15 	stw	zero,-24(fp)
   81210:	00003e06 	br	8130c <gen_array_1+0x188>
			data_array[i] = rand() % 65536;
   81214:	e0bffa17 	ldw	r2,-24(fp)
   81218:	1085883a 	add	r2,r2,r2
   8121c:	1007883a 	mov	r3,r2
   81220:	e0bffb17 	ldw	r2,-20(fp)
   81224:	1887883a 	add	r3,r3,r2
   81228:	e0fffe15 	stw	r3,-8(fp)
   8122c:	0082a100 	call	82a10 <rand>
   81230:	1007883a 	mov	r3,r2
   81234:	00a00074 	movhi	r2,32769
   81238:	10bfffc4 	addi	r2,r2,-1
   8123c:	1886703a 	and	r3,r3,r2
   81240:	e0ffff15 	stw	r3,-4(fp)
   81244:	e0ffff17 	ldw	r3,-4(fp)
   81248:	1804403a 	cmpge	r2,r3,zero
   8124c:	1000091e 	bne	r2,zero,81274 <gen_array_1+0xf0>
   81250:	e0bfff17 	ldw	r2,-4(fp)
   81254:	10bfffc4 	addi	r2,r2,-1
   81258:	e0bfff15 	stw	r2,-4(fp)
   8125c:	e0ffff17 	ldw	r3,-4(fp)
   81260:	18fffff4 	orhi	r3,r3,65535
   81264:	e0ffff15 	stw	r3,-4(fp)
   81268:	e0bfff17 	ldw	r2,-4(fp)
   8126c:	10800044 	addi	r2,r2,1
   81270:	e0bfff15 	stw	r2,-4(fp)
   81274:	e0bfff17 	ldw	r2,-4(fp)
   81278:	e0fffe17 	ldw	r3,-8(fp)
   8127c:	1880000d 	sth	r2,0(r3)

			// For verification
			if (data_array[i] > max_value)
   81280:	e0bffa17 	ldw	r2,-24(fp)
   81284:	1085883a 	add	r2,r2,r2
   81288:	1007883a 	mov	r3,r2
   8128c:	e0bffb17 	ldw	r2,-20(fp)
   81290:	1885883a 	add	r2,r3,r2
   81294:	1080000b 	ldhu	r2,0(r2)
   81298:	10ffffcc 	andi	r3,r2,65535
   8129c:	e0bff90b 	ldhu	r2,-28(fp)
   812a0:	10c0072e 	bgeu	r2,r3,812c0 <gen_array_1+0x13c>
				max_value = data_array[i];
   812a4:	e0bffa17 	ldw	r2,-24(fp)
   812a8:	1085883a 	add	r2,r2,r2
   812ac:	1007883a 	mov	r3,r2
   812b0:	e0bffb17 	ldw	r2,-20(fp)
   812b4:	1885883a 	add	r2,r3,r2
   812b8:	1080000b 	ldhu	r2,0(r2)
   812bc:	e0bff90d 	sth	r2,-28(fp)
			if (data_array[i] < min_value)
   812c0:	e0bffa17 	ldw	r2,-24(fp)
   812c4:	1085883a 	add	r2,r2,r2
   812c8:	1007883a 	mov	r3,r2
   812cc:	e0bffb17 	ldw	r2,-20(fp)
   812d0:	1885883a 	add	r2,r3,r2
   812d4:	1080000b 	ldhu	r2,0(r2)
   812d8:	10ffffcc 	andi	r3,r2,65535
   812dc:	e0bff98b 	ldhu	r2,-26(fp)
   812e0:	1880072e 	bgeu	r3,r2,81300 <gen_array_1+0x17c>
				min_value = data_array[i];
   812e4:	e0bffa17 	ldw	r2,-24(fp)
   812e8:	1085883a 	add	r2,r2,r2
   812ec:	1007883a 	mov	r3,r2
   812f0:	e0bffb17 	ldw	r2,-20(fp)
   812f4:	1885883a 	add	r2,r3,r2
   812f8:	1080000b 	ldhu	r2,0(r2)
   812fc:	e0bff98d 	sth	r2,-26(fp)
		switches = IORD(SWITCH_I_BASE, 0);

		srand(~switches);

		// Start generation
		for (i = 0; i < ARRAY_SIZE; i++) {
   81300:	e0bffa17 	ldw	r2,-24(fp)
   81304:	10800044 	addi	r2,r2,1
   81308:	e0bffa15 	stw	r2,-24(fp)
   8130c:	e0bffa17 	ldw	r2,-24(fp)
   81310:	1080fa10 	cmplti	r2,r2,1000
   81314:	103fbf1e 	bne	r2,zero,81214 <gen_array_1+0x90>
				max_value = data_array[i];
			if (data_array[i] < min_value)
				min_value = data_array[i];
		}

		printf("gen_array_1 done (min: %d)(max: %d)\n", min_value, max_value);
   81318:	e17ff98b 	ldhu	r5,-26(fp)
   8131c:	e1bff90b 	ldhu	r6,-28(fp)
   81320:	010002b4 	movhi	r4,10
   81324:	21266704 	addi	r4,r4,-26212
   81328:	00828a40 	call	828a4 <printf>

		// When data generation is finished, the data array is posted to
		// two different mailboxes, so that the two tasks for finding
		// the min and max values in the array will be initiated
		return_code = OSMboxPost(MboxBubbleSortStart[1], (void *) (data_array));
   8132c:	008002b4 	movhi	r2,10
   81330:	109a8004 	addi	r2,r2,27136
   81334:	11000117 	ldw	r4,4(r2)
   81338:	e17ffb17 	ldw	r5,-20(fp)
   8133c:	00919d40 	call	919d4 <OSMboxPost>
   81340:	e0bffc05 	stb	r2,-16(fp)
		alt_ucosii_check_return_code(return_code);
   81344:	e0bffc03 	ldbu	r2,-16(fp)
   81348:	11003fcc 	andi	r4,r2,255
   8134c:	00804300 	call	80430 <alt_ucosii_check_return_code>

		OSTimeDlyHMSM(0, 0, 1, 0);
   81350:	0009883a 	mov	r4,zero
   81354:	000b883a 	mov	r5,zero
   81358:	01800044 	movi	r6,1
   8135c:	000f883a 	mov	r7,zero
   81360:	00960580 	call	96058 <OSTimeDlyHMSM>
	}
   81364:	003f8d06 	br	8119c <gen_array_1+0x18>

00081368 <gen_array_2>:
}

// gen_array_1 task
// It randomly generates numbers in the range of 0-65535 (16 bits)
// And stores them in the data array obtained from the mailbox
void gen_array_2(void* pdata) {
   81368:	defff604 	addi	sp,sp,-40
   8136c:	dfc00915 	stw	ra,36(sp)
   81370:	df000815 	stw	fp,32(sp)
   81374:	df000804 	addi	fp,sp,32
   81378:	e13ffd15 	stw	r4,-12(fp)
	INT16U * data_array;
	INT8U return_code = OS_NO_ERR;
   8137c:	e03ffc05 	stb	zero,-16(fp)
	int i;
	INT16U min_value, max_value;
	int switches;

	while (1) {
		printf("gen_array_2 wait for start\n");
   81380:	010002b4 	movhi	r4,10
   81384:	21267104 	addi	r4,r4,-26172
   81388:	00829e00 	call	829e0 <puts>
		data_array = (INT16U *) OSMboxPend(MboxGenArrayStart[2], 0,
   8138c:	008002b4 	movhi	r2,10
   81390:	109a7c04 	addi	r2,r2,27120
   81394:	11000217 	ldw	r4,8(r2)
   81398:	e1bffc04 	addi	r6,fp,-16
   8139c:	000b883a 	mov	r5,zero
   813a0:	00915900 	call	91590 <OSMboxPend>
   813a4:	e0bffb15 	stw	r2,-20(fp)
				&return_code);
		alt_ucosii_check_return_code(return_code);
   813a8:	e0bffc03 	ldbu	r2,-16(fp)
   813ac:	11003fcc 	andi	r4,r2,255
   813b0:	00804300 	call	80430 <alt_ucosii_check_return_code>

		printf("gen_array_2 started (%p)\n", data_array);
   813b4:	010002b4 	movhi	r4,10
   813b8:	21267804 	addi	r4,r4,-26144
   813bc:	e17ffb17 	ldw	r5,-20(fp)
   813c0:	00828a40 	call	828a4 <printf>

		max_value = 0;
   813c4:	e03ff90d 	sth	zero,-28(fp)
		min_value = 65535;
   813c8:	00bfffc4 	movi	r2,-1
   813cc:	e0bff98d 	sth	r2,-26(fp)

		// Get the seed from the switches
		switches = IORD(SWITCH_I_BASE, 0);
   813d0:	00800434 	movhi	r2,16
   813d4:	10842404 	addi	r2,r2,4240
   813d8:	10800037 	ldwio	r2,0(r2)
   813dc:	e0bff815 	stw	r2,-32(fp)

		srand(switches + 123);
   813e0:	e0bff817 	ldw	r2,-32(fp)
   813e4:	10801ec4 	addi	r2,r2,123
   813e8:	1009883a 	mov	r4,r2
   813ec:	00829f40 	call	829f4 <srand>

		// Start generation
		for (i = 0; i < ARRAY_SIZE; i++) {
   813f0:	e03ffa15 	stw	zero,-24(fp)
   813f4:	00003e06 	br	814f0 <gen_array_2+0x188>
			data_array[i] = rand() % 65536;
   813f8:	e0bffa17 	ldw	r2,-24(fp)
   813fc:	1085883a 	add	r2,r2,r2
   81400:	1007883a 	mov	r3,r2
   81404:	e0bffb17 	ldw	r2,-20(fp)
   81408:	1887883a 	add	r3,r3,r2
   8140c:	e0fffe15 	stw	r3,-8(fp)
   81410:	0082a100 	call	82a10 <rand>
   81414:	1007883a 	mov	r3,r2
   81418:	00a00074 	movhi	r2,32769
   8141c:	10bfffc4 	addi	r2,r2,-1
   81420:	1886703a 	and	r3,r3,r2
   81424:	e0ffff15 	stw	r3,-4(fp)
   81428:	e0ffff17 	ldw	r3,-4(fp)
   8142c:	1804403a 	cmpge	r2,r3,zero
   81430:	1000091e 	bne	r2,zero,81458 <gen_array_2+0xf0>
   81434:	e0bfff17 	ldw	r2,-4(fp)
   81438:	10bfffc4 	addi	r2,r2,-1
   8143c:	e0bfff15 	stw	r2,-4(fp)
   81440:	e0ffff17 	ldw	r3,-4(fp)
   81444:	18fffff4 	orhi	r3,r3,65535
   81448:	e0ffff15 	stw	r3,-4(fp)
   8144c:	e0bfff17 	ldw	r2,-4(fp)
   81450:	10800044 	addi	r2,r2,1
   81454:	e0bfff15 	stw	r2,-4(fp)
   81458:	e0bfff17 	ldw	r2,-4(fp)
   8145c:	e0fffe17 	ldw	r3,-8(fp)
   81460:	1880000d 	sth	r2,0(r3)

			// For verification
			if (data_array[i] > max_value)
   81464:	e0bffa17 	ldw	r2,-24(fp)
   81468:	1085883a 	add	r2,r2,r2
   8146c:	1007883a 	mov	r3,r2
   81470:	e0bffb17 	ldw	r2,-20(fp)
   81474:	1885883a 	add	r2,r3,r2
   81478:	1080000b 	ldhu	r2,0(r2)
   8147c:	10ffffcc 	andi	r3,r2,65535
   81480:	e0bff90b 	ldhu	r2,-28(fp)
   81484:	10c0072e 	bgeu	r2,r3,814a4 <gen_array_2+0x13c>
				max_value = data_array[i];
   81488:	e0bffa17 	ldw	r2,-24(fp)
   8148c:	1085883a 	add	r2,r2,r2
   81490:	1007883a 	mov	r3,r2
   81494:	e0bffb17 	ldw	r2,-20(fp)
   81498:	1885883a 	add	r2,r3,r2
   8149c:	1080000b 	ldhu	r2,0(r2)
   814a0:	e0bff90d 	sth	r2,-28(fp)
			if (data_array[i] < min_value)
   814a4:	e0bffa17 	ldw	r2,-24(fp)
   814a8:	1085883a 	add	r2,r2,r2
   814ac:	1007883a 	mov	r3,r2
   814b0:	e0bffb17 	ldw	r2,-20(fp)
   814b4:	1885883a 	add	r2,r3,r2
   814b8:	1080000b 	ldhu	r2,0(r2)
   814bc:	10ffffcc 	andi	r3,r2,65535
   814c0:	e0bff98b 	ldhu	r2,-26(fp)
   814c4:	1880072e 	bgeu	r3,r2,814e4 <gen_array_2+0x17c>
				min_value = data_array[i];
   814c8:	e0bffa17 	ldw	r2,-24(fp)
   814cc:	1085883a 	add	r2,r2,r2
   814d0:	1007883a 	mov	r3,r2
   814d4:	e0bffb17 	ldw	r2,-20(fp)
   814d8:	1885883a 	add	r2,r3,r2
   814dc:	1080000b 	ldhu	r2,0(r2)
   814e0:	e0bff98d 	sth	r2,-26(fp)
		switches = IORD(SWITCH_I_BASE, 0);

		srand(switches + 123);

		// Start generation
		for (i = 0; i < ARRAY_SIZE; i++) {
   814e4:	e0bffa17 	ldw	r2,-24(fp)
   814e8:	10800044 	addi	r2,r2,1
   814ec:	e0bffa15 	stw	r2,-24(fp)
   814f0:	e0bffa17 	ldw	r2,-24(fp)
   814f4:	1080fa10 	cmplti	r2,r2,1000
   814f8:	103fbf1e 	bne	r2,zero,813f8 <gen_array_2+0x90>
				max_value = data_array[i];
			if (data_array[i] < min_value)
				min_value = data_array[i];
		}

		printf("gen_array_2 done (min: %d)(max: %d)\n", min_value, max_value);
   814fc:	e17ff98b 	ldhu	r5,-26(fp)
   81500:	e1bff90b 	ldhu	r6,-28(fp)
   81504:	010002b4 	movhi	r4,10
   81508:	21267f04 	addi	r4,r4,-26116
   8150c:	00828a40 	call	828a4 <printf>

		// When data generation is finished, the data array is posted to
		// two different mailboxes, so that the two tasks for finding
		// the min and max values in the array will be initiated
		return_code = OSMboxPost(MboxBubbleSortStart[2], (void *) (data_array));
   81510:	008002b4 	movhi	r2,10
   81514:	109a8004 	addi	r2,r2,27136
   81518:	11000217 	ldw	r4,8(r2)
   8151c:	e17ffb17 	ldw	r5,-20(fp)
   81520:	00919d40 	call	919d4 <OSMboxPost>
   81524:	e0bffc05 	stb	r2,-16(fp)
		alt_ucosii_check_return_code(return_code);
   81528:	e0bffc03 	ldbu	r2,-16(fp)
   8152c:	11003fcc 	andi	r4,r2,255
   81530:	00804300 	call	80430 <alt_ucosii_check_return_code>

		OSTimeDlyHMSM(0, 0, 1, 0);
   81534:	0009883a 	mov	r4,zero
   81538:	000b883a 	mov	r5,zero
   8153c:	01800044 	movi	r6,1
   81540:	000f883a 	mov	r7,zero
   81544:	00960580 	call	96058 <OSTimeDlyHMSM>
	}
   81548:	003f8d06 	br	81380 <gen_array_2+0x18>

0008154c <gen_array_3>:
}

// gen_array_1 task
// It randomly generates numbers in the range of 0-65535 (16 bits)
// And stores them in the data array obtained from the mailbox
void gen_array_3(void* pdata) {
   8154c:	defff604 	addi	sp,sp,-40
   81550:	dfc00915 	stw	ra,36(sp)
   81554:	df000815 	stw	fp,32(sp)
   81558:	df000804 	addi	fp,sp,32
   8155c:	e13ffd15 	stw	r4,-12(fp)
	INT16U * data_array;
	INT8U return_code = OS_NO_ERR;
   81560:	e03ffc05 	stb	zero,-16(fp)
	int i;
	INT16U min_value, max_value;
	int switches;

	while (1) {
		printf("gen_array_3 wait for start\n");
   81564:	010002b4 	movhi	r4,10
   81568:	21268904 	addi	r4,r4,-26076
   8156c:	00829e00 	call	829e0 <puts>
		data_array = (INT16U *) OSMboxPend(MboxGenArrayStart[3], 0,
   81570:	008002b4 	movhi	r2,10
   81574:	109a7c04 	addi	r2,r2,27120
   81578:	11000317 	ldw	r4,12(r2)
   8157c:	e1bffc04 	addi	r6,fp,-16
   81580:	000b883a 	mov	r5,zero
   81584:	00915900 	call	91590 <OSMboxPend>
   81588:	e0bffb15 	stw	r2,-20(fp)
				&return_code);
		alt_ucosii_check_return_code(return_code);
   8158c:	e0bffc03 	ldbu	r2,-16(fp)
   81590:	11003fcc 	andi	r4,r2,255
   81594:	00804300 	call	80430 <alt_ucosii_check_return_code>

		printf("gen_array_3 started (%p)\n", data_array);
   81598:	010002b4 	movhi	r4,10
   8159c:	21269004 	addi	r4,r4,-26048
   815a0:	e17ffb17 	ldw	r5,-20(fp)
   815a4:	00828a40 	call	828a4 <printf>

		max_value = 0;
   815a8:	e03ff90d 	sth	zero,-28(fp)
		min_value = 65535;
   815ac:	00bfffc4 	movi	r2,-1
   815b0:	e0bff98d 	sth	r2,-26(fp)

		// Get the seed from the switches
		switches = IORD(SWITCH_I_BASE, 0);
   815b4:	00800434 	movhi	r2,16
   815b8:	10842404 	addi	r2,r2,4240
   815bc:	10800037 	ldwio	r2,0(r2)
   815c0:	e0bff815 	stw	r2,-32(fp)

		srand(~switches + 1234);
   815c4:	e0bff817 	ldw	r2,-32(fp)
   815c8:	0084303a 	nor	r2,zero,r2
   815cc:	10813484 	addi	r2,r2,1234
   815d0:	1009883a 	mov	r4,r2
   815d4:	00829f40 	call	829f4 <srand>

		// Start generation
		for (i = 0; i < ARRAY_SIZE; i++) {
   815d8:	e03ffa15 	stw	zero,-24(fp)
   815dc:	00003e06 	br	816d8 <gen_array_3+0x18c>
			data_array[i] = rand() % 65536;
   815e0:	e0bffa17 	ldw	r2,-24(fp)
   815e4:	1085883a 	add	r2,r2,r2
   815e8:	1007883a 	mov	r3,r2
   815ec:	e0bffb17 	ldw	r2,-20(fp)
   815f0:	1887883a 	add	r3,r3,r2
   815f4:	e0fffe15 	stw	r3,-8(fp)
   815f8:	0082a100 	call	82a10 <rand>
   815fc:	1007883a 	mov	r3,r2
   81600:	00a00074 	movhi	r2,32769
   81604:	10bfffc4 	addi	r2,r2,-1
   81608:	1886703a 	and	r3,r3,r2
   8160c:	e0ffff15 	stw	r3,-4(fp)
   81610:	e0ffff17 	ldw	r3,-4(fp)
   81614:	1804403a 	cmpge	r2,r3,zero
   81618:	1000091e 	bne	r2,zero,81640 <gen_array_3+0xf4>
   8161c:	e0bfff17 	ldw	r2,-4(fp)
   81620:	10bfffc4 	addi	r2,r2,-1
   81624:	e0bfff15 	stw	r2,-4(fp)
   81628:	e0ffff17 	ldw	r3,-4(fp)
   8162c:	18fffff4 	orhi	r3,r3,65535
   81630:	e0ffff15 	stw	r3,-4(fp)
   81634:	e0bfff17 	ldw	r2,-4(fp)
   81638:	10800044 	addi	r2,r2,1
   8163c:	e0bfff15 	stw	r2,-4(fp)
   81640:	e0bfff17 	ldw	r2,-4(fp)
   81644:	e0fffe17 	ldw	r3,-8(fp)
   81648:	1880000d 	sth	r2,0(r3)

			// For verification
			if (data_array[i] > max_value)
   8164c:	e0bffa17 	ldw	r2,-24(fp)
   81650:	1085883a 	add	r2,r2,r2
   81654:	1007883a 	mov	r3,r2
   81658:	e0bffb17 	ldw	r2,-20(fp)
   8165c:	1885883a 	add	r2,r3,r2
   81660:	1080000b 	ldhu	r2,0(r2)
   81664:	10ffffcc 	andi	r3,r2,65535
   81668:	e0bff90b 	ldhu	r2,-28(fp)
   8166c:	10c0072e 	bgeu	r2,r3,8168c <gen_array_3+0x140>
				max_value = data_array[i];
   81670:	e0bffa17 	ldw	r2,-24(fp)
   81674:	1085883a 	add	r2,r2,r2
   81678:	1007883a 	mov	r3,r2
   8167c:	e0bffb17 	ldw	r2,-20(fp)
   81680:	1885883a 	add	r2,r3,r2
   81684:	1080000b 	ldhu	r2,0(r2)
   81688:	e0bff90d 	sth	r2,-28(fp)
			if (data_array[i] < min_value)
   8168c:	e0bffa17 	ldw	r2,-24(fp)
   81690:	1085883a 	add	r2,r2,r2
   81694:	1007883a 	mov	r3,r2
   81698:	e0bffb17 	ldw	r2,-20(fp)
   8169c:	1885883a 	add	r2,r3,r2
   816a0:	1080000b 	ldhu	r2,0(r2)
   816a4:	10ffffcc 	andi	r3,r2,65535
   816a8:	e0bff98b 	ldhu	r2,-26(fp)
   816ac:	1880072e 	bgeu	r3,r2,816cc <gen_array_3+0x180>
				min_value = data_array[i];
   816b0:	e0bffa17 	ldw	r2,-24(fp)
   816b4:	1085883a 	add	r2,r2,r2
   816b8:	1007883a 	mov	r3,r2
   816bc:	e0bffb17 	ldw	r2,-20(fp)
   816c0:	1885883a 	add	r2,r3,r2
   816c4:	1080000b 	ldhu	r2,0(r2)
   816c8:	e0bff98d 	sth	r2,-26(fp)
		switches = IORD(SWITCH_I_BASE, 0);

		srand(~switches + 1234);

		// Start generation
		for (i = 0; i < ARRAY_SIZE; i++) {
   816cc:	e0bffa17 	ldw	r2,-24(fp)
   816d0:	10800044 	addi	r2,r2,1
   816d4:	e0bffa15 	stw	r2,-24(fp)
   816d8:	e0bffa17 	ldw	r2,-24(fp)
   816dc:	1080fa10 	cmplti	r2,r2,1000
   816e0:	103fbf1e 	bne	r2,zero,815e0 <gen_array_3+0x94>
				max_value = data_array[i];
			if (data_array[i] < min_value)
				min_value = data_array[i];
		}

		printf("gen_array_3 done (min: %d)(max: %d)\n", min_value, max_value);
   816e4:	e17ff98b 	ldhu	r5,-26(fp)
   816e8:	e1bff90b 	ldhu	r6,-28(fp)
   816ec:	010002b4 	movhi	r4,10
   816f0:	21269704 	addi	r4,r4,-26020
   816f4:	00828a40 	call	828a4 <printf>

		// When data generation is finished, the data array is posted to
		// two different mailboxes, so that the two tasks for finding
		// the min and max values in the array will be initiated
		return_code = OSMboxPost(MboxBubbleSortStart[3], (void *) (data_array));
   816f8:	008002b4 	movhi	r2,10
   816fc:	109a8004 	addi	r2,r2,27136
   81700:	11000317 	ldw	r4,12(r2)
   81704:	e17ffb17 	ldw	r5,-20(fp)
   81708:	00919d40 	call	919d4 <OSMboxPost>
   8170c:	e0bffc05 	stb	r2,-16(fp)
		alt_ucosii_check_return_code(return_code);
   81710:	e0bffc03 	ldbu	r2,-16(fp)
   81714:	11003fcc 	andi	r4,r2,255
   81718:	00804300 	call	80430 <alt_ucosii_check_return_code>

		OSTimeDlyHMSM(0, 0, 1, 0);
   8171c:	0009883a 	mov	r4,zero
   81720:	000b883a 	mov	r5,zero
   81724:	01800044 	movi	r6,1
   81728:	000f883a 	mov	r7,zero
   8172c:	00960580 	call	96058 <OSTimeDlyHMSM>
	}
   81730:	003f8c06 	br	81564 <gen_array_3+0x18>

00081734 <bubble_sort_0>:
}

// find_min_0 task
// It obtains the data array from the mailbox
// and then find the min value in the array
void bubble_sort_0(void* pdata) {
   81734:	defff504 	addi	sp,sp,-44
   81738:	dfc00a15 	stw	ra,40(sp)
   8173c:	df000915 	stw	fp,36(sp)
   81740:	df000904 	addi	fp,sp,36
   81744:	e13fff15 	stw	r4,-4(fp)
	INT16U min_value;
	INT16U max_value;
	INT16U * data_array;
	INT8U return_code = OS_NO_ERR;
   81748:	e03ffe05 	stb	zero,-8(fp)
	int size = 1000;
   8174c:	0080fa04 	movi	r2,1000
   81750:	e0bffb15 	stw	r2,-20(fp)
	int i_did_work = 0;
   81754:	e03ffa15 	stw	zero,-24(fp)
	INT16U hold;
	int i;
	int j;

	while (1) {
		printf("bubble_sort_0 wait for start\n");
   81758:	010002b4 	movhi	r4,10
   8175c:	2126a104 	addi	r4,r4,-25980
   81760:	00829e00 	call	829e0 <puts>
		PERF_BEGIN(performance_name,1);
   81764:	d0a00017 	ldw	r2,-32768(gp)
   81768:	10800504 	addi	r2,r2,20
   8176c:	10000035 	stwio	zero,0(r2)
		data_array = (INT16U *) OSMboxPend(MboxBubbleSortStart[0], 0,&return_code);
   81770:	008002b4 	movhi	r2,10
   81774:	109a8004 	addi	r2,r2,27136
   81778:	11000017 	ldw	r4,0(r2)
   8177c:	e1bffe04 	addi	r6,fp,-8
   81780:	000b883a 	mov	r5,zero
   81784:	00915900 	call	91590 <OSMboxPend>
   81788:	e0bffc15 	stw	r2,-16(fp)
		alt_ucosii_check_return_code(return_code);
   8178c:	e0bffe03 	ldbu	r2,-8(fp)
   81790:	11003fcc 	andi	r4,r2,255
   81794:	00804300 	call	80430 <alt_ucosii_check_return_code>
		PERF_END(performance_name,1);
   81798:	d0a00017 	ldw	r2,-32768(gp)
   8179c:	10800404 	addi	r2,r2,16
   817a0:	10000035 	stwio	zero,0(r2)
		printf("bubble_sort_0 started (%p)\n", data_array);
   817a4:	010002b4 	movhi	r4,10
   817a8:	2126a904 	addi	r4,r4,-25948
   817ac:	e17ffc17 	ldw	r5,-16(fp)
   817b0:	00828a40 	call	828a4 <printf>

		// Start performance counter
		PERF_BEGIN(performance_name, 1);
   817b4:	d0a00017 	ldw	r2,-32768(gp)
   817b8:	10800504 	addi	r2,r2,20
   817bc:	10000035 	stwio	zero,0(r2)

		for (i = 0; i < size; i++) {
   817c0:	e03ff815 	stw	zero,-32(fp)
   817c4:	00003e06 	br	818c0 <bubble_sort_0+0x18c>
			//printf("   Items compared: [ %d, %d ] ", data_array[i], data_array[i+1]);
			i_did_work = 0;
   817c8:	e03ffa15 	stw	zero,-24(fp)

			for (j = 0; j < size - 1; j++) {
   817cc:	e03ff715 	stw	zero,-36(fp)
   817d0:	00003106 	br	81898 <bubble_sort_0+0x164>
				//check if num is GREATER than current num, if yes, then swap them (BUBBLE UP)
				if (data_array[j] > data_array[j + 1]) {
   817d4:	e0bff717 	ldw	r2,-36(fp)
   817d8:	1085883a 	add	r2,r2,r2
   817dc:	1007883a 	mov	r3,r2
   817e0:	e0bffc17 	ldw	r2,-16(fp)
   817e4:	1885883a 	add	r2,r3,r2
   817e8:	1100000b 	ldhu	r4,0(r2)
   817ec:	e0bff717 	ldw	r2,-36(fp)
   817f0:	1085883a 	add	r2,r2,r2
   817f4:	1007883a 	mov	r3,r2
   817f8:	e0bffc17 	ldw	r2,-16(fp)
   817fc:	1885883a 	add	r2,r3,r2
   81800:	10800084 	addi	r2,r2,2
   81804:	1080000b 	ldhu	r2,0(r2)
   81808:	20ffffcc 	andi	r3,r4,65535
   8180c:	10bfffcc 	andi	r2,r2,65535
   81810:	10c01e2e 	bgeu	r2,r3,8188c <bubble_sort_0+0x158>
					hold = data_array[j];
   81814:	e0bff717 	ldw	r2,-36(fp)
   81818:	1085883a 	add	r2,r2,r2
   8181c:	1007883a 	mov	r3,r2
   81820:	e0bffc17 	ldw	r2,-16(fp)
   81824:	1885883a 	add	r2,r3,r2
   81828:	1080000b 	ldhu	r2,0(r2)
   8182c:	e0bff90d 	sth	r2,-28(fp)
					data_array[j] = data_array[j + 1];
   81830:	e0bff717 	ldw	r2,-36(fp)
   81834:	1085883a 	add	r2,r2,r2
   81838:	1007883a 	mov	r3,r2
   8183c:	e0bffc17 	ldw	r2,-16(fp)
   81840:	1889883a 	add	r4,r3,r2
   81844:	e0bff717 	ldw	r2,-36(fp)
   81848:	1085883a 	add	r2,r2,r2
   8184c:	1007883a 	mov	r3,r2
   81850:	e0bffc17 	ldw	r2,-16(fp)
   81854:	1885883a 	add	r2,r3,r2
   81858:	10800084 	addi	r2,r2,2
   8185c:	1080000b 	ldhu	r2,0(r2)
   81860:	2080000d 	sth	r2,0(r4)
					data_array[j + 1] = hold;
   81864:	e0bff717 	ldw	r2,-36(fp)
   81868:	1085883a 	add	r2,r2,r2
   8186c:	1007883a 	mov	r3,r2
   81870:	e0bffc17 	ldw	r2,-16(fp)
   81874:	1885883a 	add	r2,r3,r2
   81878:	10c00084 	addi	r3,r2,2
   8187c:	e0bff90b 	ldhu	r2,-28(fp)
   81880:	1880000d 	sth	r2,0(r3)

					i_did_work = 1;
   81884:	00800044 	movi	r2,1
   81888:	e0bffa15 	stw	r2,-24(fp)

		for (i = 0; i < size; i++) {
			//printf("   Items compared: [ %d, %d ] ", data_array[i], data_array[i+1]);
			i_did_work = 0;

			for (j = 0; j < size - 1; j++) {
   8188c:	e0bff717 	ldw	r2,-36(fp)
   81890:	10800044 	addi	r2,r2,1
   81894:	e0bff715 	stw	r2,-36(fp)
   81898:	e0bffb17 	ldw	r2,-20(fp)
   8189c:	10ffffc4 	addi	r3,r2,-1
   818a0:	e0bff717 	ldw	r2,-36(fp)
   818a4:	10ffcb16 	blt	r2,r3,817d4 <bubble_sort_0+0xa0>
					//printf("--> No Swaps!\n");
				}

				//printf("Iteration %d: ",(i+1));
			}
			if (i_did_work == 0) {
   818a8:	e0bffa17 	ldw	r2,-24(fp)
   818ac:	1005003a 	cmpeq	r2,r2,zero
   818b0:	1000061e 	bne	r2,zero,818cc <bubble_sort_0+0x198>
		printf("bubble_sort_0 started (%p)\n", data_array);

		// Start performance counter
		PERF_BEGIN(performance_name, 1);

		for (i = 0; i < size; i++) {
   818b4:	e0bff817 	ldw	r2,-32(fp)
   818b8:	10800044 	addi	r2,r2,1
   818bc:	e0bff815 	stw	r2,-32(fp)
   818c0:	e0fff817 	ldw	r3,-32(fp)
   818c4:	e0bffb17 	ldw	r2,-20(fp)
   818c8:	18bfbf16 	blt	r3,r2,817c8 <bubble_sort_0+0x94>
			}
		}

		//printf("The bubble sort function is complete\n");
		// Stop performance counter
		PERF_END(performance_name, 1);
   818cc:	d0a00017 	ldw	r2,-32768(gp)
   818d0:	10800404 	addi	r2,r2,16
   818d4:	10000035 	stwio	zero,0(r2)

		min_value = data_array[0];
   818d8:	e0bffc17 	ldw	r2,-16(fp)
   818dc:	1080000b 	ldhu	r2,0(r2)
   818e0:	e0bffd8d 	sth	r2,-10(fp)
		max_value = data_array[999];
   818e4:	e0bffc17 	ldw	r2,-16(fp)
   818e8:	1081f384 	addi	r2,r2,1998
   818ec:	1080000b 	ldhu	r2,0(r2)
   818f0:	e0bffd0d 	sth	r2,-12(fp)

		printf("bubble_sort_0  done (min: %d, max: %d)\n", min_value, max_value);
   818f4:	e17ffd8b 	ldhu	r5,-10(fp)
   818f8:	e1bffd0b 	ldhu	r6,-12(fp)
   818fc:	010002b4 	movhi	r4,10
   81900:	2126b004 	addi	r4,r4,-25920
   81904:	00828a40 	call	828a4 <printf>

		// Post the min value to the mailbox for other task
		return_code = OSMboxPost(MboxBubbleSortDone[0], (void *) (data_array));
   81908:	008002f4 	movhi	r2,11
   8190c:	108af404 	addi	r2,r2,11216
   81910:	11000017 	ldw	r4,0(r2)
   81914:	e17ffc17 	ldw	r5,-16(fp)
   81918:	00919d40 	call	919d4 <OSMboxPost>
   8191c:	e0bffe05 	stb	r2,-8(fp)
		alt_ucosii_check_return_code(return_code);
   81920:	e0bffe03 	ldbu	r2,-8(fp)
   81924:	11003fcc 	andi	r4,r2,255
   81928:	00804300 	call	80430 <alt_ucosii_check_return_code>

		//		return_code = OSMboxPost(MboxFindMaxDone[0], (void *)(&max_value));
		//		alt_ucosii_check_return_code(return_code);

		OSTimeDlyHMSM(0, 0, 1, 0);
   8192c:	0009883a 	mov	r4,zero
   81930:	000b883a 	mov	r5,zero
   81934:	01800044 	movi	r6,1
   81938:	000f883a 	mov	r7,zero
   8193c:	00960580 	call	96058 <OSTimeDlyHMSM>
	}
   81940:	003f8506 	br	81758 <bubble_sort_0+0x24>

00081944 <bubble_sort_1>:
}

void bubble_sort_1(void* pdata) {
   81944:	defff504 	addi	sp,sp,-44
   81948:	dfc00a15 	stw	ra,40(sp)
   8194c:	df000915 	stw	fp,36(sp)
   81950:	df000904 	addi	fp,sp,36
   81954:	e13fff15 	stw	r4,-4(fp)
	INT16U min_value;
	INT16U max_value;
	INT16U * data_array;
	INT8U return_code = OS_NO_ERR;
   81958:	e03ffe05 	stb	zero,-8(fp)
	int size = 1000;
   8195c:	0080fa04 	movi	r2,1000
   81960:	e0bffb15 	stw	r2,-20(fp)
	int i_did_work = 0;
   81964:	e03ffa15 	stw	zero,-24(fp)
	INT16U hold;
	int i;
	int j;

	while (1) {
		printf("bubble_sort_1 wait for start\n");
   81968:	010002b4 	movhi	r4,10
   8196c:	2126ba04 	addi	r4,r4,-25880
   81970:	00829e00 	call	829e0 <puts>
		data_array = (INT16U *) OSMboxPend(MboxBubbleSortStart[1], 0,
   81974:	008002b4 	movhi	r2,10
   81978:	109a8004 	addi	r2,r2,27136
   8197c:	11000117 	ldw	r4,4(r2)
   81980:	e1bffe04 	addi	r6,fp,-8
   81984:	000b883a 	mov	r5,zero
   81988:	00915900 	call	91590 <OSMboxPend>
   8198c:	e0bffc15 	stw	r2,-16(fp)
				&return_code);
		alt_ucosii_check_return_code(return_code);
   81990:	e0bffe03 	ldbu	r2,-8(fp)
   81994:	11003fcc 	andi	r4,r2,255
   81998:	00804300 	call	80430 <alt_ucosii_check_return_code>
		printf("bubble_sort_1 started (%p)\n", data_array);
   8199c:	010002b4 	movhi	r4,10
   819a0:	2126c204 	addi	r4,r4,-25848
   819a4:	e17ffc17 	ldw	r5,-16(fp)
   819a8:	00828a40 	call	828a4 <printf>

		// Start performance counter
		PERF_BEGIN(performance_name, 1);
   819ac:	d0a00017 	ldw	r2,-32768(gp)
   819b0:	10800504 	addi	r2,r2,20
   819b4:	10000035 	stwio	zero,0(r2)

		for (i = 0; i < size; i++) {
   819b8:	e03ff815 	stw	zero,-32(fp)
   819bc:	00003e06 	br	81ab8 <bubble_sort_1+0x174>
			//printf("   Items compared: [ %d, %d ] ", data_array[i], data_array[i+1]);
			i_did_work = 0;
   819c0:	e03ffa15 	stw	zero,-24(fp)

			for (j = 0; j < size - 1; j++) {
   819c4:	e03ff715 	stw	zero,-36(fp)
   819c8:	00003106 	br	81a90 <bubble_sort_1+0x14c>
				//check if num is GREATER than current num, if yes, then swap them (BUBBLE UP)
				if (data_array[j] > data_array[j + 1]) {
   819cc:	e0bff717 	ldw	r2,-36(fp)
   819d0:	1085883a 	add	r2,r2,r2
   819d4:	1007883a 	mov	r3,r2
   819d8:	e0bffc17 	ldw	r2,-16(fp)
   819dc:	1885883a 	add	r2,r3,r2
   819e0:	1100000b 	ldhu	r4,0(r2)
   819e4:	e0bff717 	ldw	r2,-36(fp)
   819e8:	1085883a 	add	r2,r2,r2
   819ec:	1007883a 	mov	r3,r2
   819f0:	e0bffc17 	ldw	r2,-16(fp)
   819f4:	1885883a 	add	r2,r3,r2
   819f8:	10800084 	addi	r2,r2,2
   819fc:	1080000b 	ldhu	r2,0(r2)
   81a00:	20ffffcc 	andi	r3,r4,65535
   81a04:	10bfffcc 	andi	r2,r2,65535
   81a08:	10c01e2e 	bgeu	r2,r3,81a84 <bubble_sort_1+0x140>
					hold = data_array[j];
   81a0c:	e0bff717 	ldw	r2,-36(fp)
   81a10:	1085883a 	add	r2,r2,r2
   81a14:	1007883a 	mov	r3,r2
   81a18:	e0bffc17 	ldw	r2,-16(fp)
   81a1c:	1885883a 	add	r2,r3,r2
   81a20:	1080000b 	ldhu	r2,0(r2)
   81a24:	e0bff90d 	sth	r2,-28(fp)
					data_array[j] = data_array[j + 1];
   81a28:	e0bff717 	ldw	r2,-36(fp)
   81a2c:	1085883a 	add	r2,r2,r2
   81a30:	1007883a 	mov	r3,r2
   81a34:	e0bffc17 	ldw	r2,-16(fp)
   81a38:	1889883a 	add	r4,r3,r2
   81a3c:	e0bff717 	ldw	r2,-36(fp)
   81a40:	1085883a 	add	r2,r2,r2
   81a44:	1007883a 	mov	r3,r2
   81a48:	e0bffc17 	ldw	r2,-16(fp)
   81a4c:	1885883a 	add	r2,r3,r2
   81a50:	10800084 	addi	r2,r2,2
   81a54:	1080000b 	ldhu	r2,0(r2)
   81a58:	2080000d 	sth	r2,0(r4)
					data_array[j + 1] = hold;
   81a5c:	e0bff717 	ldw	r2,-36(fp)
   81a60:	1085883a 	add	r2,r2,r2
   81a64:	1007883a 	mov	r3,r2
   81a68:	e0bffc17 	ldw	r2,-16(fp)
   81a6c:	1885883a 	add	r2,r3,r2
   81a70:	10c00084 	addi	r3,r2,2
   81a74:	e0bff90b 	ldhu	r2,-28(fp)
   81a78:	1880000d 	sth	r2,0(r3)

					i_did_work = 1;
   81a7c:	00800044 	movi	r2,1
   81a80:	e0bffa15 	stw	r2,-24(fp)

		for (i = 0; i < size; i++) {
			//printf("   Items compared: [ %d, %d ] ", data_array[i], data_array[i+1]);
			i_did_work = 0;

			for (j = 0; j < size - 1; j++) {
   81a84:	e0bff717 	ldw	r2,-36(fp)
   81a88:	10800044 	addi	r2,r2,1
   81a8c:	e0bff715 	stw	r2,-36(fp)
   81a90:	e0bffb17 	ldw	r2,-20(fp)
   81a94:	10ffffc4 	addi	r3,r2,-1
   81a98:	e0bff717 	ldw	r2,-36(fp)
   81a9c:	10ffcb16 	blt	r2,r3,819cc <bubble_sort_1+0x88>
				//					break;
				//				}

				//printf("Iteration %d: ",(i+1));
			}
			if (i_did_work == 0) {
   81aa0:	e0bffa17 	ldw	r2,-24(fp)
   81aa4:	1005003a 	cmpeq	r2,r2,zero
   81aa8:	1000061e 	bne	r2,zero,81ac4 <bubble_sort_1+0x180>
		printf("bubble_sort_1 started (%p)\n", data_array);

		// Start performance counter
		PERF_BEGIN(performance_name, 1);

		for (i = 0; i < size; i++) {
   81aac:	e0bff817 	ldw	r2,-32(fp)
   81ab0:	10800044 	addi	r2,r2,1
   81ab4:	e0bff815 	stw	r2,-32(fp)
   81ab8:	e0fff817 	ldw	r3,-32(fp)
   81abc:	e0bffb17 	ldw	r2,-20(fp)
   81ac0:	18bfbf16 	blt	r3,r2,819c0 <bubble_sort_1+0x7c>
			}
		}

		//printf("The bubble sort function is complete\n");
		// Stop performance counter
		PERF_END(performance_name, 1);
   81ac4:	d0a00017 	ldw	r2,-32768(gp)
   81ac8:	10800404 	addi	r2,r2,16
   81acc:	10000035 	stwio	zero,0(r2)

		min_value = data_array[0];
   81ad0:	e0bffc17 	ldw	r2,-16(fp)
   81ad4:	1080000b 	ldhu	r2,0(r2)
   81ad8:	e0bffd8d 	sth	r2,-10(fp)
		max_value = data_array[999];
   81adc:	e0bffc17 	ldw	r2,-16(fp)
   81ae0:	1081f384 	addi	r2,r2,1998
   81ae4:	1080000b 	ldhu	r2,0(r2)
   81ae8:	e0bffd0d 	sth	r2,-12(fp)

		printf("bubble_sort_1  done (min: %d, max: %d)\n", min_value, max_value);
   81aec:	e17ffd8b 	ldhu	r5,-10(fp)
   81af0:	e1bffd0b 	ldhu	r6,-12(fp)
   81af4:	010002b4 	movhi	r4,10
   81af8:	2126c904 	addi	r4,r4,-25820
   81afc:	00828a40 	call	828a4 <printf>

		// Post the min value to the mailbox for other task
		return_code = OSMboxPost(MboxBubbleSortDone[1], (void *) (data_array));
   81b00:	008002f4 	movhi	r2,11
   81b04:	108af404 	addi	r2,r2,11216
   81b08:	11000117 	ldw	r4,4(r2)
   81b0c:	e17ffc17 	ldw	r5,-16(fp)
   81b10:	00919d40 	call	919d4 <OSMboxPost>
   81b14:	e0bffe05 	stb	r2,-8(fp)
		alt_ucosii_check_return_code(return_code);
   81b18:	e0bffe03 	ldbu	r2,-8(fp)
   81b1c:	11003fcc 	andi	r4,r2,255
   81b20:	00804300 	call	80430 <alt_ucosii_check_return_code>

		//		return_code = OSMboxPost(MboxFindMaxDone[0], (void *)(&max_value));
		//		alt_ucosii_check_return_code(return_code);

		OSTimeDlyHMSM(0, 0, 1, 0);
   81b24:	0009883a 	mov	r4,zero
   81b28:	000b883a 	mov	r5,zero
   81b2c:	01800044 	movi	r6,1
   81b30:	000f883a 	mov	r7,zero
   81b34:	00960580 	call	96058 <OSTimeDlyHMSM>
	}
   81b38:	003f8b06 	br	81968 <bubble_sort_1+0x24>

00081b3c <bubble_sort_2>:
}

void bubble_sort_2(void* pdata) {
   81b3c:	defff504 	addi	sp,sp,-44
   81b40:	dfc00a15 	stw	ra,40(sp)
   81b44:	df000915 	stw	fp,36(sp)
   81b48:	df000904 	addi	fp,sp,36
   81b4c:	e13fff15 	stw	r4,-4(fp)
	INT16U min_value;
	INT16U max_value;
	INT16U * data_array;
	INT8U return_code = OS_NO_ERR;
   81b50:	e03ffe05 	stb	zero,-8(fp)
	int size = 1000;
   81b54:	0080fa04 	movi	r2,1000
   81b58:	e0bffb15 	stw	r2,-20(fp)
	int i_did_work = 0;
   81b5c:	e03ffa15 	stw	zero,-24(fp)
	INT16U hold;
	int i;
	int j;

	while (1) {
		printf("bubble_sort_2 wait for start\n");
   81b60:	010002b4 	movhi	r4,10
   81b64:	2126d304 	addi	r4,r4,-25780
   81b68:	00829e00 	call	829e0 <puts>
		data_array = (INT16U *) OSMboxPend(MboxBubbleSortStart[2], 0,
   81b6c:	008002b4 	movhi	r2,10
   81b70:	109a8004 	addi	r2,r2,27136
   81b74:	11000217 	ldw	r4,8(r2)
   81b78:	e1bffe04 	addi	r6,fp,-8
   81b7c:	000b883a 	mov	r5,zero
   81b80:	00915900 	call	91590 <OSMboxPend>
   81b84:	e0bffc15 	stw	r2,-16(fp)
				&return_code);
		alt_ucosii_check_return_code(return_code);
   81b88:	e0bffe03 	ldbu	r2,-8(fp)
   81b8c:	11003fcc 	andi	r4,r2,255
   81b90:	00804300 	call	80430 <alt_ucosii_check_return_code>
		printf("bubble_sort_2 started (%p)\n", data_array);
   81b94:	010002b4 	movhi	r4,10
   81b98:	2126db04 	addi	r4,r4,-25748
   81b9c:	e17ffc17 	ldw	r5,-16(fp)
   81ba0:	00828a40 	call	828a4 <printf>

		// Start performance counter
		PERF_BEGIN(performance_name, 1);
   81ba4:	d0a00017 	ldw	r2,-32768(gp)
   81ba8:	10800504 	addi	r2,r2,20
   81bac:	10000035 	stwio	zero,0(r2)

		for (i = 0; i < size; i++) {
   81bb0:	e03ff815 	stw	zero,-32(fp)
   81bb4:	00003e06 	br	81cb0 <bubble_sort_2+0x174>
			//printf("   Items compared: [ %d, %d ] ", data_array[i], data_array[i+1]);
			i_did_work = 0;
   81bb8:	e03ffa15 	stw	zero,-24(fp)

			for (j = 0; j < size - 1; j++) {
   81bbc:	e03ff715 	stw	zero,-36(fp)
   81bc0:	00003106 	br	81c88 <bubble_sort_2+0x14c>
				//check if num is GREATER than current num, if yes, then swap them (BUBBLE UP)
				if (data_array[j] > data_array[j + 1]) {
   81bc4:	e0bff717 	ldw	r2,-36(fp)
   81bc8:	1085883a 	add	r2,r2,r2
   81bcc:	1007883a 	mov	r3,r2
   81bd0:	e0bffc17 	ldw	r2,-16(fp)
   81bd4:	1885883a 	add	r2,r3,r2
   81bd8:	1100000b 	ldhu	r4,0(r2)
   81bdc:	e0bff717 	ldw	r2,-36(fp)
   81be0:	1085883a 	add	r2,r2,r2
   81be4:	1007883a 	mov	r3,r2
   81be8:	e0bffc17 	ldw	r2,-16(fp)
   81bec:	1885883a 	add	r2,r3,r2
   81bf0:	10800084 	addi	r2,r2,2
   81bf4:	1080000b 	ldhu	r2,0(r2)
   81bf8:	20ffffcc 	andi	r3,r4,65535
   81bfc:	10bfffcc 	andi	r2,r2,65535
   81c00:	10c01e2e 	bgeu	r2,r3,81c7c <bubble_sort_2+0x140>
					hold = data_array[j];
   81c04:	e0bff717 	ldw	r2,-36(fp)
   81c08:	1085883a 	add	r2,r2,r2
   81c0c:	1007883a 	mov	r3,r2
   81c10:	e0bffc17 	ldw	r2,-16(fp)
   81c14:	1885883a 	add	r2,r3,r2
   81c18:	1080000b 	ldhu	r2,0(r2)
   81c1c:	e0bff90d 	sth	r2,-28(fp)
					data_array[j] = data_array[j + 1];
   81c20:	e0bff717 	ldw	r2,-36(fp)
   81c24:	1085883a 	add	r2,r2,r2
   81c28:	1007883a 	mov	r3,r2
   81c2c:	e0bffc17 	ldw	r2,-16(fp)
   81c30:	1889883a 	add	r4,r3,r2
   81c34:	e0bff717 	ldw	r2,-36(fp)
   81c38:	1085883a 	add	r2,r2,r2
   81c3c:	1007883a 	mov	r3,r2
   81c40:	e0bffc17 	ldw	r2,-16(fp)
   81c44:	1885883a 	add	r2,r3,r2
   81c48:	10800084 	addi	r2,r2,2
   81c4c:	1080000b 	ldhu	r2,0(r2)
   81c50:	2080000d 	sth	r2,0(r4)
					data_array[j + 1] = hold;
   81c54:	e0bff717 	ldw	r2,-36(fp)
   81c58:	1085883a 	add	r2,r2,r2
   81c5c:	1007883a 	mov	r3,r2
   81c60:	e0bffc17 	ldw	r2,-16(fp)
   81c64:	1885883a 	add	r2,r3,r2
   81c68:	10c00084 	addi	r3,r2,2
   81c6c:	e0bff90b 	ldhu	r2,-28(fp)
   81c70:	1880000d 	sth	r2,0(r3)

					i_did_work = 1;
   81c74:	00800044 	movi	r2,1
   81c78:	e0bffa15 	stw	r2,-24(fp)

		for (i = 0; i < size; i++) {
			//printf("   Items compared: [ %d, %d ] ", data_array[i], data_array[i+1]);
			i_did_work = 0;

			for (j = 0; j < size - 1; j++) {
   81c7c:	e0bff717 	ldw	r2,-36(fp)
   81c80:	10800044 	addi	r2,r2,1
   81c84:	e0bff715 	stw	r2,-36(fp)
   81c88:	e0bffb17 	ldw	r2,-20(fp)
   81c8c:	10ffffc4 	addi	r3,r2,-1
   81c90:	e0bff717 	ldw	r2,-36(fp)
   81c94:	10ffcb16 	blt	r2,r3,81bc4 <bubble_sort_2+0x88>
				//					break;
				//				}

				//printf("Iteration %d: ",(i+1));
			}
			if (i_did_work == 0) {
   81c98:	e0bffa17 	ldw	r2,-24(fp)
   81c9c:	1005003a 	cmpeq	r2,r2,zero
   81ca0:	1000061e 	bne	r2,zero,81cbc <bubble_sort_2+0x180>
		printf("bubble_sort_2 started (%p)\n", data_array);

		// Start performance counter
		PERF_BEGIN(performance_name, 1);

		for (i = 0; i < size; i++) {
   81ca4:	e0bff817 	ldw	r2,-32(fp)
   81ca8:	10800044 	addi	r2,r2,1
   81cac:	e0bff815 	stw	r2,-32(fp)
   81cb0:	e0fff817 	ldw	r3,-32(fp)
   81cb4:	e0bffb17 	ldw	r2,-20(fp)
   81cb8:	18bfbf16 	blt	r3,r2,81bb8 <bubble_sort_2+0x7c>
			}
		}

		//printf("The bubble sort function is complete\n");
		// Stop performance counter
		PERF_END(performance_name, 1);
   81cbc:	d0a00017 	ldw	r2,-32768(gp)
   81cc0:	10800404 	addi	r2,r2,16
   81cc4:	10000035 	stwio	zero,0(r2)

		min_value = data_array[0];
   81cc8:	e0bffc17 	ldw	r2,-16(fp)
   81ccc:	1080000b 	ldhu	r2,0(r2)
   81cd0:	e0bffd8d 	sth	r2,-10(fp)
		max_value = data_array[999];
   81cd4:	e0bffc17 	ldw	r2,-16(fp)
   81cd8:	1081f384 	addi	r2,r2,1998
   81cdc:	1080000b 	ldhu	r2,0(r2)
   81ce0:	e0bffd0d 	sth	r2,-12(fp)

		printf("bubble_sort_2  done (min: %d, max: %d)\n", min_value, max_value);
   81ce4:	e17ffd8b 	ldhu	r5,-10(fp)
   81ce8:	e1bffd0b 	ldhu	r6,-12(fp)
   81cec:	010002b4 	movhi	r4,10
   81cf0:	2126e204 	addi	r4,r4,-25720
   81cf4:	00828a40 	call	828a4 <printf>

		// Post the min value to the mailbox for other task
		return_code = OSMboxPost(MboxBubbleSortDone[2], (void *) (data_array));
   81cf8:	008002f4 	movhi	r2,11
   81cfc:	108af404 	addi	r2,r2,11216
   81d00:	11000217 	ldw	r4,8(r2)
   81d04:	e17ffc17 	ldw	r5,-16(fp)
   81d08:	00919d40 	call	919d4 <OSMboxPost>
   81d0c:	e0bffe05 	stb	r2,-8(fp)
		alt_ucosii_check_return_code(return_code);
   81d10:	e0bffe03 	ldbu	r2,-8(fp)
   81d14:	11003fcc 	andi	r4,r2,255
   81d18:	00804300 	call	80430 <alt_ucosii_check_return_code>

		//		return_code = OSMboxPost(MboxFindMaxDone[0], (void *)(&max_value));
		//		alt_ucosii_check_return_code(return_code);

		OSTimeDlyHMSM(0, 0, 1, 0);
   81d1c:	0009883a 	mov	r4,zero
   81d20:	000b883a 	mov	r5,zero
   81d24:	01800044 	movi	r6,1
   81d28:	000f883a 	mov	r7,zero
   81d2c:	00960580 	call	96058 <OSTimeDlyHMSM>
	}
   81d30:	003f8b06 	br	81b60 <bubble_sort_2+0x24>

00081d34 <bubble_sort_3>:
}

void bubble_sort_3(void* pdata) {
   81d34:	defff504 	addi	sp,sp,-44
   81d38:	dfc00a15 	stw	ra,40(sp)
   81d3c:	df000915 	stw	fp,36(sp)
   81d40:	df000904 	addi	fp,sp,36
   81d44:	e13fff15 	stw	r4,-4(fp)
	INT16U min_value;
	INT16U max_value;
	INT16U * data_array;
	INT8U return_code = OS_NO_ERR;
   81d48:	e03ffe05 	stb	zero,-8(fp)
	int size = 1000;
   81d4c:	0080fa04 	movi	r2,1000
   81d50:	e0bffb15 	stw	r2,-20(fp)
	int i_did_work = 0;
   81d54:	e03ffa15 	stw	zero,-24(fp)
	INT16U hold;
	int i;
	int j;

	while (1) {
		printf("bubble_sort_3 wait for start\n");
   81d58:	010002b4 	movhi	r4,10
   81d5c:	2126ec04 	addi	r4,r4,-25680
   81d60:	00829e00 	call	829e0 <puts>
		data_array = (INT16U *) OSMboxPend(MboxBubbleSortStart[3], 0,
   81d64:	008002b4 	movhi	r2,10
   81d68:	109a8004 	addi	r2,r2,27136
   81d6c:	11000317 	ldw	r4,12(r2)
   81d70:	e1bffe04 	addi	r6,fp,-8
   81d74:	000b883a 	mov	r5,zero
   81d78:	00915900 	call	91590 <OSMboxPend>
   81d7c:	e0bffc15 	stw	r2,-16(fp)
				&return_code);
		alt_ucosii_check_return_code(return_code);
   81d80:	e0bffe03 	ldbu	r2,-8(fp)
   81d84:	11003fcc 	andi	r4,r2,255
   81d88:	00804300 	call	80430 <alt_ucosii_check_return_code>
		printf("bubble_sort_3 started (%p)\n", data_array);
   81d8c:	010002b4 	movhi	r4,10
   81d90:	2126f404 	addi	r4,r4,-25648
   81d94:	e17ffc17 	ldw	r5,-16(fp)
   81d98:	00828a40 	call	828a4 <printf>

		// Start performance counter
		PERF_BEGIN(performance_name, 1);
   81d9c:	d0a00017 	ldw	r2,-32768(gp)
   81da0:	10800504 	addi	r2,r2,20
   81da4:	10000035 	stwio	zero,0(r2)

		for (i = 0; i < size; i++) {
   81da8:	e03ff815 	stw	zero,-32(fp)
   81dac:	00003e06 	br	81ea8 <bubble_sort_3+0x174>
			//printf("   Items compared: [ %d, %d ] ", data_array[i], data_array[i+1]);
			i_did_work = 0;
   81db0:	e03ffa15 	stw	zero,-24(fp)

			for (j = 0; j < size - 1; j++) {
   81db4:	e03ff715 	stw	zero,-36(fp)
   81db8:	00003106 	br	81e80 <bubble_sort_3+0x14c>
				//check if num is GREATER than current num, if yes, then swap them (BUBBLE UP)
				if (data_array[j] > data_array[j + 1]) {
   81dbc:	e0bff717 	ldw	r2,-36(fp)
   81dc0:	1085883a 	add	r2,r2,r2
   81dc4:	1007883a 	mov	r3,r2
   81dc8:	e0bffc17 	ldw	r2,-16(fp)
   81dcc:	1885883a 	add	r2,r3,r2
   81dd0:	1100000b 	ldhu	r4,0(r2)
   81dd4:	e0bff717 	ldw	r2,-36(fp)
   81dd8:	1085883a 	add	r2,r2,r2
   81ddc:	1007883a 	mov	r3,r2
   81de0:	e0bffc17 	ldw	r2,-16(fp)
   81de4:	1885883a 	add	r2,r3,r2
   81de8:	10800084 	addi	r2,r2,2
   81dec:	1080000b 	ldhu	r2,0(r2)
   81df0:	20ffffcc 	andi	r3,r4,65535
   81df4:	10bfffcc 	andi	r2,r2,65535
   81df8:	10c01e2e 	bgeu	r2,r3,81e74 <bubble_sort_3+0x140>
					hold = data_array[j];
   81dfc:	e0bff717 	ldw	r2,-36(fp)
   81e00:	1085883a 	add	r2,r2,r2
   81e04:	1007883a 	mov	r3,r2
   81e08:	e0bffc17 	ldw	r2,-16(fp)
   81e0c:	1885883a 	add	r2,r3,r2
   81e10:	1080000b 	ldhu	r2,0(r2)
   81e14:	e0bff90d 	sth	r2,-28(fp)
					data_array[j] = data_array[j + 1];
   81e18:	e0bff717 	ldw	r2,-36(fp)
   81e1c:	1085883a 	add	r2,r2,r2
   81e20:	1007883a 	mov	r3,r2
   81e24:	e0bffc17 	ldw	r2,-16(fp)
   81e28:	1889883a 	add	r4,r3,r2
   81e2c:	e0bff717 	ldw	r2,-36(fp)
   81e30:	1085883a 	add	r2,r2,r2
   81e34:	1007883a 	mov	r3,r2
   81e38:	e0bffc17 	ldw	r2,-16(fp)
   81e3c:	1885883a 	add	r2,r3,r2
   81e40:	10800084 	addi	r2,r2,2
   81e44:	1080000b 	ldhu	r2,0(r2)
   81e48:	2080000d 	sth	r2,0(r4)
					data_array[j + 1] = hold;
   81e4c:	e0bff717 	ldw	r2,-36(fp)
   81e50:	1085883a 	add	r2,r2,r2
   81e54:	1007883a 	mov	r3,r2
   81e58:	e0bffc17 	ldw	r2,-16(fp)
   81e5c:	1885883a 	add	r2,r3,r2
   81e60:	10c00084 	addi	r3,r2,2
   81e64:	e0bff90b 	ldhu	r2,-28(fp)
   81e68:	1880000d 	sth	r2,0(r3)

					i_did_work = 1;
   81e6c:	00800044 	movi	r2,1
   81e70:	e0bffa15 	stw	r2,-24(fp)

		for (i = 0; i < size; i++) {
			//printf("   Items compared: [ %d, %d ] ", data_array[i], data_array[i+1]);
			i_did_work = 0;

			for (j = 0; j < size - 1; j++) {
   81e74:	e0bff717 	ldw	r2,-36(fp)
   81e78:	10800044 	addi	r2,r2,1
   81e7c:	e0bff715 	stw	r2,-36(fp)
   81e80:	e0bffb17 	ldw	r2,-20(fp)
   81e84:	10ffffc4 	addi	r3,r2,-1
   81e88:	e0bff717 	ldw	r2,-36(fp)
   81e8c:	10ffcb16 	blt	r2,r3,81dbc <bubble_sort_3+0x88>
				//					break;
				//				}

				//printf("Iteration %d: ",(i+1));
			}
			if (i_did_work == 0) {
   81e90:	e0bffa17 	ldw	r2,-24(fp)
   81e94:	1005003a 	cmpeq	r2,r2,zero
   81e98:	1000061e 	bne	r2,zero,81eb4 <bubble_sort_3+0x180>
		printf("bubble_sort_3 started (%p)\n", data_array);

		// Start performance counter
		PERF_BEGIN(performance_name, 1);

		for (i = 0; i < size; i++) {
   81e9c:	e0bff817 	ldw	r2,-32(fp)
   81ea0:	10800044 	addi	r2,r2,1
   81ea4:	e0bff815 	stw	r2,-32(fp)
   81ea8:	e0fff817 	ldw	r3,-32(fp)
   81eac:	e0bffb17 	ldw	r2,-20(fp)
   81eb0:	18bfbf16 	blt	r3,r2,81db0 <bubble_sort_3+0x7c>
			}
		}

		//printf("The bubble sort function is complete\n");
		// Stop performance counter
		PERF_END(performance_name, 1);
   81eb4:	d0a00017 	ldw	r2,-32768(gp)
   81eb8:	10800404 	addi	r2,r2,16
   81ebc:	10000035 	stwio	zero,0(r2)

		min_value = data_array[0];
   81ec0:	e0bffc17 	ldw	r2,-16(fp)
   81ec4:	1080000b 	ldhu	r2,0(r2)
   81ec8:	e0bffd8d 	sth	r2,-10(fp)
		max_value = data_array[999];
   81ecc:	e0bffc17 	ldw	r2,-16(fp)
   81ed0:	1081f384 	addi	r2,r2,1998
   81ed4:	1080000b 	ldhu	r2,0(r2)
   81ed8:	e0bffd0d 	sth	r2,-12(fp)

		printf("bubble_sort_3  done (min: %d, max: %d)\n", min_value, max_value);
   81edc:	e17ffd8b 	ldhu	r5,-10(fp)
   81ee0:	e1bffd0b 	ldhu	r6,-12(fp)
   81ee4:	010002b4 	movhi	r4,10
   81ee8:	2126fb04 	addi	r4,r4,-25620
   81eec:	00828a40 	call	828a4 <printf>

		// Post the min value to the mailbox for other task
		return_code = OSMboxPost(MboxBubbleSortDone[3], (void *) (data_array));
   81ef0:	008002f4 	movhi	r2,11
   81ef4:	108af404 	addi	r2,r2,11216
   81ef8:	11000317 	ldw	r4,12(r2)
   81efc:	e17ffc17 	ldw	r5,-16(fp)
   81f00:	00919d40 	call	919d4 <OSMboxPost>
   81f04:	e0bffe05 	stb	r2,-8(fp)
		alt_ucosii_check_return_code(return_code);
   81f08:	e0bffe03 	ldbu	r2,-8(fp)
   81f0c:	11003fcc 	andi	r4,r2,255
   81f10:	00804300 	call	80430 <alt_ucosii_check_return_code>

		//		return_code = OSMboxPost(MboxFindMaxDone[0], (void *)(&max_value));
		//		alt_ucosii_check_return_code(return_code);

		OSTimeDlyHMSM(0, 0, 1, 0);
   81f14:	0009883a 	mov	r4,zero
   81f18:	000b883a 	mov	r5,zero
   81f1c:	01800044 	movi	r6,1
   81f20:	000f883a 	mov	r7,zero
   81f24:	00960580 	call	96058 <OSTimeDlyHMSM>
	}
   81f28:	003f8b06 	br	81d58 <bubble_sort_3+0x24>

00081f2c <merge_sort>:
}

void merge_sort(void* pdata) {
   81f2c:	deffef04 	addi	sp,sp,-68
   81f30:	dfc01015 	stw	ra,64(sp)
   81f34:	df000f15 	stw	fp,60(sp)
   81f38:	df000f04 	addi	fp,sp,60
   81f3c:	e13fff15 	stw	r4,-4(fp)
	//just a bubble sort
	int i = 0, j = 0;
   81f40:	e03ffd15 	stw	zero,-12(fp)
   81f44:	e03ffc15 	stw	zero,-16(fp)
	INT8U return_code = OS_NO_ERR;
   81f48:	e03ffe05 	stb	zero,-8(fp)
	INT16U *arr0, *arr1, *arr2, *arr3;
	INT16U *finalarr;
	int arr0_size = 1000, arr1_size = 1000, finalarr_size = 4000;
   81f4c:	0080fa04 	movi	r2,1000
   81f50:	e0bff615 	stw	r2,-40(fp)
   81f54:	0080fa04 	movi	r2,1000
   81f58:	e0bff515 	stw	r2,-44(fp)
   81f5c:	0083e804 	movi	r2,4000
   81f60:	e0bff415 	stw	r2,-48(fp)
	int i_did_work = 0;
   81f64:	e03ff315 	stw	zero,-52(fp)
	INT16U hold;
	INT16U min_value, max_value;

	//for (i = 0; i < 3; i++) {
	arr0 = (INT16U *) OSMboxPend(MboxBubbleSortDone[0], 0, &return_code);
   81f68:	008002f4 	movhi	r2,11
   81f6c:	108af404 	addi	r2,r2,11216
   81f70:	11000017 	ldw	r4,0(r2)
   81f74:	e1bffe04 	addi	r6,fp,-8
   81f78:	000b883a 	mov	r5,zero
   81f7c:	00915900 	call	91590 <OSMboxPend>
   81f80:	e0bffb15 	stw	r2,-20(fp)
	alt_ucosii_check_return_code(return_code);
   81f84:	e0bffe03 	ldbu	r2,-8(fp)
   81f88:	11003fcc 	andi	r4,r2,255
   81f8c:	00804300 	call	80430 <alt_ucosii_check_return_code>

	arr1 = (INT16U *) OSMboxPend(MboxBubbleSortDone[1], 0, &return_code);
   81f90:	008002f4 	movhi	r2,11
   81f94:	108af404 	addi	r2,r2,11216
   81f98:	11000117 	ldw	r4,4(r2)
   81f9c:	e1bffe04 	addi	r6,fp,-8
   81fa0:	000b883a 	mov	r5,zero
   81fa4:	00915900 	call	91590 <OSMboxPend>
   81fa8:	e0bffa15 	stw	r2,-24(fp)
	alt_ucosii_check_return_code(return_code);
   81fac:	e0bffe03 	ldbu	r2,-8(fp)
   81fb0:	11003fcc 	andi	r4,r2,255
   81fb4:	00804300 	call	80430 <alt_ucosii_check_return_code>

	arr2 = (INT16U *) OSMboxPend(MboxBubbleSortDone[2], 0, &return_code);
   81fb8:	008002f4 	movhi	r2,11
   81fbc:	108af404 	addi	r2,r2,11216
   81fc0:	11000217 	ldw	r4,8(r2)
   81fc4:	e1bffe04 	addi	r6,fp,-8
   81fc8:	000b883a 	mov	r5,zero
   81fcc:	00915900 	call	91590 <OSMboxPend>
   81fd0:	e0bff915 	stw	r2,-28(fp)
	alt_ucosii_check_return_code(return_code);
   81fd4:	e0bffe03 	ldbu	r2,-8(fp)
   81fd8:	11003fcc 	andi	r4,r2,255
   81fdc:	00804300 	call	80430 <alt_ucosii_check_return_code>

	arr3 = (INT16U *) OSMboxPend(MboxBubbleSortDone[3], 0, &return_code);
   81fe0:	008002f4 	movhi	r2,11
   81fe4:	108af404 	addi	r2,r2,11216
   81fe8:	11000317 	ldw	r4,12(r2)
   81fec:	e1bffe04 	addi	r6,fp,-8
   81ff0:	000b883a 	mov	r5,zero
   81ff4:	00915900 	call	91590 <OSMboxPend>
   81ff8:	e0bff815 	stw	r2,-32(fp)
	alt_ucosii_check_return_code(return_code);
   81ffc:	e0bffe03 	ldbu	r2,-8(fp)
   82000:	11003fcc 	andi	r4,r2,255
   82004:	00804300 	call	80430 <alt_ucosii_check_return_code>

	//}

	finalarr = arr0;
   82008:	e0bffb17 	ldw	r2,-20(fp)
   8200c:	e0bff715 	stw	r2,-36(fp)

	printf("\nTHE MERGE HAS BEGUN!\n");
   82010:	010002b4 	movhi	r4,10
   82014:	21270504 	addi	r4,r4,-25580
   82018:	00829e00 	call	829e0 <puts>

	PERF_BEGIN(performance_name,2);
   8201c:	d0a00017 	ldw	r2,-32768(gp)
   82020:	10800904 	addi	r2,r2,36
   82024:	10000035 	stwio	zero,0(r2)
	for (i = 0; i < finalarr_size; i++) {
   82028:	e03ffd15 	stw	zero,-12(fp)
   8202c:	00003e06 	br	82128 <merge_sort+0x1fc>
		//printf("   Items compared: [ %d, %d ] ", data_array[i], data_array[i+1]);
		i_did_work = 0;
   82030:	e03ff315 	stw	zero,-52(fp)

		for (j = 0; j < finalarr_size - 1; j++) {
   82034:	e03ffc15 	stw	zero,-16(fp)
   82038:	00003106 	br	82100 <merge_sort+0x1d4>
			//check if num is GREATER than current num, if yes, then swap them (BUBBLE UP)
			if (finalarr[j] > finalarr[j + 1]) {
   8203c:	e0bffc17 	ldw	r2,-16(fp)
   82040:	1085883a 	add	r2,r2,r2
   82044:	1007883a 	mov	r3,r2
   82048:	e0bff717 	ldw	r2,-36(fp)
   8204c:	1885883a 	add	r2,r3,r2
   82050:	1100000b 	ldhu	r4,0(r2)
   82054:	e0bffc17 	ldw	r2,-16(fp)
   82058:	1085883a 	add	r2,r2,r2
   8205c:	1007883a 	mov	r3,r2
   82060:	e0bff717 	ldw	r2,-36(fp)
   82064:	1885883a 	add	r2,r3,r2
   82068:	10800084 	addi	r2,r2,2
   8206c:	1080000b 	ldhu	r2,0(r2)
   82070:	20ffffcc 	andi	r3,r4,65535
   82074:	10bfffcc 	andi	r2,r2,65535
   82078:	10c01e2e 	bgeu	r2,r3,820f4 <merge_sort+0x1c8>
				hold = finalarr[j];
   8207c:	e0bffc17 	ldw	r2,-16(fp)
   82080:	1085883a 	add	r2,r2,r2
   82084:	1007883a 	mov	r3,r2
   82088:	e0bff717 	ldw	r2,-36(fp)
   8208c:	1885883a 	add	r2,r3,r2
   82090:	1080000b 	ldhu	r2,0(r2)
   82094:	e0bff20d 	sth	r2,-56(fp)
				finalarr[j] = finalarr[j + 1];
   82098:	e0bffc17 	ldw	r2,-16(fp)
   8209c:	1085883a 	add	r2,r2,r2
   820a0:	1007883a 	mov	r3,r2
   820a4:	e0bff717 	ldw	r2,-36(fp)
   820a8:	1889883a 	add	r4,r3,r2
   820ac:	e0bffc17 	ldw	r2,-16(fp)
   820b0:	1085883a 	add	r2,r2,r2
   820b4:	1007883a 	mov	r3,r2
   820b8:	e0bff717 	ldw	r2,-36(fp)
   820bc:	1885883a 	add	r2,r3,r2
   820c0:	10800084 	addi	r2,r2,2
   820c4:	1080000b 	ldhu	r2,0(r2)
   820c8:	2080000d 	sth	r2,0(r4)
				finalarr[j + 1] = hold;
   820cc:	e0bffc17 	ldw	r2,-16(fp)
   820d0:	1085883a 	add	r2,r2,r2
   820d4:	1007883a 	mov	r3,r2
   820d8:	e0bff717 	ldw	r2,-36(fp)
   820dc:	1885883a 	add	r2,r3,r2
   820e0:	10c00084 	addi	r3,r2,2
   820e4:	e0bff20b 	ldhu	r2,-56(fp)
   820e8:	1880000d 	sth	r2,0(r3)

				i_did_work = 1;
   820ec:	00800044 	movi	r2,1
   820f0:	e0bff315 	stw	r2,-52(fp)
	PERF_BEGIN(performance_name,2);
	for (i = 0; i < finalarr_size; i++) {
		//printf("   Items compared: [ %d, %d ] ", data_array[i], data_array[i+1]);
		i_did_work = 0;

		for (j = 0; j < finalarr_size - 1; j++) {
   820f4:	e0bffc17 	ldw	r2,-16(fp)
   820f8:	10800044 	addi	r2,r2,1
   820fc:	e0bffc15 	stw	r2,-16(fp)
   82100:	e0bff417 	ldw	r2,-48(fp)
   82104:	10ffffc4 	addi	r3,r2,-1
   82108:	e0bffc17 	ldw	r2,-16(fp)
   8210c:	10ffcb16 	blt	r2,r3,8203c <merge_sort+0x110>
			}

			//printf("Iteration %d: ",(i+1));
		}

		if (i_did_work == 0) {
   82110:	e0bff317 	ldw	r2,-52(fp)
   82114:	1005003a 	cmpeq	r2,r2,zero
   82118:	1000061e 	bne	r2,zero,82134 <merge_sort+0x208>
	finalarr = arr0;

	printf("\nTHE MERGE HAS BEGUN!\n");

	PERF_BEGIN(performance_name,2);
	for (i = 0; i < finalarr_size; i++) {
   8211c:	e0bffd17 	ldw	r2,-12(fp)
   82120:	10800044 	addi	r2,r2,1
   82124:	e0bffd15 	stw	r2,-12(fp)
   82128:	e0fffd17 	ldw	r3,-12(fp)
   8212c:	e0bff417 	ldw	r2,-48(fp)
   82130:	18bfbf16 	blt	r3,r2,82030 <merge_sort+0x104>
		if (i_did_work == 0) {
			break;
		}

	}
	PERF_END(performance_name,2);
   82134:	d0a00017 	ldw	r2,-32768(gp)
   82138:	10800804 	addi	r2,r2,32
   8213c:	10000035 	stwio	zero,0(r2)

	min_value = finalarr[0];
   82140:	e0bff717 	ldw	r2,-36(fp)
   82144:	1080000b 	ldhu	r2,0(r2)
   82148:	e0bff18d 	sth	r2,-58(fp)
	max_value = finalarr[3999];
   8214c:	e0bff717 	ldw	r2,-36(fp)
   82150:	1087cf84 	addi	r2,r2,7998
   82154:	1080000b 	ldhu	r2,0(r2)
   82158:	e0bff10d 	sth	r2,-60(fp)

	printf(
   8215c:	e17ff18b 	ldhu	r5,-58(fp)
   82160:	e1bff10b 	ldhu	r6,-60(fp)
   82164:	010002b4 	movhi	r4,10
   82168:	21270b04 	addi	r4,r4,-25556
   8216c:	00828a40 	call	828a4 <printf>
			"MERGE SORT DONE(lol jk its just a big bubble sort) (min: %d, max: %d)\n",
			min_value, max_value);

	// Post the min value to the mailbox for other task
	return_code = OSMboxPost(MboxMergeSortDone, (void *) (finalarr));
   82170:	d126f617 	ldw	r4,-25640(gp)
   82174:	e17ff717 	ldw	r5,-36(fp)
   82178:	00919d40 	call	919d4 <OSMboxPost>
   8217c:	e0bffe05 	stb	r2,-8(fp)
	alt_ucosii_check_return_code(return_code);
   82180:	e0bffe03 	ldbu	r2,-8(fp)
   82184:	11003fcc 	andi	r4,r2,255
   82188:	00804300 	call	80430 <alt_ucosii_check_return_code>


	//		return_code = OSMboxPost(MboxFindMaxDone[0], (void *)(&max_value));
	//		alt_ucosii_check_return_code(return_code);

	OSTimeDlyHMSM(0, 0, 1, 0);
   8218c:	0009883a 	mov	r4,zero
   82190:	000b883a 	mov	r5,zero
   82194:	01800044 	movi	r6,1
   82198:	000f883a 	mov	r7,zero
   8219c:	00960580 	call	96058 <OSTimeDlyHMSM>

}
   821a0:	e037883a 	mov	sp,fp
   821a4:	dfc00117 	ldw	ra,4(sp)
   821a8:	df000017 	ldw	fp,0(sp)
   821ac:	dec00204 	addi	sp,sp,8
   821b0:	f800283a 	ret

000821b4 <task_launcher>:

// Task launcher
// It creates all the custom tasks
// And then it deletes itself
void task_launcher(void *pdata) {
   821b4:	defff404 	addi	sp,sp,-48
   821b8:	dfc00b15 	stw	ra,44(sp)
   821bc:	df000a15 	stw	fp,40(sp)
   821c0:	df000a04 	addi	fp,sp,40
   821c4:	e13fff15 	stw	r4,-4(fp)
	INT8U return_code = OS_NO_ERR;
   821c8:	e03ffe05 	stb	zero,-8(fp)

#if OS_CRITICAL_METHOD == 3
	OS_CPU_SR cpu_sr;
#endif

	printf("Starting task launcher...\n");
   821cc:	010002b4 	movhi	r4,10
   821d0:	21271d04 	addi	r4,r4,-25484
   821d4:	00829e00 	call	829e0 <puts>
static ALT_INLINE alt_irq_context ALT_ALWAYS_INLINE 
       alt_irq_disable_all (void)
{
  alt_irq_context context;

  NIOS2_READ_STATUS (context);
   821d8:	0005303a 	rdctl	r2,status
   821dc:	e0bffc15 	stw	r2,-16(fp)

  NIOS2_WRITE_STATUS (context & ~NIOS2_STATUS_PIE_MSK);
   821e0:	e0fffc17 	ldw	r3,-16(fp)
   821e4:	00bfff84 	movi	r2,-2
   821e8:	1884703a 	and	r2,r3,r2
   821ec:	1001703a 	wrctl	status,r2
  
  return context;
   821f0:	e0bffc17 	ldw	r2,-16(fp)
	while (1) {
		OS_ENTER_CRITICAL();
   821f4:	e0bffd15 	stw	r2,-12(fp)
		printf("Creating tasks...\n");
   821f8:	010002b4 	movhi	r4,10
   821fc:	21272404 	addi	r4,r4,-25456
   82200:	00829e00 	call	829e0 <puts>

		return_code
   82204:	018002f4 	movhi	r6,11
   82208:	318af304 	addi	r6,r6,11212
   8220c:	00800184 	movi	r2,6
   82210:	d8800015 	stw	r2,0(sp)
   82214:	008002f4 	movhi	r2,11
   82218:	1082f404 	addi	r2,r2,3024
   8221c:	d8800115 	stw	r2,4(sp)
   82220:	00820004 	movi	r2,2048
   82224:	d8800215 	stw	r2,8(sp)
   82228:	008002f4 	movhi	r2,11
   8222c:	109af804 	addi	r2,r2,27616
   82230:	d8800315 	stw	r2,12(sp)
   82234:	d8000415 	stw	zero,16(sp)
   82238:	01000234 	movhi	r4,8
   8223c:	21033904 	addi	r4,r4,3300
   82240:	000b883a 	mov	r5,zero
   82244:	01c00184 	movi	r7,6
   82248:	0094c140 	call	94c14 <OSTaskCreateExt>
   8224c:	e0bffe05 	stb	r2,-8(fp)
				= OSTaskCreateExt(sorting, NULL,
						(void *) &sorting_stk[TASK_STACKSIZE - 1],
						SORTING_PRIORITY, SORTING_PRIORITY, &sorting_stk,
						TASK_STACKSIZE, &sorting_tcb, 0);
		alt_ucosii_check_return_code(return_code);
   82250:	e13ffe03 	ldbu	r4,-8(fp)
   82254:	00804300 	call	80430 <alt_ucosii_check_return_code>

		///CREATE ARRAY GENERATION TASKS

		return_code = OSTaskCreateExt(gen_array_0, NULL,
   82258:	008002b4 	movhi	r2,10
   8225c:	10ba7c04 	addi	r2,r2,-5648
   82260:	1187ff04 	addi	r6,r2,8188
   82264:	00c002b4 	movhi	r3,10
   82268:	18fa7c04 	addi	r3,r3,-5648
   8226c:	008001c4 	movi	r2,7
   82270:	d8800015 	stw	r2,0(sp)
   82274:	d8c00115 	stw	r3,4(sp)
   82278:	00820004 	movi	r2,2048
   8227c:	d8800215 	stw	r2,8(sp)
   82280:	008002b4 	movhi	r2,10
   82284:	10b9f504 	addi	r2,r2,-6188
   82288:	d8800315 	stw	r2,12(sp)
   8228c:	d8000415 	stw	zero,16(sp)
   82290:	01000234 	movhi	r4,8
   82294:	2103ea04 	addi	r4,r4,4008
   82298:	000b883a 	mov	r5,zero
   8229c:	01c001c4 	movi	r7,7
   822a0:	0094c140 	call	94c14 <OSTaskCreateExt>
   822a4:	e0bffe05 	stb	r2,-8(fp)
				(void *) &gen_array_stk[0][TASK_STACKSIZE - 1],
				GEN_ARRAY_0_PRIORITY, GEN_ARRAY_0_PRIORITY,
				&gen_array_stk[0][0], TASK_STACKSIZE, &gen_array_tcb[0], 0);
		alt_ucosii_check_return_code(return_code);
   822a8:	e13ffe03 	ldbu	r4,-8(fp)
   822ac:	00804300 	call	80430 <alt_ucosii_check_return_code>

		return_code = OSTaskCreateExt(gen_array_1, NULL,
   822b0:	008002b4 	movhi	r2,10
   822b4:	10ba7c04 	addi	r2,r2,-5648
   822b8:	118fff04 	addi	r6,r2,16380
   822bc:	008002b4 	movhi	r2,10
   822c0:	10827c04 	addi	r2,r2,2544
   822c4:	1007883a 	mov	r3,r2
   822c8:	010002b4 	movhi	r4,10
   822cc:	213a1004 	addi	r4,r4,-6080
   822d0:	00800204 	movi	r2,8
   822d4:	d8800015 	stw	r2,0(sp)
   822d8:	d8c00115 	stw	r3,4(sp)
   822dc:	00820004 	movi	r2,2048
   822e0:	d8800215 	stw	r2,8(sp)
   822e4:	d9000315 	stw	r4,12(sp)
   822e8:	d8000415 	stw	zero,16(sp)
   822ec:	01000234 	movhi	r4,8
   822f0:	21046104 	addi	r4,r4,4484
   822f4:	000b883a 	mov	r5,zero
   822f8:	01c00204 	movi	r7,8
   822fc:	0094c140 	call	94c14 <OSTaskCreateExt>
   82300:	e0bffe05 	stb	r2,-8(fp)
				(void *) &gen_array_stk[1][TASK_STACKSIZE - 1],
				GEN_ARRAY_1_PRIORITY, GEN_ARRAY_1_PRIORITY,
				&gen_array_stk[1][0], TASK_STACKSIZE, &gen_array_tcb[1], 0);
		alt_ucosii_check_return_code(return_code);
   82304:	e13ffe03 	ldbu	r4,-8(fp)
   82308:	00804300 	call	80430 <alt_ucosii_check_return_code>

		//GEN_ARRAY_2_PRIORITY


		return_code = OSTaskCreateExt(gen_array_2, NULL,
   8230c:	008002b4 	movhi	r2,10
   82310:	10ba7c04 	addi	r2,r2,-5648
   82314:	1197ff04 	addi	r6,r2,24572
   82318:	008002b4 	movhi	r2,10
   8231c:	108a7c04 	addi	r2,r2,10736
   82320:	1007883a 	mov	r3,r2
   82324:	010002b4 	movhi	r4,10
   82328:	213a2b04 	addi	r4,r4,-5972
   8232c:	00800244 	movi	r2,9
   82330:	d8800015 	stw	r2,0(sp)
   82334:	d8c00115 	stw	r3,4(sp)
   82338:	00820004 	movi	r2,2048
   8233c:	d8800215 	stw	r2,8(sp)
   82340:	d9000315 	stw	r4,12(sp)
   82344:	d8000415 	stw	zero,16(sp)
   82348:	01000234 	movhi	r4,8
   8234c:	2104da04 	addi	r4,r4,4968
   82350:	000b883a 	mov	r5,zero
   82354:	01c00244 	movi	r7,9
   82358:	0094c140 	call	94c14 <OSTaskCreateExt>
   8235c:	e0bffe05 	stb	r2,-8(fp)
				(void *) &gen_array_stk[2][TASK_STACKSIZE - 1],
				GEN_ARRAY_2_PRIORITY, GEN_ARRAY_2_PRIORITY,
				&gen_array_stk[2][0], TASK_STACKSIZE, &gen_array_tcb[2], 0);
		alt_ucosii_check_return_code(return_code);
   82360:	e13ffe03 	ldbu	r4,-8(fp)
   82364:	00804300 	call	80430 <alt_ucosii_check_return_code>

		return_code = OSTaskCreateExt(gen_array_3, NULL,
   82368:	008002b4 	movhi	r2,10
   8236c:	10ba7c04 	addi	r2,r2,-5648
   82370:	119fff04 	addi	r6,r2,32764
   82374:	008002b4 	movhi	r2,10
   82378:	10927c04 	addi	r2,r2,18928
   8237c:	1007883a 	mov	r3,r2
   82380:	010002b4 	movhi	r4,10
   82384:	213a4604 	addi	r4,r4,-5864
   82388:	00800284 	movi	r2,10
   8238c:	d8800015 	stw	r2,0(sp)
   82390:	d8c00115 	stw	r3,4(sp)
   82394:	00820004 	movi	r2,2048
   82398:	d8800215 	stw	r2,8(sp)
   8239c:	d9000315 	stw	r4,12(sp)
   823a0:	d8000415 	stw	zero,16(sp)
   823a4:	01000234 	movhi	r4,8
   823a8:	21055304 	addi	r4,r4,5452
   823ac:	000b883a 	mov	r5,zero
   823b0:	01c00284 	movi	r7,10
   823b4:	0094c140 	call	94c14 <OSTaskCreateExt>
   823b8:	e0bffe05 	stb	r2,-8(fp)
				(void *) &gen_array_stk[3][TASK_STACKSIZE - 1],
				GEN_ARRAY_3_PRIORITY, GEN_ARRAY_3_PRIORITY,
				&gen_array_stk[3][0], TASK_STACKSIZE, &gen_array_tcb[3], 0);
		alt_ucosii_check_return_code(return_code);
   823bc:	e13ffe03 	ldbu	r4,-8(fp)
   823c0:	00804300 	call	80430 <alt_ucosii_check_return_code>

		//CREATE BUBBLE SORT TASKS
		return_code = OSTaskCreateExt(bubble_sort_0, NULL,
   823c4:	008002b4 	movhi	r2,10
   823c8:	109af404 	addi	r2,r2,27600
   823cc:	1187ff04 	addi	r6,r2,8188
   823d0:	00c002b4 	movhi	r3,10
   823d4:	18daf404 	addi	r3,r3,27600
   823d8:	008002c4 	movi	r2,11
   823dc:	d8800015 	stw	r2,0(sp)
   823e0:	d8c00115 	stw	r3,4(sp)
   823e4:	00820004 	movi	r2,2048
   823e8:	d8800215 	stw	r2,8(sp)
   823ec:	008002b4 	movhi	r2,10
   823f0:	109a8804 	addi	r2,r2,27168
   823f4:	d8800315 	stw	r2,12(sp)
   823f8:	d8000415 	stw	zero,16(sp)
   823fc:	01000234 	movhi	r4,8
   82400:	2105cd04 	addi	r4,r4,5940
   82404:	000b883a 	mov	r5,zero
   82408:	01c002c4 	movi	r7,11
   8240c:	0094c140 	call	94c14 <OSTaskCreateExt>
   82410:	e0bffe05 	stb	r2,-8(fp)
				(void *) &bubble_sort_stk[0][TASK_STACKSIZE - 1],
				BUBBLE_SORT_0_PRIORITY, BUBBLE_SORT_0_PRIORITY,
				&bubble_sort_stk[0][0], TASK_STACKSIZE, &bubble_sort_tcb[0], 0);
		alt_ucosii_check_return_code(return_code);
   82414:	e13ffe03 	ldbu	r4,-8(fp)
   82418:	00804300 	call	80430 <alt_ucosii_check_return_code>

		return_code = OSTaskCreateExt(bubble_sort_1, NULL,
   8241c:	008002b4 	movhi	r2,10
   82420:	109af404 	addi	r2,r2,27600
   82424:	118fff04 	addi	r6,r2,16380
   82428:	008002f4 	movhi	r2,11
   8242c:	10a2f404 	addi	r2,r2,-29744
   82430:	1007883a 	mov	r3,r2
   82434:	010002b4 	movhi	r4,10
   82438:	211aa304 	addi	r4,r4,27276
   8243c:	00800304 	movi	r2,12
   82440:	d8800015 	stw	r2,0(sp)
   82444:	d8c00115 	stw	r3,4(sp)
   82448:	00820004 	movi	r2,2048
   8244c:	d8800215 	stw	r2,8(sp)
   82450:	d9000315 	stw	r4,12(sp)
   82454:	d8000415 	stw	zero,16(sp)
   82458:	01000234 	movhi	r4,8
   8245c:	21065104 	addi	r4,r4,6468
   82460:	000b883a 	mov	r5,zero
   82464:	01c00304 	movi	r7,12
   82468:	0094c140 	call	94c14 <OSTaskCreateExt>
   8246c:	e0bffe05 	stb	r2,-8(fp)
				(void *) &bubble_sort_stk[1][TASK_STACKSIZE - 1],
				BUBBLE_SORT_1_PRIORITY, BUBBLE_SORT_1_PRIORITY,
				&bubble_sort_stk[1][0], TASK_STACKSIZE, &bubble_sort_tcb[1], 0);
		alt_ucosii_check_return_code(return_code);
   82470:	e13ffe03 	ldbu	r4,-8(fp)
   82474:	00804300 	call	80430 <alt_ucosii_check_return_code>

		return_code = OSTaskCreateExt(bubble_sort_2, NULL,
   82478:	008002b4 	movhi	r2,10
   8247c:	109af404 	addi	r2,r2,27600
   82480:	1197ff04 	addi	r6,r2,24572
   82484:	008002f4 	movhi	r2,11
   82488:	10aaf404 	addi	r2,r2,-21552
   8248c:	1007883a 	mov	r3,r2
   82490:	010002b4 	movhi	r4,10
   82494:	211abe04 	addi	r4,r4,27384
   82498:	00800344 	movi	r2,13
   8249c:	d8800015 	stw	r2,0(sp)
   824a0:	d8c00115 	stw	r3,4(sp)
   824a4:	00820004 	movi	r2,2048
   824a8:	d8800215 	stw	r2,8(sp)
   824ac:	d9000315 	stw	r4,12(sp)
   824b0:	d8000415 	stw	zero,16(sp)
   824b4:	01000234 	movhi	r4,8
   824b8:	2106cf04 	addi	r4,r4,6972
   824bc:	000b883a 	mov	r5,zero
   824c0:	01c00344 	movi	r7,13
   824c4:	0094c140 	call	94c14 <OSTaskCreateExt>
   824c8:	e0bffe05 	stb	r2,-8(fp)
				(void *) &bubble_sort_stk[2][TASK_STACKSIZE - 1],
				BUBBLE_SORT_2_PRIORITY, BUBBLE_SORT_2_PRIORITY,
				&bubble_sort_stk[2][0], TASK_STACKSIZE, &bubble_sort_tcb[2], 0);
		alt_ucosii_check_return_code(return_code);
   824cc:	e13ffe03 	ldbu	r4,-8(fp)
   824d0:	00804300 	call	80430 <alt_ucosii_check_return_code>

		return_code = OSTaskCreateExt(bubble_sort_3, NULL,
   824d4:	008002b4 	movhi	r2,10
   824d8:	109af404 	addi	r2,r2,27600
   824dc:	119fff04 	addi	r6,r2,32764
   824e0:	008002f4 	movhi	r2,11
   824e4:	10b2f404 	addi	r2,r2,-13360
   824e8:	1007883a 	mov	r3,r2
   824ec:	010002b4 	movhi	r4,10
   824f0:	211ad904 	addi	r4,r4,27492
   824f4:	00800384 	movi	r2,14
   824f8:	d8800015 	stw	r2,0(sp)
   824fc:	d8c00115 	stw	r3,4(sp)
   82500:	00820004 	movi	r2,2048
   82504:	d8800215 	stw	r2,8(sp)
   82508:	d9000315 	stw	r4,12(sp)
   8250c:	d8000415 	stw	zero,16(sp)
   82510:	01000234 	movhi	r4,8
   82514:	21074d04 	addi	r4,r4,7476
   82518:	000b883a 	mov	r5,zero
   8251c:	01c00384 	movi	r7,14
   82520:	0094c140 	call	94c14 <OSTaskCreateExt>
   82524:	e0bffe05 	stb	r2,-8(fp)
				(void *) &bubble_sort_stk[3][TASK_STACKSIZE - 1],
				BUBBLE_SORT_3_PRIORITY, BUBBLE_SORT_3_PRIORITY,
				&bubble_sort_stk[3][0], TASK_STACKSIZE, &bubble_sort_tcb[3], 0);
		alt_ucosii_check_return_code(return_code);
   82528:	e13ffe03 	ldbu	r4,-8(fp)
   8252c:	00804300 	call	80430 <alt_ucosii_check_return_code>

		//CREATE MERGE SORT TASK -- remember 2 stages, 1st one takes 2 arrays each, next one takes two arrays (both results from previous stage)

		return_code = OSTaskCreateExt(merge_sort, NULL,
   82530:	018002f4 	movhi	r6,11
   82534:	3182f304 	addi	r6,r6,3020
   82538:	008003c4 	movi	r2,15
   8253c:	d8800015 	stw	r2,0(sp)
   82540:	008002f4 	movhi	r2,11
   82544:	10baf404 	addi	r2,r2,-5168
   82548:	d8800115 	stw	r2,4(sp)
   8254c:	00820004 	movi	r2,2048
   82550:	d8800215 	stw	r2,8(sp)
   82554:	008002b4 	movhi	r2,10
   82558:	10ba6104 	addi	r2,r2,-5756
   8255c:	d8800315 	stw	r2,12(sp)
   82560:	d8000415 	stw	zero,16(sp)
   82564:	01000234 	movhi	r4,8
   82568:	2107cb04 	addi	r4,r4,7980
   8256c:	000b883a 	mov	r5,zero
   82570:	01c003c4 	movi	r7,15
   82574:	0094c140 	call	94c14 <OSTaskCreateExt>
   82578:	e0bffe05 	stb	r2,-8(fp)
				(void *) &merge_sort_stk[TASK_STACKSIZE - 1],
				MERGE_SORT_PRIORITY, MERGE_SORT_PRIORITY, &merge_sort_stk,
				TASK_STACKSIZE, &merge_sort_tcb, 0);
		alt_ucosii_check_return_code(return_code);
   8257c:	e13ffe03 	ldbu	r4,-8(fp)
   82580:	00804300 	call	80430 <alt_ucosii_check_return_code>

		printf("Finish creating tasks...\n");
   82584:	010002b4 	movhi	r4,10
   82588:	21272904 	addi	r4,r4,-25436
   8258c:	00829e00 	call	829e0 <puts>

		printf("\n");
   82590:	01000284 	movi	r4,10
   82594:	008291c0 	call	8291c <putchar>
		OSTimeDlyHMSM(0, 0, 1, 0);
   82598:	0009883a 	mov	r4,zero
   8259c:	000b883a 	mov	r5,zero
   825a0:	01800044 	movi	r6,1
   825a4:	000f883a 	mov	r7,zero
   825a8:	00960580 	call	96058 <OSTimeDlyHMSM>

		return_code = OSTaskDel(OS_PRIO_SELF);
   825ac:	01003fc4 	movi	r4,255
   825b0:	0094e140 	call	94e14 <OSTaskDel>
   825b4:	e0bffe05 	stb	r2,-8(fp)
		alt_ucosii_check_return_code(return_code);
   825b8:	e13ffe03 	ldbu	r4,-8(fp)
   825bc:	00804300 	call	80430 <alt_ucosii_check_return_code>
   825c0:	e0bffd17 	ldw	r2,-12(fp)
   825c4:	e0bffb15 	stw	r2,-20(fp)
  status &= ~NIOS2_STATUS_PIE_MSK;
  status |= (context & NIOS2_STATUS_PIE_MSK);
  
  NIOS2_WRITE_STATUS (status);
#else
  NIOS2_WRITE_STATUS (context);
   825c8:	e0bffb17 	ldw	r2,-20(fp)
   825cc:	1001703a 	wrctl	status,r2

		OS_EXIT_CRITICAL();
	}
   825d0:	003f0106 	br	821d8 <task_launcher+0x24>

000825d4 <udivmodsi4>:
   825d4:	29001b2e 	bgeu	r5,r4,82644 <udivmodsi4+0x70>
   825d8:	28001a16 	blt	r5,zero,82644 <udivmodsi4+0x70>
   825dc:	00800044 	movi	r2,1
   825e0:	0007883a 	mov	r3,zero
   825e4:	01c007c4 	movi	r7,31
   825e8:	00000306 	br	825f8 <udivmodsi4+0x24>
   825ec:	19c01326 	beq	r3,r7,8263c <udivmodsi4+0x68>
   825f0:	18c00044 	addi	r3,r3,1
   825f4:	28000416 	blt	r5,zero,82608 <udivmodsi4+0x34>
   825f8:	294b883a 	add	r5,r5,r5
   825fc:	1085883a 	add	r2,r2,r2
   82600:	293ffa36 	bltu	r5,r4,825ec <udivmodsi4+0x18>
   82604:	10000d26 	beq	r2,zero,8263c <udivmodsi4+0x68>
   82608:	0007883a 	mov	r3,zero
   8260c:	21400236 	bltu	r4,r5,82618 <udivmodsi4+0x44>
   82610:	2149c83a 	sub	r4,r4,r5
   82614:	1886b03a 	or	r3,r3,r2
   82618:	1004d07a 	srli	r2,r2,1
   8261c:	280ad07a 	srli	r5,r5,1
   82620:	103ffa1e 	bne	r2,zero,8260c <udivmodsi4+0x38>
   82624:	30000226 	beq	r6,zero,82630 <udivmodsi4+0x5c>
   82628:	2005883a 	mov	r2,r4
   8262c:	f800283a 	ret
   82630:	1809883a 	mov	r4,r3
   82634:	2005883a 	mov	r2,r4
   82638:	f800283a 	ret
   8263c:	0007883a 	mov	r3,zero
   82640:	003ff806 	br	82624 <udivmodsi4+0x50>
   82644:	00800044 	movi	r2,1
   82648:	0007883a 	mov	r3,zero
   8264c:	003fef06 	br	8260c <udivmodsi4+0x38>

00082650 <__divsi3>:
   82650:	defffe04 	addi	sp,sp,-8
   82654:	dc000015 	stw	r16,0(sp)
   82658:	dfc00115 	stw	ra,4(sp)
   8265c:	0021883a 	mov	r16,zero
   82660:	20000c16 	blt	r4,zero,82694 <__divsi3+0x44>
   82664:	000d883a 	mov	r6,zero
   82668:	28000e16 	blt	r5,zero,826a4 <__divsi3+0x54>
   8266c:	00825d40 	call	825d4 <udivmodsi4>
   82670:	1007883a 	mov	r3,r2
   82674:	8005003a 	cmpeq	r2,r16,zero
   82678:	1000011e 	bne	r2,zero,82680 <__divsi3+0x30>
   8267c:	00c7c83a 	sub	r3,zero,r3
   82680:	1805883a 	mov	r2,r3
   82684:	dfc00117 	ldw	ra,4(sp)
   82688:	dc000017 	ldw	r16,0(sp)
   8268c:	dec00204 	addi	sp,sp,8
   82690:	f800283a 	ret
   82694:	0109c83a 	sub	r4,zero,r4
   82698:	04000044 	movi	r16,1
   8269c:	000d883a 	mov	r6,zero
   826a0:	283ff20e 	bge	r5,zero,8266c <__divsi3+0x1c>
   826a4:	014bc83a 	sub	r5,zero,r5
   826a8:	8021003a 	cmpeq	r16,r16,zero
   826ac:	003fef06 	br	8266c <__divsi3+0x1c>

000826b0 <__modsi3>:
   826b0:	deffff04 	addi	sp,sp,-4
   826b4:	dfc00015 	stw	ra,0(sp)
   826b8:	01800044 	movi	r6,1
   826bc:	2807883a 	mov	r3,r5
   826c0:	20000416 	blt	r4,zero,826d4 <__modsi3+0x24>
   826c4:	28000c16 	blt	r5,zero,826f8 <__modsi3+0x48>
   826c8:	dfc00017 	ldw	ra,0(sp)
   826cc:	dec00104 	addi	sp,sp,4
   826d0:	00825d41 	jmpi	825d4 <udivmodsi4>
   826d4:	0109c83a 	sub	r4,zero,r4
   826d8:	28000b16 	blt	r5,zero,82708 <__modsi3+0x58>
   826dc:	180b883a 	mov	r5,r3
   826e0:	01800044 	movi	r6,1
   826e4:	00825d40 	call	825d4 <udivmodsi4>
   826e8:	0085c83a 	sub	r2,zero,r2
   826ec:	dfc00017 	ldw	ra,0(sp)
   826f0:	dec00104 	addi	sp,sp,4
   826f4:	f800283a 	ret
   826f8:	014bc83a 	sub	r5,zero,r5
   826fc:	dfc00017 	ldw	ra,0(sp)
   82700:	dec00104 	addi	sp,sp,4
   82704:	00825d41 	jmpi	825d4 <udivmodsi4>
   82708:	0147c83a 	sub	r3,zero,r5
   8270c:	003ff306 	br	826dc <__modsi3+0x2c>

00082710 <__udivsi3>:
   82710:	000d883a 	mov	r6,zero
   82714:	00825d41 	jmpi	825d4 <udivmodsi4>

00082718 <__umodsi3>:
   82718:	01800044 	movi	r6,1
   8271c:	00825d41 	jmpi	825d4 <udivmodsi4>

00082720 <__mulsi3>:
   82720:	20000a26 	beq	r4,zero,8274c <__mulsi3+0x2c>
   82724:	0007883a 	mov	r3,zero
   82728:	2080004c 	andi	r2,r4,1
   8272c:	1005003a 	cmpeq	r2,r2,zero
   82730:	2008d07a 	srli	r4,r4,1
   82734:	1000011e 	bne	r2,zero,8273c <__mulsi3+0x1c>
   82738:	1947883a 	add	r3,r3,r5
   8273c:	294b883a 	add	r5,r5,r5
   82740:	203ff91e 	bne	r4,zero,82728 <__mulsi3+0x8>
   82744:	1805883a 	mov	r2,r3
   82748:	f800283a 	ret
   8274c:	0007883a 	mov	r3,zero
   82750:	1805883a 	mov	r2,r3
   82754:	f800283a 	ret

00082758 <fprintf>:
   82758:	defffc04 	addi	sp,sp,-16
   8275c:	dfc00115 	stw	ra,4(sp)
   82760:	d9800215 	stw	r6,8(sp)
   82764:	d9c00315 	stw	r7,12(sp)
   82768:	d8800204 	addi	r2,sp,8
   8276c:	100d883a 	mov	r6,r2
   82770:	d8800015 	stw	r2,0(sp)
   82774:	0084a180 	call	84a18 <__vfprintf_internal>
   82778:	dfc00117 	ldw	ra,4(sp)
   8277c:	dec00404 	addi	sp,sp,16
   82780:	f800283a 	ret

00082784 <_fprintf_r>:
   82784:	defffd04 	addi	sp,sp,-12
   82788:	2807883a 	mov	r3,r5
   8278c:	dfc00115 	stw	ra,4(sp)
   82790:	d9c00215 	stw	r7,8(sp)
   82794:	d8800204 	addi	r2,sp,8
   82798:	300b883a 	mov	r5,r6
   8279c:	1809883a 	mov	r4,r3
   827a0:	100d883a 	mov	r6,r2
   827a4:	d8800015 	stw	r2,0(sp)
   827a8:	0084a180 	call	84a18 <__vfprintf_internal>
   827ac:	dfc00117 	ldw	ra,4(sp)
   827b0:	dec00304 	addi	sp,sp,12
   827b4:	f800283a 	ret

000827b8 <_fwrite_r>:
   827b8:	defff604 	addi	sp,sp,-40
   827bc:	dc000515 	stw	r16,20(sp)
   827c0:	d9400015 	stw	r5,0(sp)
   827c4:	2021883a 	mov	r16,r4
   827c8:	300b883a 	mov	r5,r6
   827cc:	3809883a 	mov	r4,r7
   827d0:	dcc00815 	stw	r19,32(sp)
   827d4:	dc800715 	stw	r18,28(sp)
   827d8:	dc400615 	stw	r17,24(sp)
   827dc:	dfc00915 	stw	ra,36(sp)
   827e0:	3825883a 	mov	r18,r7
   827e4:	3027883a 	mov	r19,r6
   827e8:	00827200 	call	82720 <__mulsi3>
   827ec:	1023883a 	mov	r17,r2
   827f0:	00800044 	movi	r2,1
   827f4:	d8800315 	stw	r2,12(sp)
   827f8:	dc400115 	stw	r17,4(sp)
   827fc:	dc400415 	stw	r17,16(sp)
   82800:	dec00215 	stw	sp,8(sp)
   82804:	80000326 	beq	r16,zero,82814 <_fwrite_r+0x5c>
   82808:	80800e17 	ldw	r2,56(r16)
   8280c:	8009883a 	mov	r4,r16
   82810:	10001226 	beq	r2,zero,8285c <_fwrite_r+0xa4>
   82814:	d9400a17 	ldw	r5,40(sp)
   82818:	8009883a 	mov	r4,r16
   8281c:	d9800204 	addi	r6,sp,8
   82820:	0086cd40 	call	86cd4 <__sfvwrite_r>
   82824:	980b883a 	mov	r5,r19
   82828:	10000426 	beq	r2,zero,8283c <_fwrite_r+0x84>
   8282c:	d9000417 	ldw	r4,16(sp)
   82830:	8909c83a 	sub	r4,r17,r4
   82834:	00827100 	call	82710 <__udivsi3>
   82838:	1025883a 	mov	r18,r2
   8283c:	9005883a 	mov	r2,r18
   82840:	dfc00917 	ldw	ra,36(sp)
   82844:	dcc00817 	ldw	r19,32(sp)
   82848:	dc800717 	ldw	r18,28(sp)
   8284c:	dc400617 	ldw	r17,24(sp)
   82850:	dc000517 	ldw	r16,20(sp)
   82854:	dec00a04 	addi	sp,sp,40
   82858:	f800283a 	ret
   8285c:	00866080 	call	86608 <__sinit>
   82860:	003fec06 	br	82814 <_fwrite_r+0x5c>

00082864 <fwrite>:
   82864:	008002b4 	movhi	r2,10
   82868:	10aee604 	addi	r2,r2,-17512
   8286c:	2017883a 	mov	r11,r4
   82870:	11000017 	ldw	r4,0(r2)
   82874:	defffe04 	addi	sp,sp,-8
   82878:	3013883a 	mov	r9,r6
   8287c:	2805883a 	mov	r2,r5
   82880:	d9c00015 	stw	r7,0(sp)
   82884:	580b883a 	mov	r5,r11
   82888:	100d883a 	mov	r6,r2
   8288c:	480f883a 	mov	r7,r9
   82890:	dfc00115 	stw	ra,4(sp)
   82894:	00827b80 	call	827b8 <_fwrite_r>
   82898:	dfc00117 	ldw	ra,4(sp)
   8289c:	dec00204 	addi	sp,sp,8
   828a0:	f800283a 	ret

000828a4 <printf>:
   828a4:	defffb04 	addi	sp,sp,-20
   828a8:	dfc00115 	stw	ra,4(sp)
   828ac:	d9400215 	stw	r5,8(sp)
   828b0:	d9800315 	stw	r6,12(sp)
   828b4:	d9c00415 	stw	r7,16(sp)
   828b8:	008002b4 	movhi	r2,10
   828bc:	10aee604 	addi	r2,r2,-17512
   828c0:	10c00017 	ldw	r3,0(r2)
   828c4:	200b883a 	mov	r5,r4
   828c8:	d8800204 	addi	r2,sp,8
   828cc:	19000217 	ldw	r4,8(r3)
   828d0:	100d883a 	mov	r6,r2
   828d4:	d8800015 	stw	r2,0(sp)
   828d8:	0084a180 	call	84a18 <__vfprintf_internal>
   828dc:	dfc00117 	ldw	ra,4(sp)
   828e0:	dec00504 	addi	sp,sp,20
   828e4:	f800283a 	ret

000828e8 <_printf_r>:
   828e8:	defffc04 	addi	sp,sp,-16
   828ec:	dfc00115 	stw	ra,4(sp)
   828f0:	d9800215 	stw	r6,8(sp)
   828f4:	d9c00315 	stw	r7,12(sp)
   828f8:	280d883a 	mov	r6,r5
   828fc:	21400217 	ldw	r5,8(r4)
   82900:	d8c00204 	addi	r3,sp,8
   82904:	180f883a 	mov	r7,r3
   82908:	d8c00015 	stw	r3,0(sp)
   8290c:	0082b540 	call	82b54 <___vfprintf_internal_r>
   82910:	dfc00117 	ldw	ra,4(sp)
   82914:	dec00404 	addi	sp,sp,16
   82918:	f800283a 	ret

0008291c <putchar>:
   8291c:	008002b4 	movhi	r2,10
   82920:	10aee604 	addi	r2,r2,-17512
   82924:	11800017 	ldw	r6,0(r2)
   82928:	200b883a 	mov	r5,r4
   8292c:	3009883a 	mov	r4,r6
   82930:	31800217 	ldw	r6,8(r6)
   82934:	00891141 	jmpi	89114 <_putc_r>

00082938 <_putchar_r>:
   82938:	21800217 	ldw	r6,8(r4)
   8293c:	00891141 	jmpi	89114 <_putc_r>

00082940 <_puts_r>:
   82940:	defff604 	addi	sp,sp,-40
   82944:	dc400715 	stw	r17,28(sp)
   82948:	2023883a 	mov	r17,r4
   8294c:	2809883a 	mov	r4,r5
   82950:	dfc00915 	stw	ra,36(sp)
   82954:	dcc00815 	stw	r19,32(sp)
   82958:	2827883a 	mov	r19,r5
   8295c:	0082a880 	call	82a88 <strlen>
   82960:	89400217 	ldw	r5,8(r17)
   82964:	00c002b4 	movhi	r3,10
   82968:	18e73104 	addi	r3,r3,-25404
   8296c:	01c00044 	movi	r7,1
   82970:	12000044 	addi	r8,r2,1
   82974:	d8c00515 	stw	r3,20(sp)
   82978:	d9c00615 	stw	r7,24(sp)
   8297c:	d8c00304 	addi	r3,sp,12
   82980:	01c00084 	movi	r7,2
   82984:	8809883a 	mov	r4,r17
   82988:	d80d883a 	mov	r6,sp
   8298c:	d8c00015 	stw	r3,0(sp)
   82990:	dcc00315 	stw	r19,12(sp)
   82994:	da000215 	stw	r8,8(sp)
   82998:	d9c00115 	stw	r7,4(sp)
   8299c:	d8800415 	stw	r2,16(sp)
   829a0:	0086cd40 	call	86cd4 <__sfvwrite_r>
   829a4:	00ffffc4 	movi	r3,-1
   829a8:	10000626 	beq	r2,zero,829c4 <_puts_r+0x84>
   829ac:	1805883a 	mov	r2,r3
   829b0:	dfc00917 	ldw	ra,36(sp)
   829b4:	dcc00817 	ldw	r19,32(sp)
   829b8:	dc400717 	ldw	r17,28(sp)
   829bc:	dec00a04 	addi	sp,sp,40
   829c0:	f800283a 	ret
   829c4:	00c00284 	movi	r3,10
   829c8:	1805883a 	mov	r2,r3
   829cc:	dfc00917 	ldw	ra,36(sp)
   829d0:	dcc00817 	ldw	r19,32(sp)
   829d4:	dc400717 	ldw	r17,28(sp)
   829d8:	dec00a04 	addi	sp,sp,40
   829dc:	f800283a 	ret

000829e0 <puts>:
   829e0:	008002b4 	movhi	r2,10
   829e4:	10aee604 	addi	r2,r2,-17512
   829e8:	200b883a 	mov	r5,r4
   829ec:	11000017 	ldw	r4,0(r2)
   829f0:	00829401 	jmpi	82940 <_puts_r>

000829f4 <srand>:
   829f4:	008002b4 	movhi	r2,10
   829f8:	10aee604 	addi	r2,r2,-17512
   829fc:	11400017 	ldw	r5,0(r2)
   82a00:	0007883a 	mov	r3,zero
   82a04:	28c02a15 	stw	r3,168(r5)
   82a08:	29002915 	stw	r4,164(r5)
   82a0c:	f800283a 	ret

00082a10 <rand>:
   82a10:	defffe04 	addi	sp,sp,-8
   82a14:	008002b4 	movhi	r2,10
   82a18:	10aee604 	addi	r2,r2,-17512
   82a1c:	dc000015 	stw	r16,0(sp)
   82a20:	14000017 	ldw	r16,0(r2)
   82a24:	dfc00115 	stw	ra,4(sp)
   82a28:	00932574 	movhi	r2,19605
   82a2c:	109fcb44 	addi	r2,r2,32557
   82a30:	82002917 	ldw	r8,164(r16)
   82a34:	82402a17 	ldw	r9,168(r16)
   82a38:	00d614b4 	movhi	r3,22610
   82a3c:	18fd0b44 	addi	r3,r3,-3027
   82a40:	4009883a 	mov	r4,r8
   82a44:	180f883a 	mov	r7,r3
   82a48:	100d883a 	mov	r6,r2
   82a4c:	480b883a 	mov	r5,r9
   82a50:	008a0cc0 	call	8a0cc <__muldi3>
   82a54:	02000044 	movi	r8,1
   82a58:	1209883a 	add	r4,r2,r8
   82a5c:	2095803a 	cmpltu	r10,r4,r2
   82a60:	50d5883a 	add	r10,r10,r3
   82a64:	81002915 	stw	r4,164(r16)
   82a68:	01200034 	movhi	r4,32768
   82a6c:	213fffc4 	addi	r4,r4,-1
   82a70:	2284703a 	and	r2,r4,r10
   82a74:	82802a15 	stw	r10,168(r16)
   82a78:	dfc00117 	ldw	ra,4(sp)
   82a7c:	dc000017 	ldw	r16,0(sp)
   82a80:	dec00204 	addi	sp,sp,8
   82a84:	f800283a 	ret

00082a88 <strlen>:
   82a88:	208000cc 	andi	r2,r4,3
   82a8c:	2011883a 	mov	r8,r4
   82a90:	1000161e 	bne	r2,zero,82aec <strlen+0x64>
   82a94:	20c00017 	ldw	r3,0(r4)
   82a98:	017fbff4 	movhi	r5,65279
   82a9c:	297fbfc4 	addi	r5,r5,-257
   82aa0:	01e02074 	movhi	r7,32897
   82aa4:	39e02004 	addi	r7,r7,-32640
   82aa8:	1945883a 	add	r2,r3,r5
   82aac:	11c4703a 	and	r2,r2,r7
   82ab0:	00c6303a 	nor	r3,zero,r3
   82ab4:	1886703a 	and	r3,r3,r2
   82ab8:	18000c1e 	bne	r3,zero,82aec <strlen+0x64>
   82abc:	280d883a 	mov	r6,r5
   82ac0:	380b883a 	mov	r5,r7
   82ac4:	21000104 	addi	r4,r4,4
   82ac8:	20800017 	ldw	r2,0(r4)
   82acc:	1187883a 	add	r3,r2,r6
   82ad0:	1946703a 	and	r3,r3,r5
   82ad4:	0084303a 	nor	r2,zero,r2
   82ad8:	10c4703a 	and	r2,r2,r3
   82adc:	103ff926 	beq	r2,zero,82ac4 <strlen+0x3c>
   82ae0:	20800007 	ldb	r2,0(r4)
   82ae4:	10000326 	beq	r2,zero,82af4 <strlen+0x6c>
   82ae8:	21000044 	addi	r4,r4,1
   82aec:	20800007 	ldb	r2,0(r4)
   82af0:	103ffd1e 	bne	r2,zero,82ae8 <strlen+0x60>
   82af4:	2205c83a 	sub	r2,r4,r8
   82af8:	f800283a 	ret

00082afc <__sprint_r>:
   82afc:	30800217 	ldw	r2,8(r6)
   82b00:	defffe04 	addi	sp,sp,-8
   82b04:	dc000015 	stw	r16,0(sp)
   82b08:	dfc00115 	stw	ra,4(sp)
   82b0c:	3021883a 	mov	r16,r6
   82b10:	0007883a 	mov	r3,zero
   82b14:	1000061e 	bne	r2,zero,82b30 <__sprint_r+0x34>
   82b18:	1805883a 	mov	r2,r3
   82b1c:	30000115 	stw	zero,4(r6)
   82b20:	dfc00117 	ldw	ra,4(sp)
   82b24:	dc000017 	ldw	r16,0(sp)
   82b28:	dec00204 	addi	sp,sp,8
   82b2c:	f800283a 	ret
   82b30:	0086cd40 	call	86cd4 <__sfvwrite_r>
   82b34:	1007883a 	mov	r3,r2
   82b38:	1805883a 	mov	r2,r3
   82b3c:	80000115 	stw	zero,4(r16)
   82b40:	80000215 	stw	zero,8(r16)
   82b44:	dfc00117 	ldw	ra,4(sp)
   82b48:	dc000017 	ldw	r16,0(sp)
   82b4c:	dec00204 	addi	sp,sp,8
   82b50:	f800283a 	ret

00082b54 <___vfprintf_internal_r>:
   82b54:	defea404 	addi	sp,sp,-1392
   82b58:	dd815815 	stw	r22,1376(sp)
   82b5c:	dc015215 	stw	r16,1352(sp)
   82b60:	d9c15115 	stw	r7,1348(sp)
   82b64:	dfc15b15 	stw	ra,1388(sp)
   82b68:	df015a15 	stw	fp,1384(sp)
   82b6c:	ddc15915 	stw	r23,1380(sp)
   82b70:	dd415715 	stw	r21,1372(sp)
   82b74:	dd015615 	stw	r20,1368(sp)
   82b78:	dcc15515 	stw	r19,1364(sp)
   82b7c:	dc815415 	stw	r18,1360(sp)
   82b80:	dc415315 	stw	r17,1356(sp)
   82b84:	282d883a 	mov	r22,r5
   82b88:	3021883a 	mov	r16,r6
   82b8c:	d9014f15 	stw	r4,1340(sp)
   82b90:	00872f80 	call	872f8 <_localeconv_r>
   82b94:	10800017 	ldw	r2,0(r2)
   82b98:	d9c15117 	ldw	r7,1348(sp)
   82b9c:	d8814915 	stw	r2,1316(sp)
   82ba0:	d8814f17 	ldw	r2,1340(sp)
   82ba4:	10000226 	beq	r2,zero,82bb0 <___vfprintf_internal_r+0x5c>
   82ba8:	10800e17 	ldw	r2,56(r2)
   82bac:	10020d26 	beq	r2,zero,833e4 <___vfprintf_internal_r+0x890>
   82bb0:	b080030b 	ldhu	r2,12(r22)
   82bb4:	1080020c 	andi	r2,r2,8
   82bb8:	10020e26 	beq	r2,zero,833f4 <___vfprintf_internal_r+0x8a0>
   82bbc:	b0800417 	ldw	r2,16(r22)
   82bc0:	10020c26 	beq	r2,zero,833f4 <___vfprintf_internal_r+0x8a0>
   82bc4:	b200030b 	ldhu	r8,12(r22)
   82bc8:	00800284 	movi	r2,10
   82bcc:	40c0068c 	andi	r3,r8,26
   82bd0:	18802f1e 	bne	r3,r2,82c90 <___vfprintf_internal_r+0x13c>
   82bd4:	b080038f 	ldh	r2,14(r22)
   82bd8:	10002d16 	blt	r2,zero,82c90 <___vfprintf_internal_r+0x13c>
   82bdc:	b240038b 	ldhu	r9,14(r22)
   82be0:	b2800717 	ldw	r10,28(r22)
   82be4:	b2c00917 	ldw	r11,36(r22)
   82be8:	d9014f17 	ldw	r4,1340(sp)
   82bec:	dc402904 	addi	r17,sp,164
   82bf0:	d8804004 	addi	r2,sp,256
   82bf4:	00c10004 	movi	r3,1024
   82bf8:	423fff4c 	andi	r8,r8,65533
   82bfc:	800d883a 	mov	r6,r16
   82c00:	880b883a 	mov	r5,r17
   82c04:	da002c0d 	sth	r8,176(sp)
   82c08:	da402c8d 	sth	r9,178(sp)
   82c0c:	da803015 	stw	r10,192(sp)
   82c10:	dac03215 	stw	r11,200(sp)
   82c14:	d8802d15 	stw	r2,180(sp)
   82c18:	d8c02e15 	stw	r3,184(sp)
   82c1c:	d8802915 	stw	r2,164(sp)
   82c20:	d8c02b15 	stw	r3,172(sp)
   82c24:	d8002f15 	stw	zero,188(sp)
   82c28:	0082b540 	call	82b54 <___vfprintf_internal_r>
   82c2c:	d8814b15 	stw	r2,1324(sp)
   82c30:	10000416 	blt	r2,zero,82c44 <___vfprintf_internal_r+0xf0>
   82c34:	d9014f17 	ldw	r4,1340(sp)
   82c38:	880b883a 	mov	r5,r17
   82c3c:	00863700 	call	86370 <_fflush_r>
   82c40:	1002321e 	bne	r2,zero,8350c <___vfprintf_internal_r+0x9b8>
   82c44:	d8802c0b 	ldhu	r2,176(sp)
   82c48:	1080100c 	andi	r2,r2,64
   82c4c:	10000326 	beq	r2,zero,82c5c <___vfprintf_internal_r+0x108>
   82c50:	b080030b 	ldhu	r2,12(r22)
   82c54:	10801014 	ori	r2,r2,64
   82c58:	b080030d 	sth	r2,12(r22)
   82c5c:	d8814b17 	ldw	r2,1324(sp)
   82c60:	dfc15b17 	ldw	ra,1388(sp)
   82c64:	df015a17 	ldw	fp,1384(sp)
   82c68:	ddc15917 	ldw	r23,1380(sp)
   82c6c:	dd815817 	ldw	r22,1376(sp)
   82c70:	dd415717 	ldw	r21,1372(sp)
   82c74:	dd015617 	ldw	r20,1368(sp)
   82c78:	dcc15517 	ldw	r19,1364(sp)
   82c7c:	dc815417 	ldw	r18,1360(sp)
   82c80:	dc415317 	ldw	r17,1356(sp)
   82c84:	dc015217 	ldw	r16,1352(sp)
   82c88:	dec15c04 	addi	sp,sp,1392
   82c8c:	f800283a 	ret
   82c90:	0005883a 	mov	r2,zero
   82c94:	0007883a 	mov	r3,zero
   82c98:	dd401904 	addi	r21,sp,100
   82c9c:	d8814215 	stw	r2,1288(sp)
   82ca0:	802f883a 	mov	r23,r16
   82ca4:	d8c14315 	stw	r3,1292(sp)
   82ca8:	d8014b15 	stw	zero,1324(sp)
   82cac:	d8014815 	stw	zero,1312(sp)
   82cb0:	d8014415 	stw	zero,1296(sp)
   82cb4:	d8014715 	stw	zero,1308(sp)
   82cb8:	dd400c15 	stw	r21,48(sp)
   82cbc:	d8000e15 	stw	zero,56(sp)
   82cc0:	d8000d15 	stw	zero,52(sp)
   82cc4:	b8800007 	ldb	r2,0(r23)
   82cc8:	10001926 	beq	r2,zero,82d30 <___vfprintf_internal_r+0x1dc>
   82ccc:	00c00944 	movi	r3,37
   82cd0:	10c01726 	beq	r2,r3,82d30 <___vfprintf_internal_r+0x1dc>
   82cd4:	b821883a 	mov	r16,r23
   82cd8:	00000106 	br	82ce0 <___vfprintf_internal_r+0x18c>
   82cdc:	10c00326 	beq	r2,r3,82cec <___vfprintf_internal_r+0x198>
   82ce0:	84000044 	addi	r16,r16,1
   82ce4:	80800007 	ldb	r2,0(r16)
   82ce8:	103ffc1e 	bne	r2,zero,82cdc <___vfprintf_internal_r+0x188>
   82cec:	85e7c83a 	sub	r19,r16,r23
   82cf0:	98000e26 	beq	r19,zero,82d2c <___vfprintf_internal_r+0x1d8>
   82cf4:	dc800e17 	ldw	r18,56(sp)
   82cf8:	dc400d17 	ldw	r17,52(sp)
   82cfc:	008001c4 	movi	r2,7
   82d00:	94e5883a 	add	r18,r18,r19
   82d04:	8c400044 	addi	r17,r17,1
   82d08:	adc00015 	stw	r23,0(r21)
   82d0c:	dc800e15 	stw	r18,56(sp)
   82d10:	acc00115 	stw	r19,4(r21)
   82d14:	dc400d15 	stw	r17,52(sp)
   82d18:	14428b16 	blt	r2,r17,83748 <___vfprintf_internal_r+0xbf4>
   82d1c:	ad400204 	addi	r21,r21,8
   82d20:	d9014b17 	ldw	r4,1324(sp)
   82d24:	24c9883a 	add	r4,r4,r19
   82d28:	d9014b15 	stw	r4,1324(sp)
   82d2c:	802f883a 	mov	r23,r16
   82d30:	b8800007 	ldb	r2,0(r23)
   82d34:	10013c26 	beq	r2,zero,83228 <___vfprintf_internal_r+0x6d4>
   82d38:	bdc00044 	addi	r23,r23,1
   82d3c:	d8000405 	stb	zero,16(sp)
   82d40:	b8c00007 	ldb	r3,0(r23)
   82d44:	04ffffc4 	movi	r19,-1
   82d48:	d8014c15 	stw	zero,1328(sp)
   82d4c:	d8014a15 	stw	zero,1320(sp)
   82d50:	d8c14d15 	stw	r3,1332(sp)
   82d54:	bdc00044 	addi	r23,r23,1
   82d58:	d9414d17 	ldw	r5,1332(sp)
   82d5c:	00801604 	movi	r2,88
   82d60:	28fff804 	addi	r3,r5,-32
   82d64:	10c06036 	bltu	r2,r3,82ee8 <___vfprintf_internal_r+0x394>
   82d68:	18c5883a 	add	r2,r3,r3
   82d6c:	1085883a 	add	r2,r2,r2
   82d70:	00c00234 	movhi	r3,8
   82d74:	18cb6104 	addi	r3,r3,11652
   82d78:	10c5883a 	add	r2,r2,r3
   82d7c:	11000017 	ldw	r4,0(r2)
   82d80:	2000683a 	jmp	r4
   82d84:	00083cf8 	rdprs	zero,zero,8435
   82d88:	00082ee8 	cmpgeui	zero,zero,8379
   82d8c:	00082ee8 	cmpgeui	zero,zero,8379
   82d90:	00083ce4 	muli	zero,zero,8435
   82d94:	00082ee8 	cmpgeui	zero,zero,8379
   82d98:	00082ee8 	cmpgeui	zero,zero,8379
   82d9c:	00082ee8 	cmpgeui	zero,zero,8379
   82da0:	00082ee8 	cmpgeui	zero,zero,8379
   82da4:	00082ee8 	cmpgeui	zero,zero,8379
   82da8:	00082ee8 	cmpgeui	zero,zero,8379
   82dac:	00083ac4 	movi	zero,8427
   82db0:	00083cd4 	movui	zero,8435
   82db4:	00082ee8 	cmpgeui	zero,zero,8379
   82db8:	00083adc 	xori	zero,zero,8427
   82dbc:	00083d7c 	xorhi	zero,zero,8437
   82dc0:	00082ee8 	cmpgeui	zero,zero,8379
   82dc4:	00083d68 	cmpgeui	zero,zero,8437
   82dc8:	00083d24 	muli	zero,zero,8436
   82dcc:	00083d24 	muli	zero,zero,8436
   82dd0:	00083d24 	muli	zero,zero,8436
   82dd4:	00083d24 	muli	zero,zero,8436
   82dd8:	00083d24 	muli	zero,zero,8436
   82ddc:	00083d24 	muli	zero,zero,8436
   82de0:	00083d24 	muli	zero,zero,8436
   82de4:	00083d24 	muli	zero,zero,8436
   82de8:	00083d24 	muli	zero,zero,8436
   82dec:	00082ee8 	cmpgeui	zero,zero,8379
   82df0:	00082ee8 	cmpgeui	zero,zero,8379
   82df4:	00082ee8 	cmpgeui	zero,zero,8379
   82df8:	00082ee8 	cmpgeui	zero,zero,8379
   82dfc:	00082ee8 	cmpgeui	zero,zero,8379
   82e00:	00082ee8 	cmpgeui	zero,zero,8379
   82e04:	00082ee8 	cmpgeui	zero,zero,8379
   82e08:	00082ee8 	cmpgeui	zero,zero,8379
   82e0c:	00082ee8 	cmpgeui	zero,zero,8379
   82e10:	00082ee8 	cmpgeui	zero,zero,8379
   82e14:	00083540 	call	8354 <OSCtxSw_SWITCH_PC+0x8314>
   82e18:	00083bac 	andhi	zero,zero,8430
   82e1c:	00082ee8 	cmpgeui	zero,zero,8379
   82e20:	00083bac 	andhi	zero,zero,8430
   82e24:	00082ee8 	cmpgeui	zero,zero,8379
   82e28:	00082ee8 	cmpgeui	zero,zero,8379
   82e2c:	00082ee8 	cmpgeui	zero,zero,8379
   82e30:	00082ee8 	cmpgeui	zero,zero,8379
   82e34:	00083d10 	cmplti	zero,zero,8436
   82e38:	00082ee8 	cmpgeui	zero,zero,8379
   82e3c:	00082ee8 	cmpgeui	zero,zero,8379
   82e40:	000835f4 	movhi	zero,8407
   82e44:	00082ee8 	cmpgeui	zero,zero,8379
   82e48:	00082ee8 	cmpgeui	zero,zero,8379
   82e4c:	00082ee8 	cmpgeui	zero,zero,8379
   82e50:	00082ee8 	cmpgeui	zero,zero,8379
   82e54:	00082ee8 	cmpgeui	zero,zero,8379
   82e58:	00083640 	call	8364 <OSCtxSw_SWITCH_PC+0x8324>
   82e5c:	00082ee8 	cmpgeui	zero,zero,8379
   82e60:	00082ee8 	cmpgeui	zero,zero,8379
   82e64:	00083c60 	cmpeqi	zero,zero,8433
   82e68:	00082ee8 	cmpgeui	zero,zero,8379
   82e6c:	00082ee8 	cmpgeui	zero,zero,8379
   82e70:	00082ee8 	cmpgeui	zero,zero,8379
   82e74:	00082ee8 	cmpgeui	zero,zero,8379
   82e78:	00082ee8 	cmpgeui	zero,zero,8379
   82e7c:	00082ee8 	cmpgeui	zero,zero,8379
   82e80:	00082ee8 	cmpgeui	zero,zero,8379
   82e84:	00082ee8 	cmpgeui	zero,zero,8379
   82e88:	00082ee8 	cmpgeui	zero,zero,8379
   82e8c:	00082ee8 	cmpgeui	zero,zero,8379
   82e90:	00083c34 	movhi	zero,8432
   82e94:	0008354c 	andi	zero,zero,8405
   82e98:	00083bac 	andhi	zero,zero,8430
   82e9c:	00083bac 	andhi	zero,zero,8430
   82ea0:	00083bac 	andhi	zero,zero,8430
   82ea4:	00083b98 	cmpnei	zero,zero,8430
   82ea8:	0008354c 	andi	zero,zero,8405
   82eac:	00082ee8 	cmpgeui	zero,zero,8379
   82eb0:	00082ee8 	cmpgeui	zero,zero,8379
   82eb4:	00083b20 	cmpeqi	zero,zero,8428
   82eb8:	00082ee8 	cmpgeui	zero,zero,8379
   82ebc:	00083af0 	cmpltui	zero,zero,8427
   82ec0:	00083600 	call	8360 <OSCtxSw_SWITCH_PC+0x8320>
   82ec4:	00083b50 	cmplti	zero,zero,8429
   82ec8:	00083b3c 	xorhi	zero,zero,8428
   82ecc:	00082ee8 	cmpgeui	zero,zero,8379
   82ed0:	00083de4 	muli	zero,zero,8439
   82ed4:	00082ee8 	cmpgeui	zero,zero,8379
   82ed8:	0008364c 	andi	zero,zero,8409
   82edc:	00082ee8 	cmpgeui	zero,zero,8379
   82ee0:	00082ee8 	cmpgeui	zero,zero,8379
   82ee4:	00083cc4 	movi	zero,8435
   82ee8:	d9014d17 	ldw	r4,1332(sp)
   82eec:	2000ce26 	beq	r4,zero,83228 <___vfprintf_internal_r+0x6d4>
   82ef0:	01400044 	movi	r5,1
   82ef4:	d9800f04 	addi	r6,sp,60
   82ef8:	d9c14015 	stw	r7,1280(sp)
   82efc:	d9414515 	stw	r5,1300(sp)
   82f00:	d9814115 	stw	r6,1284(sp)
   82f04:	280f883a 	mov	r7,r5
   82f08:	d9000f05 	stb	r4,60(sp)
   82f0c:	d8000405 	stb	zero,16(sp)
   82f10:	d8014615 	stw	zero,1304(sp)
   82f14:	d8c14c17 	ldw	r3,1328(sp)
   82f18:	1880008c 	andi	r2,r3,2
   82f1c:	1005003a 	cmpeq	r2,r2,zero
   82f20:	d8815015 	stw	r2,1344(sp)
   82f24:	1000031e 	bne	r2,zero,82f34 <___vfprintf_internal_r+0x3e0>
   82f28:	d9014517 	ldw	r4,1300(sp)
   82f2c:	21000084 	addi	r4,r4,2
   82f30:	d9014515 	stw	r4,1300(sp)
   82f34:	d9414c17 	ldw	r5,1328(sp)
   82f38:	2940210c 	andi	r5,r5,132
   82f3c:	d9414e15 	stw	r5,1336(sp)
   82f40:	28002d1e 	bne	r5,zero,82ff8 <___vfprintf_internal_r+0x4a4>
   82f44:	d9814a17 	ldw	r6,1320(sp)
   82f48:	d8814517 	ldw	r2,1300(sp)
   82f4c:	30a1c83a 	sub	r16,r6,r2
   82f50:	0400290e 	bge	zero,r16,82ff8 <___vfprintf_internal_r+0x4a4>
   82f54:	00800404 	movi	r2,16
   82f58:	14045e0e 	bge	r2,r16,840d4 <___vfprintf_internal_r+0x1580>
   82f5c:	dc800e17 	ldw	r18,56(sp)
   82f60:	dc400d17 	ldw	r17,52(sp)
   82f64:	1027883a 	mov	r19,r2
   82f68:	070002b4 	movhi	fp,10
   82f6c:	e7274d84 	addi	fp,fp,-25290
   82f70:	050001c4 	movi	r20,7
   82f74:	00000306 	br	82f84 <___vfprintf_internal_r+0x430>
   82f78:	843ffc04 	addi	r16,r16,-16
   82f7c:	ad400204 	addi	r21,r21,8
   82f80:	9c00130e 	bge	r19,r16,82fd0 <___vfprintf_internal_r+0x47c>
   82f84:	94800404 	addi	r18,r18,16
   82f88:	8c400044 	addi	r17,r17,1
   82f8c:	af000015 	stw	fp,0(r21)
   82f90:	acc00115 	stw	r19,4(r21)
   82f94:	dc800e15 	stw	r18,56(sp)
   82f98:	dc400d15 	stw	r17,52(sp)
   82f9c:	a47ff60e 	bge	r20,r17,82f78 <___vfprintf_internal_r+0x424>
   82fa0:	d9014f17 	ldw	r4,1340(sp)
   82fa4:	b00b883a 	mov	r5,r22
   82fa8:	d9800c04 	addi	r6,sp,48
   82fac:	d9c15115 	stw	r7,1348(sp)
   82fb0:	0082afc0 	call	82afc <__sprint_r>
   82fb4:	d9c15117 	ldw	r7,1348(sp)
   82fb8:	10009e1e 	bne	r2,zero,83234 <___vfprintf_internal_r+0x6e0>
   82fbc:	843ffc04 	addi	r16,r16,-16
   82fc0:	dc800e17 	ldw	r18,56(sp)
   82fc4:	dc400d17 	ldw	r17,52(sp)
   82fc8:	dd401904 	addi	r21,sp,100
   82fcc:	9c3fed16 	blt	r19,r16,82f84 <___vfprintf_internal_r+0x430>
   82fd0:	9425883a 	add	r18,r18,r16
   82fd4:	8c400044 	addi	r17,r17,1
   82fd8:	008001c4 	movi	r2,7
   82fdc:	af000015 	stw	fp,0(r21)
   82fe0:	ac000115 	stw	r16,4(r21)
   82fe4:	dc800e15 	stw	r18,56(sp)
   82fe8:	dc400d15 	stw	r17,52(sp)
   82fec:	1441f516 	blt	r2,r17,837c4 <___vfprintf_internal_r+0xc70>
   82ff0:	ad400204 	addi	r21,r21,8
   82ff4:	00000206 	br	83000 <___vfprintf_internal_r+0x4ac>
   82ff8:	dc800e17 	ldw	r18,56(sp)
   82ffc:	dc400d17 	ldw	r17,52(sp)
   83000:	d8800407 	ldb	r2,16(sp)
   83004:	10000b26 	beq	r2,zero,83034 <___vfprintf_internal_r+0x4e0>
   83008:	00800044 	movi	r2,1
   8300c:	94800044 	addi	r18,r18,1
   83010:	8c400044 	addi	r17,r17,1
   83014:	a8800115 	stw	r2,4(r21)
   83018:	d8c00404 	addi	r3,sp,16
   8301c:	008001c4 	movi	r2,7
   83020:	a8c00015 	stw	r3,0(r21)
   83024:	dc800e15 	stw	r18,56(sp)
   83028:	dc400d15 	stw	r17,52(sp)
   8302c:	1441da16 	blt	r2,r17,83798 <___vfprintf_internal_r+0xc44>
   83030:	ad400204 	addi	r21,r21,8
   83034:	d9015017 	ldw	r4,1344(sp)
   83038:	20000b1e 	bne	r4,zero,83068 <___vfprintf_internal_r+0x514>
   8303c:	d8800444 	addi	r2,sp,17
   83040:	94800084 	addi	r18,r18,2
   83044:	8c400044 	addi	r17,r17,1
   83048:	a8800015 	stw	r2,0(r21)
   8304c:	00c00084 	movi	r3,2
   83050:	008001c4 	movi	r2,7
   83054:	a8c00115 	stw	r3,4(r21)
   83058:	dc800e15 	stw	r18,56(sp)
   8305c:	dc400d15 	stw	r17,52(sp)
   83060:	1441c216 	blt	r2,r17,8376c <___vfprintf_internal_r+0xc18>
   83064:	ad400204 	addi	r21,r21,8
   83068:	d9414e17 	ldw	r5,1336(sp)
   8306c:	00802004 	movi	r2,128
   83070:	2880b126 	beq	r5,r2,83338 <___vfprintf_internal_r+0x7e4>
   83074:	d8c14617 	ldw	r3,1304(sp)
   83078:	19e1c83a 	sub	r16,r3,r7
   8307c:	0400260e 	bge	zero,r16,83118 <___vfprintf_internal_r+0x5c4>
   83080:	00800404 	movi	r2,16
   83084:	1403cf0e 	bge	r2,r16,83fc4 <___vfprintf_internal_r+0x1470>
   83088:	1027883a 	mov	r19,r2
   8308c:	070002b4 	movhi	fp,10
   83090:	e7274984 	addi	fp,fp,-25306
   83094:	050001c4 	movi	r20,7
   83098:	00000306 	br	830a8 <___vfprintf_internal_r+0x554>
   8309c:	843ffc04 	addi	r16,r16,-16
   830a0:	ad400204 	addi	r21,r21,8
   830a4:	9c00130e 	bge	r19,r16,830f4 <___vfprintf_internal_r+0x5a0>
   830a8:	94800404 	addi	r18,r18,16
   830ac:	8c400044 	addi	r17,r17,1
   830b0:	af000015 	stw	fp,0(r21)
   830b4:	acc00115 	stw	r19,4(r21)
   830b8:	dc800e15 	stw	r18,56(sp)
   830bc:	dc400d15 	stw	r17,52(sp)
   830c0:	a47ff60e 	bge	r20,r17,8309c <___vfprintf_internal_r+0x548>
   830c4:	d9014f17 	ldw	r4,1340(sp)
   830c8:	b00b883a 	mov	r5,r22
   830cc:	d9800c04 	addi	r6,sp,48
   830d0:	d9c15115 	stw	r7,1348(sp)
   830d4:	0082afc0 	call	82afc <__sprint_r>
   830d8:	d9c15117 	ldw	r7,1348(sp)
   830dc:	1000551e 	bne	r2,zero,83234 <___vfprintf_internal_r+0x6e0>
   830e0:	843ffc04 	addi	r16,r16,-16
   830e4:	dc800e17 	ldw	r18,56(sp)
   830e8:	dc400d17 	ldw	r17,52(sp)
   830ec:	dd401904 	addi	r21,sp,100
   830f0:	9c3fed16 	blt	r19,r16,830a8 <___vfprintf_internal_r+0x554>
   830f4:	9425883a 	add	r18,r18,r16
   830f8:	8c400044 	addi	r17,r17,1
   830fc:	008001c4 	movi	r2,7
   83100:	af000015 	stw	fp,0(r21)
   83104:	ac000115 	stw	r16,4(r21)
   83108:	dc800e15 	stw	r18,56(sp)
   8310c:	dc400d15 	stw	r17,52(sp)
   83110:	14418216 	blt	r2,r17,8371c <___vfprintf_internal_r+0xbc8>
   83114:	ad400204 	addi	r21,r21,8
   83118:	d9014c17 	ldw	r4,1328(sp)
   8311c:	2080400c 	andi	r2,r4,256
   83120:	10004a1e 	bne	r2,zero,8324c <___vfprintf_internal_r+0x6f8>
   83124:	d9414117 	ldw	r5,1284(sp)
   83128:	91e5883a 	add	r18,r18,r7
   8312c:	8c400044 	addi	r17,r17,1
   83130:	008001c4 	movi	r2,7
   83134:	a9400015 	stw	r5,0(r21)
   83138:	a9c00115 	stw	r7,4(r21)
   8313c:	dc800e15 	stw	r18,56(sp)
   83140:	dc400d15 	stw	r17,52(sp)
   83144:	14416716 	blt	r2,r17,836e4 <___vfprintf_internal_r+0xb90>
   83148:	a8c00204 	addi	r3,r21,8
   8314c:	d9814c17 	ldw	r6,1328(sp)
   83150:	3080010c 	andi	r2,r6,4
   83154:	10002826 	beq	r2,zero,831f8 <___vfprintf_internal_r+0x6a4>
   83158:	d8814a17 	ldw	r2,1320(sp)
   8315c:	d9014517 	ldw	r4,1300(sp)
   83160:	1121c83a 	sub	r16,r2,r4
   83164:	0400240e 	bge	zero,r16,831f8 <___vfprintf_internal_r+0x6a4>
   83168:	00800404 	movi	r2,16
   8316c:	1404550e 	bge	r2,r16,842c4 <___vfprintf_internal_r+0x1770>
   83170:	dc400d17 	ldw	r17,52(sp)
   83174:	1027883a 	mov	r19,r2
   83178:	070002b4 	movhi	fp,10
   8317c:	e7274d84 	addi	fp,fp,-25290
   83180:	050001c4 	movi	r20,7
   83184:	00000306 	br	83194 <___vfprintf_internal_r+0x640>
   83188:	843ffc04 	addi	r16,r16,-16
   8318c:	18c00204 	addi	r3,r3,8
   83190:	9c00110e 	bge	r19,r16,831d8 <___vfprintf_internal_r+0x684>
   83194:	94800404 	addi	r18,r18,16
   83198:	8c400044 	addi	r17,r17,1
   8319c:	1f000015 	stw	fp,0(r3)
   831a0:	1cc00115 	stw	r19,4(r3)
   831a4:	dc800e15 	stw	r18,56(sp)
   831a8:	dc400d15 	stw	r17,52(sp)
   831ac:	a47ff60e 	bge	r20,r17,83188 <___vfprintf_internal_r+0x634>
   831b0:	d9014f17 	ldw	r4,1340(sp)
   831b4:	b00b883a 	mov	r5,r22
   831b8:	d9800c04 	addi	r6,sp,48
   831bc:	0082afc0 	call	82afc <__sprint_r>
   831c0:	10001c1e 	bne	r2,zero,83234 <___vfprintf_internal_r+0x6e0>
   831c4:	843ffc04 	addi	r16,r16,-16
   831c8:	dc800e17 	ldw	r18,56(sp)
   831cc:	dc400d17 	ldw	r17,52(sp)
   831d0:	d8c01904 	addi	r3,sp,100
   831d4:	9c3fef16 	blt	r19,r16,83194 <___vfprintf_internal_r+0x640>
   831d8:	9425883a 	add	r18,r18,r16
   831dc:	8c400044 	addi	r17,r17,1
   831e0:	008001c4 	movi	r2,7
   831e4:	1f000015 	stw	fp,0(r3)
   831e8:	1c000115 	stw	r16,4(r3)
   831ec:	dc800e15 	stw	r18,56(sp)
   831f0:	dc400d15 	stw	r17,52(sp)
   831f4:	1440cb16 	blt	r2,r17,83524 <___vfprintf_internal_r+0x9d0>
   831f8:	d8814a17 	ldw	r2,1320(sp)
   831fc:	d9414517 	ldw	r5,1300(sp)
   83200:	1140010e 	bge	r2,r5,83208 <___vfprintf_internal_r+0x6b4>
   83204:	2805883a 	mov	r2,r5
   83208:	d9814b17 	ldw	r6,1324(sp)
   8320c:	308d883a 	add	r6,r6,r2
   83210:	d9814b15 	stw	r6,1324(sp)
   83214:	90013b1e 	bne	r18,zero,83704 <___vfprintf_internal_r+0xbb0>
   83218:	d9c14017 	ldw	r7,1280(sp)
   8321c:	dd401904 	addi	r21,sp,100
   83220:	d8000d15 	stw	zero,52(sp)
   83224:	003ea706 	br	82cc4 <___vfprintf_internal_r+0x170>
   83228:	d8800e17 	ldw	r2,56(sp)
   8322c:	1005451e 	bne	r2,zero,84744 <___vfprintf_internal_r+0x1bf0>
   83230:	d8000d15 	stw	zero,52(sp)
   83234:	b080030b 	ldhu	r2,12(r22)
   83238:	1080100c 	andi	r2,r2,64
   8323c:	103e8726 	beq	r2,zero,82c5c <___vfprintf_internal_r+0x108>
   83240:	00bfffc4 	movi	r2,-1
   83244:	d8814b15 	stw	r2,1324(sp)
   83248:	003e8406 	br	82c5c <___vfprintf_internal_r+0x108>
   8324c:	d9814d17 	ldw	r6,1332(sp)
   83250:	00801944 	movi	r2,101
   83254:	11806e16 	blt	r2,r6,83410 <___vfprintf_internal_r+0x8bc>
   83258:	d9414717 	ldw	r5,1308(sp)
   8325c:	00c00044 	movi	r3,1
   83260:	1943490e 	bge	r3,r5,83f88 <___vfprintf_internal_r+0x1434>
   83264:	d8814117 	ldw	r2,1284(sp)
   83268:	94800044 	addi	r18,r18,1
   8326c:	8c400044 	addi	r17,r17,1
   83270:	a8800015 	stw	r2,0(r21)
   83274:	008001c4 	movi	r2,7
   83278:	a8c00115 	stw	r3,4(r21)
   8327c:	dc800e15 	stw	r18,56(sp)
   83280:	dc400d15 	stw	r17,52(sp)
   83284:	1441ca16 	blt	r2,r17,839b0 <___vfprintf_internal_r+0xe5c>
   83288:	a8c00204 	addi	r3,r21,8
   8328c:	d9014917 	ldw	r4,1316(sp)
   83290:	00800044 	movi	r2,1
   83294:	94800044 	addi	r18,r18,1
   83298:	8c400044 	addi	r17,r17,1
   8329c:	18800115 	stw	r2,4(r3)
   832a0:	008001c4 	movi	r2,7
   832a4:	19000015 	stw	r4,0(r3)
   832a8:	dc800e15 	stw	r18,56(sp)
   832ac:	dc400d15 	stw	r17,52(sp)
   832b0:	1441b616 	blt	r2,r17,8398c <___vfprintf_internal_r+0xe38>
   832b4:	1cc00204 	addi	r19,r3,8
   832b8:	d9014217 	ldw	r4,1288(sp)
   832bc:	d9414317 	ldw	r5,1292(sp)
   832c0:	000d883a 	mov	r6,zero
   832c4:	000f883a 	mov	r7,zero
   832c8:	008ba640 	call	8ba64 <__nedf2>
   832cc:	10017426 	beq	r2,zero,838a0 <___vfprintf_internal_r+0xd4c>
   832d0:	d9414717 	ldw	r5,1308(sp)
   832d4:	d9814117 	ldw	r6,1284(sp)
   832d8:	8c400044 	addi	r17,r17,1
   832dc:	2c85883a 	add	r2,r5,r18
   832e0:	14bfffc4 	addi	r18,r2,-1
   832e4:	28bfffc4 	addi	r2,r5,-1
   832e8:	30c00044 	addi	r3,r6,1
   832ec:	98800115 	stw	r2,4(r19)
   832f0:	008001c4 	movi	r2,7
   832f4:	98c00015 	stw	r3,0(r19)
   832f8:	dc800e15 	stw	r18,56(sp)
   832fc:	dc400d15 	stw	r17,52(sp)
   83300:	14418e16 	blt	r2,r17,8393c <___vfprintf_internal_r+0xde8>
   83304:	9cc00204 	addi	r19,r19,8
   83308:	d9414817 	ldw	r5,1312(sp)
   8330c:	d8800804 	addi	r2,sp,32
   83310:	8c400044 	addi	r17,r17,1
   83314:	9165883a 	add	r18,r18,r5
   83318:	98800015 	stw	r2,0(r19)
   8331c:	008001c4 	movi	r2,7
   83320:	99400115 	stw	r5,4(r19)
   83324:	dc800e15 	stw	r18,56(sp)
   83328:	dc400d15 	stw	r17,52(sp)
   8332c:	1440ed16 	blt	r2,r17,836e4 <___vfprintf_internal_r+0xb90>
   83330:	98c00204 	addi	r3,r19,8
   83334:	003f8506 	br	8314c <___vfprintf_internal_r+0x5f8>
   83338:	d9814a17 	ldw	r6,1320(sp)
   8333c:	d8814517 	ldw	r2,1300(sp)
   83340:	30a1c83a 	sub	r16,r6,r2
   83344:	043f4b0e 	bge	zero,r16,83074 <___vfprintf_internal_r+0x520>
   83348:	00800404 	movi	r2,16
   8334c:	14043a0e 	bge	r2,r16,84438 <___vfprintf_internal_r+0x18e4>
   83350:	1027883a 	mov	r19,r2
   83354:	070002b4 	movhi	fp,10
   83358:	e7274984 	addi	fp,fp,-25306
   8335c:	050001c4 	movi	r20,7
   83360:	00000306 	br	83370 <___vfprintf_internal_r+0x81c>
   83364:	843ffc04 	addi	r16,r16,-16
   83368:	ad400204 	addi	r21,r21,8
   8336c:	9c00130e 	bge	r19,r16,833bc <___vfprintf_internal_r+0x868>
   83370:	94800404 	addi	r18,r18,16
   83374:	8c400044 	addi	r17,r17,1
   83378:	af000015 	stw	fp,0(r21)
   8337c:	acc00115 	stw	r19,4(r21)
   83380:	dc800e15 	stw	r18,56(sp)
   83384:	dc400d15 	stw	r17,52(sp)
   83388:	a47ff60e 	bge	r20,r17,83364 <___vfprintf_internal_r+0x810>
   8338c:	d9014f17 	ldw	r4,1340(sp)
   83390:	b00b883a 	mov	r5,r22
   83394:	d9800c04 	addi	r6,sp,48
   83398:	d9c15115 	stw	r7,1348(sp)
   8339c:	0082afc0 	call	82afc <__sprint_r>
   833a0:	d9c15117 	ldw	r7,1348(sp)
   833a4:	103fa31e 	bne	r2,zero,83234 <___vfprintf_internal_r+0x6e0>
   833a8:	843ffc04 	addi	r16,r16,-16
   833ac:	dc800e17 	ldw	r18,56(sp)
   833b0:	dc400d17 	ldw	r17,52(sp)
   833b4:	dd401904 	addi	r21,sp,100
   833b8:	9c3fed16 	blt	r19,r16,83370 <___vfprintf_internal_r+0x81c>
   833bc:	9425883a 	add	r18,r18,r16
   833c0:	8c400044 	addi	r17,r17,1
   833c4:	008001c4 	movi	r2,7
   833c8:	af000015 	stw	fp,0(r21)
   833cc:	ac000115 	stw	r16,4(r21)
   833d0:	dc800e15 	stw	r18,56(sp)
   833d4:	dc400d15 	stw	r17,52(sp)
   833d8:	14416116 	blt	r2,r17,83960 <___vfprintf_internal_r+0xe0c>
   833dc:	ad400204 	addi	r21,r21,8
   833e0:	003f2406 	br	83074 <___vfprintf_internal_r+0x520>
   833e4:	d9014f17 	ldw	r4,1340(sp)
   833e8:	00866080 	call	86608 <__sinit>
   833ec:	d9c15117 	ldw	r7,1348(sp)
   833f0:	003def06 	br	82bb0 <___vfprintf_internal_r+0x5c>
   833f4:	d9014f17 	ldw	r4,1340(sp)
   833f8:	b00b883a 	mov	r5,r22
   833fc:	d9c15115 	stw	r7,1348(sp)
   83400:	0084a3c0 	call	84a3c <__swsetup_r>
   83404:	d9c15117 	ldw	r7,1348(sp)
   83408:	103dee26 	beq	r2,zero,82bc4 <___vfprintf_internal_r+0x70>
   8340c:	003f8c06 	br	83240 <___vfprintf_internal_r+0x6ec>
   83410:	d9014217 	ldw	r4,1288(sp)
   83414:	d9414317 	ldw	r5,1292(sp)
   83418:	000d883a 	mov	r6,zero
   8341c:	000f883a 	mov	r7,zero
   83420:	008b9dc0 	call	8b9dc <__eqdf2>
   83424:	1000f21e 	bne	r2,zero,837f0 <___vfprintf_internal_r+0xc9c>
   83428:	008002b4 	movhi	r2,10
   8342c:	10a74904 	addi	r2,r2,-25308
   83430:	94800044 	addi	r18,r18,1
   83434:	8c400044 	addi	r17,r17,1
   83438:	a8800015 	stw	r2,0(r21)
   8343c:	00c00044 	movi	r3,1
   83440:	008001c4 	movi	r2,7
   83444:	a8c00115 	stw	r3,4(r21)
   83448:	dc800e15 	stw	r18,56(sp)
   8344c:	dc400d15 	stw	r17,52(sp)
   83450:	14430016 	blt	r2,r17,84054 <___vfprintf_internal_r+0x1500>
   83454:	a8c00204 	addi	r3,r21,8
   83458:	d8800517 	ldw	r2,20(sp)
   8345c:	d9014717 	ldw	r4,1308(sp)
   83460:	11015c0e 	bge	r2,r4,839d4 <___vfprintf_internal_r+0xe80>
   83464:	dc400d17 	ldw	r17,52(sp)
   83468:	d9814917 	ldw	r6,1316(sp)
   8346c:	00800044 	movi	r2,1
   83470:	94800044 	addi	r18,r18,1
   83474:	8c400044 	addi	r17,r17,1
   83478:	18800115 	stw	r2,4(r3)
   8347c:	008001c4 	movi	r2,7
   83480:	19800015 	stw	r6,0(r3)
   83484:	dc800e15 	stw	r18,56(sp)
   83488:	dc400d15 	stw	r17,52(sp)
   8348c:	14431616 	blt	r2,r17,840e8 <___vfprintf_internal_r+0x1594>
   83490:	18c00204 	addi	r3,r3,8
   83494:	d8814717 	ldw	r2,1308(sp)
   83498:	143fffc4 	addi	r16,r2,-1
   8349c:	043f2b0e 	bge	zero,r16,8314c <___vfprintf_internal_r+0x5f8>
   834a0:	00800404 	movi	r2,16
   834a4:	1402a80e 	bge	r2,r16,83f48 <___vfprintf_internal_r+0x13f4>
   834a8:	dc400d17 	ldw	r17,52(sp)
   834ac:	1027883a 	mov	r19,r2
   834b0:	070002b4 	movhi	fp,10
   834b4:	e7274984 	addi	fp,fp,-25306
   834b8:	050001c4 	movi	r20,7
   834bc:	00000306 	br	834cc <___vfprintf_internal_r+0x978>
   834c0:	18c00204 	addi	r3,r3,8
   834c4:	843ffc04 	addi	r16,r16,-16
   834c8:	9c02a20e 	bge	r19,r16,83f54 <___vfprintf_internal_r+0x1400>
   834cc:	94800404 	addi	r18,r18,16
   834d0:	8c400044 	addi	r17,r17,1
   834d4:	1f000015 	stw	fp,0(r3)
   834d8:	1cc00115 	stw	r19,4(r3)
   834dc:	dc800e15 	stw	r18,56(sp)
   834e0:	dc400d15 	stw	r17,52(sp)
   834e4:	a47ff60e 	bge	r20,r17,834c0 <___vfprintf_internal_r+0x96c>
   834e8:	d9014f17 	ldw	r4,1340(sp)
   834ec:	b00b883a 	mov	r5,r22
   834f0:	d9800c04 	addi	r6,sp,48
   834f4:	0082afc0 	call	82afc <__sprint_r>
   834f8:	103f4e1e 	bne	r2,zero,83234 <___vfprintf_internal_r+0x6e0>
   834fc:	dc800e17 	ldw	r18,56(sp)
   83500:	dc400d17 	ldw	r17,52(sp)
   83504:	d8c01904 	addi	r3,sp,100
   83508:	003fee06 	br	834c4 <___vfprintf_internal_r+0x970>
   8350c:	d8802c0b 	ldhu	r2,176(sp)
   83510:	00ffffc4 	movi	r3,-1
   83514:	d8c14b15 	stw	r3,1324(sp)
   83518:	1080100c 	andi	r2,r2,64
   8351c:	103dcc1e 	bne	r2,zero,82c50 <___vfprintf_internal_r+0xfc>
   83520:	003dce06 	br	82c5c <___vfprintf_internal_r+0x108>
   83524:	d9014f17 	ldw	r4,1340(sp)
   83528:	b00b883a 	mov	r5,r22
   8352c:	d9800c04 	addi	r6,sp,48
   83530:	0082afc0 	call	82afc <__sprint_r>
   83534:	103f3f1e 	bne	r2,zero,83234 <___vfprintf_internal_r+0x6e0>
   83538:	dc800e17 	ldw	r18,56(sp)
   8353c:	003f2e06 	br	831f8 <___vfprintf_internal_r+0x6a4>
   83540:	d9414c17 	ldw	r5,1328(sp)
   83544:	29400414 	ori	r5,r5,16
   83548:	d9414c15 	stw	r5,1328(sp)
   8354c:	d9814c17 	ldw	r6,1328(sp)
   83550:	3080080c 	andi	r2,r6,32
   83554:	10014f1e 	bne	r2,zero,83a94 <___vfprintf_internal_r+0xf40>
   83558:	d8c14c17 	ldw	r3,1328(sp)
   8355c:	1880040c 	andi	r2,r3,16
   83560:	1002f01e 	bne	r2,zero,84124 <___vfprintf_internal_r+0x15d0>
   83564:	d9014c17 	ldw	r4,1328(sp)
   83568:	2080100c 	andi	r2,r4,64
   8356c:	1002ed26 	beq	r2,zero,84124 <___vfprintf_internal_r+0x15d0>
   83570:	3880000f 	ldh	r2,0(r7)
   83574:	39c00104 	addi	r7,r7,4
   83578:	d9c14015 	stw	r7,1280(sp)
   8357c:	1023d7fa 	srai	r17,r2,31
   83580:	1021883a 	mov	r16,r2
   83584:	88037816 	blt	r17,zero,84368 <___vfprintf_internal_r+0x1814>
   83588:	01000044 	movi	r4,1
   8358c:	98000416 	blt	r19,zero,835a0 <___vfprintf_internal_r+0xa4c>
   83590:	d8c14c17 	ldw	r3,1328(sp)
   83594:	00bfdfc4 	movi	r2,-129
   83598:	1886703a 	and	r3,r3,r2
   8359c:	d8c14c15 	stw	r3,1328(sp)
   835a0:	8444b03a 	or	r2,r16,r17
   835a4:	10022c1e 	bne	r2,zero,83e58 <___vfprintf_internal_r+0x1304>
   835a8:	98022b1e 	bne	r19,zero,83e58 <___vfprintf_internal_r+0x1304>
   835ac:	20803fcc 	andi	r2,r4,255
   835b0:	1002a126 	beq	r2,zero,84038 <___vfprintf_internal_r+0x14e4>
   835b4:	d8c01904 	addi	r3,sp,100
   835b8:	dd000f04 	addi	r20,sp,60
   835bc:	d8c14115 	stw	r3,1284(sp)
   835c0:	d8c14117 	ldw	r3,1284(sp)
   835c4:	dcc14515 	stw	r19,1300(sp)
   835c8:	a0c5c83a 	sub	r2,r20,r3
   835cc:	11c00a04 	addi	r7,r2,40
   835d0:	99c0010e 	bge	r19,r7,835d8 <___vfprintf_internal_r+0xa84>
   835d4:	d9c14515 	stw	r7,1300(sp)
   835d8:	dcc14615 	stw	r19,1304(sp)
   835dc:	d8800407 	ldb	r2,16(sp)
   835e0:	103e4c26 	beq	r2,zero,82f14 <___vfprintf_internal_r+0x3c0>
   835e4:	d8814517 	ldw	r2,1300(sp)
   835e8:	10800044 	addi	r2,r2,1
   835ec:	d8814515 	stw	r2,1300(sp)
   835f0:	003e4806 	br	82f14 <___vfprintf_internal_r+0x3c0>
   835f4:	d9814c17 	ldw	r6,1328(sp)
   835f8:	31800414 	ori	r6,r6,16
   835fc:	d9814c15 	stw	r6,1328(sp)
   83600:	d8c14c17 	ldw	r3,1328(sp)
   83604:	1880080c 	andi	r2,r3,32
   83608:	1001271e 	bne	r2,zero,83aa8 <___vfprintf_internal_r+0xf54>
   8360c:	d9414c17 	ldw	r5,1328(sp)
   83610:	2880040c 	andi	r2,r5,16
   83614:	1002bc1e 	bne	r2,zero,84108 <___vfprintf_internal_r+0x15b4>
   83618:	d9814c17 	ldw	r6,1328(sp)
   8361c:	3080100c 	andi	r2,r6,64
   83620:	1002b926 	beq	r2,zero,84108 <___vfprintf_internal_r+0x15b4>
   83624:	3c00000b 	ldhu	r16,0(r7)
   83628:	0009883a 	mov	r4,zero
   8362c:	39c00104 	addi	r7,r7,4
   83630:	0023883a 	mov	r17,zero
   83634:	d9c14015 	stw	r7,1280(sp)
   83638:	d8000405 	stb	zero,16(sp)
   8363c:	003fd306 	br	8358c <___vfprintf_internal_r+0xa38>
   83640:	d9014c17 	ldw	r4,1328(sp)
   83644:	21000414 	ori	r4,r4,16
   83648:	d9014c15 	stw	r4,1328(sp)
   8364c:	d9414c17 	ldw	r5,1328(sp)
   83650:	2880080c 	andi	r2,r5,32
   83654:	1001081e 	bne	r2,zero,83a78 <___vfprintf_internal_r+0xf24>
   83658:	d8c14c17 	ldw	r3,1328(sp)
   8365c:	1880040c 	andi	r2,r3,16
   83660:	1002b61e 	bne	r2,zero,8413c <___vfprintf_internal_r+0x15e8>
   83664:	d9014c17 	ldw	r4,1328(sp)
   83668:	2080100c 	andi	r2,r4,64
   8366c:	1002b326 	beq	r2,zero,8413c <___vfprintf_internal_r+0x15e8>
   83670:	3c00000b 	ldhu	r16,0(r7)
   83674:	01000044 	movi	r4,1
   83678:	39c00104 	addi	r7,r7,4
   8367c:	0023883a 	mov	r17,zero
   83680:	d9c14015 	stw	r7,1280(sp)
   83684:	d8000405 	stb	zero,16(sp)
   83688:	003fc006 	br	8358c <___vfprintf_internal_r+0xa38>
   8368c:	d9014f17 	ldw	r4,1340(sp)
   83690:	b00b883a 	mov	r5,r22
   83694:	d9800c04 	addi	r6,sp,48
   83698:	0082afc0 	call	82afc <__sprint_r>
   8369c:	103ee51e 	bne	r2,zero,83234 <___vfprintf_internal_r+0x6e0>
   836a0:	dc800e17 	ldw	r18,56(sp)
   836a4:	d8c01904 	addi	r3,sp,100
   836a8:	d9814c17 	ldw	r6,1328(sp)
   836ac:	3080004c 	andi	r2,r6,1
   836b0:	1005003a 	cmpeq	r2,r2,zero
   836b4:	103ea51e 	bne	r2,zero,8314c <___vfprintf_internal_r+0x5f8>
   836b8:	00800044 	movi	r2,1
   836bc:	dc400d17 	ldw	r17,52(sp)
   836c0:	18800115 	stw	r2,4(r3)
   836c4:	d8814917 	ldw	r2,1316(sp)
   836c8:	94800044 	addi	r18,r18,1
   836cc:	8c400044 	addi	r17,r17,1
   836d0:	18800015 	stw	r2,0(r3)
   836d4:	008001c4 	movi	r2,7
   836d8:	dc800e15 	stw	r18,56(sp)
   836dc:	dc400d15 	stw	r17,52(sp)
   836e0:	1442240e 	bge	r2,r17,83f74 <___vfprintf_internal_r+0x1420>
   836e4:	d9014f17 	ldw	r4,1340(sp)
   836e8:	b00b883a 	mov	r5,r22
   836ec:	d9800c04 	addi	r6,sp,48
   836f0:	0082afc0 	call	82afc <__sprint_r>
   836f4:	103ecf1e 	bne	r2,zero,83234 <___vfprintf_internal_r+0x6e0>
   836f8:	dc800e17 	ldw	r18,56(sp)
   836fc:	d8c01904 	addi	r3,sp,100
   83700:	003e9206 	br	8314c <___vfprintf_internal_r+0x5f8>
   83704:	d9014f17 	ldw	r4,1340(sp)
   83708:	b00b883a 	mov	r5,r22
   8370c:	d9800c04 	addi	r6,sp,48
   83710:	0082afc0 	call	82afc <__sprint_r>
   83714:	103ec026 	beq	r2,zero,83218 <___vfprintf_internal_r+0x6c4>
   83718:	003ec606 	br	83234 <___vfprintf_internal_r+0x6e0>
   8371c:	d9014f17 	ldw	r4,1340(sp)
   83720:	b00b883a 	mov	r5,r22
   83724:	d9800c04 	addi	r6,sp,48
   83728:	d9c15115 	stw	r7,1348(sp)
   8372c:	0082afc0 	call	82afc <__sprint_r>
   83730:	d9c15117 	ldw	r7,1348(sp)
   83734:	103ebf1e 	bne	r2,zero,83234 <___vfprintf_internal_r+0x6e0>
   83738:	dc800e17 	ldw	r18,56(sp)
   8373c:	dc400d17 	ldw	r17,52(sp)
   83740:	dd401904 	addi	r21,sp,100
   83744:	003e7406 	br	83118 <___vfprintf_internal_r+0x5c4>
   83748:	d9014f17 	ldw	r4,1340(sp)
   8374c:	b00b883a 	mov	r5,r22
   83750:	d9800c04 	addi	r6,sp,48
   83754:	d9c15115 	stw	r7,1348(sp)
   83758:	0082afc0 	call	82afc <__sprint_r>
   8375c:	d9c15117 	ldw	r7,1348(sp)
   83760:	103eb41e 	bne	r2,zero,83234 <___vfprintf_internal_r+0x6e0>
   83764:	dd401904 	addi	r21,sp,100
   83768:	003d6d06 	br	82d20 <___vfprintf_internal_r+0x1cc>
   8376c:	d9014f17 	ldw	r4,1340(sp)
   83770:	b00b883a 	mov	r5,r22
   83774:	d9800c04 	addi	r6,sp,48
   83778:	d9c15115 	stw	r7,1348(sp)
   8377c:	0082afc0 	call	82afc <__sprint_r>
   83780:	d9c15117 	ldw	r7,1348(sp)
   83784:	103eab1e 	bne	r2,zero,83234 <___vfprintf_internal_r+0x6e0>
   83788:	dc800e17 	ldw	r18,56(sp)
   8378c:	dc400d17 	ldw	r17,52(sp)
   83790:	dd401904 	addi	r21,sp,100
   83794:	003e3406 	br	83068 <___vfprintf_internal_r+0x514>
   83798:	d9014f17 	ldw	r4,1340(sp)
   8379c:	b00b883a 	mov	r5,r22
   837a0:	d9800c04 	addi	r6,sp,48
   837a4:	d9c15115 	stw	r7,1348(sp)
   837a8:	0082afc0 	call	82afc <__sprint_r>
   837ac:	d9c15117 	ldw	r7,1348(sp)
   837b0:	103ea01e 	bne	r2,zero,83234 <___vfprintf_internal_r+0x6e0>
   837b4:	dc800e17 	ldw	r18,56(sp)
   837b8:	dc400d17 	ldw	r17,52(sp)
   837bc:	dd401904 	addi	r21,sp,100
   837c0:	003e1c06 	br	83034 <___vfprintf_internal_r+0x4e0>
   837c4:	d9014f17 	ldw	r4,1340(sp)
   837c8:	b00b883a 	mov	r5,r22
   837cc:	d9800c04 	addi	r6,sp,48
   837d0:	d9c15115 	stw	r7,1348(sp)
   837d4:	0082afc0 	call	82afc <__sprint_r>
   837d8:	d9c15117 	ldw	r7,1348(sp)
   837dc:	103e951e 	bne	r2,zero,83234 <___vfprintf_internal_r+0x6e0>
   837e0:	dc800e17 	ldw	r18,56(sp)
   837e4:	dc400d17 	ldw	r17,52(sp)
   837e8:	dd401904 	addi	r21,sp,100
   837ec:	003e0406 	br	83000 <___vfprintf_internal_r+0x4ac>
   837f0:	d9000517 	ldw	r4,20(sp)
   837f4:	0102580e 	bge	zero,r4,84158 <___vfprintf_internal_r+0x1604>
   837f8:	d9814717 	ldw	r6,1308(sp)
   837fc:	21807a16 	blt	r4,r6,839e8 <___vfprintf_internal_r+0xe94>
   83800:	d8814117 	ldw	r2,1284(sp)
   83804:	91a5883a 	add	r18,r18,r6
   83808:	8c400044 	addi	r17,r17,1
   8380c:	a8800015 	stw	r2,0(r21)
   83810:	008001c4 	movi	r2,7
   83814:	a9800115 	stw	r6,4(r21)
   83818:	dc800e15 	stw	r18,56(sp)
   8381c:	dc400d15 	stw	r17,52(sp)
   83820:	1442fc16 	blt	r2,r17,84414 <___vfprintf_internal_r+0x18c0>
   83824:	a8c00204 	addi	r3,r21,8
   83828:	d9414717 	ldw	r5,1308(sp)
   8382c:	2161c83a 	sub	r16,r4,r5
   83830:	043f9d0e 	bge	zero,r16,836a8 <___vfprintf_internal_r+0xb54>
   83834:	00800404 	movi	r2,16
   83838:	1402190e 	bge	r2,r16,840a0 <___vfprintf_internal_r+0x154c>
   8383c:	dc400d17 	ldw	r17,52(sp)
   83840:	1027883a 	mov	r19,r2
   83844:	070002b4 	movhi	fp,10
   83848:	e7274984 	addi	fp,fp,-25306
   8384c:	050001c4 	movi	r20,7
   83850:	00000306 	br	83860 <___vfprintf_internal_r+0xd0c>
   83854:	18c00204 	addi	r3,r3,8
   83858:	843ffc04 	addi	r16,r16,-16
   8385c:	9c02130e 	bge	r19,r16,840ac <___vfprintf_internal_r+0x1558>
   83860:	94800404 	addi	r18,r18,16
   83864:	8c400044 	addi	r17,r17,1
   83868:	1f000015 	stw	fp,0(r3)
   8386c:	1cc00115 	stw	r19,4(r3)
   83870:	dc800e15 	stw	r18,56(sp)
   83874:	dc400d15 	stw	r17,52(sp)
   83878:	a47ff60e 	bge	r20,r17,83854 <___vfprintf_internal_r+0xd00>
   8387c:	d9014f17 	ldw	r4,1340(sp)
   83880:	b00b883a 	mov	r5,r22
   83884:	d9800c04 	addi	r6,sp,48
   83888:	0082afc0 	call	82afc <__sprint_r>
   8388c:	103e691e 	bne	r2,zero,83234 <___vfprintf_internal_r+0x6e0>
   83890:	dc800e17 	ldw	r18,56(sp)
   83894:	dc400d17 	ldw	r17,52(sp)
   83898:	d8c01904 	addi	r3,sp,100
   8389c:	003fee06 	br	83858 <___vfprintf_internal_r+0xd04>
   838a0:	d8814717 	ldw	r2,1308(sp)
   838a4:	143fffc4 	addi	r16,r2,-1
   838a8:	043e970e 	bge	zero,r16,83308 <___vfprintf_internal_r+0x7b4>
   838ac:	00800404 	movi	r2,16
   838b0:	1400180e 	bge	r2,r16,83914 <___vfprintf_internal_r+0xdc0>
   838b4:	1029883a 	mov	r20,r2
   838b8:	070002b4 	movhi	fp,10
   838bc:	e7274984 	addi	fp,fp,-25306
   838c0:	054001c4 	movi	r21,7
   838c4:	00000306 	br	838d4 <___vfprintf_internal_r+0xd80>
   838c8:	9cc00204 	addi	r19,r19,8
   838cc:	843ffc04 	addi	r16,r16,-16
   838d0:	a400120e 	bge	r20,r16,8391c <___vfprintf_internal_r+0xdc8>
   838d4:	94800404 	addi	r18,r18,16
   838d8:	8c400044 	addi	r17,r17,1
   838dc:	9f000015 	stw	fp,0(r19)
   838e0:	9d000115 	stw	r20,4(r19)
   838e4:	dc800e15 	stw	r18,56(sp)
   838e8:	dc400d15 	stw	r17,52(sp)
   838ec:	ac7ff60e 	bge	r21,r17,838c8 <___vfprintf_internal_r+0xd74>
   838f0:	d9014f17 	ldw	r4,1340(sp)
   838f4:	b00b883a 	mov	r5,r22
   838f8:	d9800c04 	addi	r6,sp,48
   838fc:	0082afc0 	call	82afc <__sprint_r>
   83900:	103e4c1e 	bne	r2,zero,83234 <___vfprintf_internal_r+0x6e0>
   83904:	dc800e17 	ldw	r18,56(sp)
   83908:	dc400d17 	ldw	r17,52(sp)
   8390c:	dcc01904 	addi	r19,sp,100
   83910:	003fee06 	br	838cc <___vfprintf_internal_r+0xd78>
   83914:	070002b4 	movhi	fp,10
   83918:	e7274984 	addi	fp,fp,-25306
   8391c:	9425883a 	add	r18,r18,r16
   83920:	8c400044 	addi	r17,r17,1
   83924:	008001c4 	movi	r2,7
   83928:	9f000015 	stw	fp,0(r19)
   8392c:	9c000115 	stw	r16,4(r19)
   83930:	dc800e15 	stw	r18,56(sp)
   83934:	dc400d15 	stw	r17,52(sp)
   83938:	147e720e 	bge	r2,r17,83304 <___vfprintf_internal_r+0x7b0>
   8393c:	d9014f17 	ldw	r4,1340(sp)
   83940:	b00b883a 	mov	r5,r22
   83944:	d9800c04 	addi	r6,sp,48
   83948:	0082afc0 	call	82afc <__sprint_r>
   8394c:	103e391e 	bne	r2,zero,83234 <___vfprintf_internal_r+0x6e0>
   83950:	dc800e17 	ldw	r18,56(sp)
   83954:	dc400d17 	ldw	r17,52(sp)
   83958:	dcc01904 	addi	r19,sp,100
   8395c:	003e6a06 	br	83308 <___vfprintf_internal_r+0x7b4>
   83960:	d9014f17 	ldw	r4,1340(sp)
   83964:	b00b883a 	mov	r5,r22
   83968:	d9800c04 	addi	r6,sp,48
   8396c:	d9c15115 	stw	r7,1348(sp)
   83970:	0082afc0 	call	82afc <__sprint_r>
   83974:	d9c15117 	ldw	r7,1348(sp)
   83978:	103e2e1e 	bne	r2,zero,83234 <___vfprintf_internal_r+0x6e0>
   8397c:	dc800e17 	ldw	r18,56(sp)
   83980:	dc400d17 	ldw	r17,52(sp)
   83984:	dd401904 	addi	r21,sp,100
   83988:	003dba06 	br	83074 <___vfprintf_internal_r+0x520>
   8398c:	d9014f17 	ldw	r4,1340(sp)
   83990:	b00b883a 	mov	r5,r22
   83994:	d9800c04 	addi	r6,sp,48
   83998:	0082afc0 	call	82afc <__sprint_r>
   8399c:	103e251e 	bne	r2,zero,83234 <___vfprintf_internal_r+0x6e0>
   839a0:	dc800e17 	ldw	r18,56(sp)
   839a4:	dc400d17 	ldw	r17,52(sp)
   839a8:	dcc01904 	addi	r19,sp,100
   839ac:	003e4206 	br	832b8 <___vfprintf_internal_r+0x764>
   839b0:	d9014f17 	ldw	r4,1340(sp)
   839b4:	b00b883a 	mov	r5,r22
   839b8:	d9800c04 	addi	r6,sp,48
   839bc:	0082afc0 	call	82afc <__sprint_r>
   839c0:	103e1c1e 	bne	r2,zero,83234 <___vfprintf_internal_r+0x6e0>
   839c4:	dc800e17 	ldw	r18,56(sp)
   839c8:	dc400d17 	ldw	r17,52(sp)
   839cc:	d8c01904 	addi	r3,sp,100
   839d0:	003e2e06 	br	8328c <___vfprintf_internal_r+0x738>
   839d4:	d9414c17 	ldw	r5,1328(sp)
   839d8:	2880004c 	andi	r2,r5,1
   839dc:	1005003a 	cmpeq	r2,r2,zero
   839e0:	103dda1e 	bne	r2,zero,8314c <___vfprintf_internal_r+0x5f8>
   839e4:	003e9f06 	br	83464 <___vfprintf_internal_r+0x910>
   839e8:	d8c14117 	ldw	r3,1284(sp)
   839ec:	9125883a 	add	r18,r18,r4
   839f0:	8c400044 	addi	r17,r17,1
   839f4:	008001c4 	movi	r2,7
   839f8:	a8c00015 	stw	r3,0(r21)
   839fc:	a9000115 	stw	r4,4(r21)
   83a00:	dc800e15 	stw	r18,56(sp)
   83a04:	dc400d15 	stw	r17,52(sp)
   83a08:	14426c16 	blt	r2,r17,843bc <___vfprintf_internal_r+0x1868>
   83a0c:	a8c00204 	addi	r3,r21,8
   83a10:	d9414917 	ldw	r5,1316(sp)
   83a14:	00800044 	movi	r2,1
   83a18:	94800044 	addi	r18,r18,1
   83a1c:	8c400044 	addi	r17,r17,1
   83a20:	18800115 	stw	r2,4(r3)
   83a24:	008001c4 	movi	r2,7
   83a28:	19400015 	stw	r5,0(r3)
   83a2c:	dc800e15 	stw	r18,56(sp)
   83a30:	dc400d15 	stw	r17,52(sp)
   83a34:	2021883a 	mov	r16,r4
   83a38:	14425616 	blt	r2,r17,84394 <___vfprintf_internal_r+0x1840>
   83a3c:	19400204 	addi	r5,r3,8
   83a40:	d9814717 	ldw	r6,1308(sp)
   83a44:	8c400044 	addi	r17,r17,1
   83a48:	dc400d15 	stw	r17,52(sp)
   83a4c:	3107c83a 	sub	r3,r6,r4
   83a50:	d9014117 	ldw	r4,1284(sp)
   83a54:	90e5883a 	add	r18,r18,r3
   83a58:	28c00115 	stw	r3,4(r5)
   83a5c:	8105883a 	add	r2,r16,r4
   83a60:	28800015 	stw	r2,0(r5)
   83a64:	008001c4 	movi	r2,7
   83a68:	dc800e15 	stw	r18,56(sp)
   83a6c:	147f1d16 	blt	r2,r17,836e4 <___vfprintf_internal_r+0xb90>
   83a70:	28c00204 	addi	r3,r5,8
   83a74:	003db506 	br	8314c <___vfprintf_internal_r+0x5f8>
   83a78:	3c000017 	ldw	r16,0(r7)
   83a7c:	3c400117 	ldw	r17,4(r7)
   83a80:	39800204 	addi	r6,r7,8
   83a84:	01000044 	movi	r4,1
   83a88:	d9814015 	stw	r6,1280(sp)
   83a8c:	d8000405 	stb	zero,16(sp)
   83a90:	003ebe06 	br	8358c <___vfprintf_internal_r+0xa38>
   83a94:	3c000017 	ldw	r16,0(r7)
   83a98:	3c400117 	ldw	r17,4(r7)
   83a9c:	38800204 	addi	r2,r7,8
   83aa0:	d8814015 	stw	r2,1280(sp)
   83aa4:	003eb706 	br	83584 <___vfprintf_internal_r+0xa30>
   83aa8:	3c000017 	ldw	r16,0(r7)
   83aac:	3c400117 	ldw	r17,4(r7)
   83ab0:	39000204 	addi	r4,r7,8
   83ab4:	d9014015 	stw	r4,1280(sp)
   83ab8:	0009883a 	mov	r4,zero
   83abc:	d8000405 	stb	zero,16(sp)
   83ac0:	003eb206 	br	8358c <___vfprintf_internal_r+0xa38>
   83ac4:	38c00017 	ldw	r3,0(r7)
   83ac8:	39c00104 	addi	r7,r7,4
   83acc:	d8c14a15 	stw	r3,1320(sp)
   83ad0:	1800d70e 	bge	r3,zero,83e30 <___vfprintf_internal_r+0x12dc>
   83ad4:	00c7c83a 	sub	r3,zero,r3
   83ad8:	d8c14a15 	stw	r3,1320(sp)
   83adc:	d9014c17 	ldw	r4,1328(sp)
   83ae0:	b8c00007 	ldb	r3,0(r23)
   83ae4:	21000114 	ori	r4,r4,4
   83ae8:	d9014c15 	stw	r4,1328(sp)
   83aec:	003c9806 	br	82d50 <___vfprintf_internal_r+0x1fc>
   83af0:	d9814c17 	ldw	r6,1328(sp)
   83af4:	3080080c 	andi	r2,r6,32
   83af8:	1001f626 	beq	r2,zero,842d4 <___vfprintf_internal_r+0x1780>
   83afc:	d9014b17 	ldw	r4,1324(sp)
   83b00:	38800017 	ldw	r2,0(r7)
   83b04:	39c00104 	addi	r7,r7,4
   83b08:	d9c14015 	stw	r7,1280(sp)
   83b0c:	2007d7fa 	srai	r3,r4,31
   83b10:	d9c14017 	ldw	r7,1280(sp)
   83b14:	11000015 	stw	r4,0(r2)
   83b18:	10c00115 	stw	r3,4(r2)
   83b1c:	003c6906 	br	82cc4 <___vfprintf_internal_r+0x170>
   83b20:	b8c00007 	ldb	r3,0(r23)
   83b24:	00801b04 	movi	r2,108
   83b28:	18825526 	beq	r3,r2,84480 <___vfprintf_internal_r+0x192c>
   83b2c:	d9414c17 	ldw	r5,1328(sp)
   83b30:	29400414 	ori	r5,r5,16
   83b34:	d9414c15 	stw	r5,1328(sp)
   83b38:	003c8506 	br	82d50 <___vfprintf_internal_r+0x1fc>
   83b3c:	d9814c17 	ldw	r6,1328(sp)
   83b40:	b8c00007 	ldb	r3,0(r23)
   83b44:	31800814 	ori	r6,r6,32
   83b48:	d9814c15 	stw	r6,1328(sp)
   83b4c:	003c8006 	br	82d50 <___vfprintf_internal_r+0x1fc>
   83b50:	d8814c17 	ldw	r2,1328(sp)
   83b54:	3c000017 	ldw	r16,0(r7)
   83b58:	00c01e04 	movi	r3,120
   83b5c:	10800094 	ori	r2,r2,2
   83b60:	d8814c15 	stw	r2,1328(sp)
   83b64:	39c00104 	addi	r7,r7,4
   83b68:	014002b4 	movhi	r5,10
   83b6c:	29673204 	addi	r5,r5,-25400
   83b70:	00800c04 	movi	r2,48
   83b74:	0023883a 	mov	r17,zero
   83b78:	01000084 	movi	r4,2
   83b7c:	d9c14015 	stw	r7,1280(sp)
   83b80:	d8c14d15 	stw	r3,1332(sp)
   83b84:	d9414415 	stw	r5,1296(sp)
   83b88:	d8800445 	stb	r2,17(sp)
   83b8c:	d8c00485 	stb	r3,18(sp)
   83b90:	d8000405 	stb	zero,16(sp)
   83b94:	003e7d06 	br	8358c <___vfprintf_internal_r+0xa38>
   83b98:	d8814c17 	ldw	r2,1328(sp)
   83b9c:	b8c00007 	ldb	r3,0(r23)
   83ba0:	10801014 	ori	r2,r2,64
   83ba4:	d8814c15 	stw	r2,1328(sp)
   83ba8:	003c6906 	br	82d50 <___vfprintf_internal_r+0x1fc>
   83bac:	d9414c17 	ldw	r5,1328(sp)
   83bb0:	2880020c 	andi	r2,r5,8
   83bb4:	1001e526 	beq	r2,zero,8434c <___vfprintf_internal_r+0x17f8>
   83bb8:	39800017 	ldw	r6,0(r7)
   83bbc:	38800204 	addi	r2,r7,8
   83bc0:	d8814015 	stw	r2,1280(sp)
   83bc4:	d9814215 	stw	r6,1288(sp)
   83bc8:	39c00117 	ldw	r7,4(r7)
   83bcc:	d9c14315 	stw	r7,1292(sp)
   83bd0:	d9014217 	ldw	r4,1288(sp)
   83bd4:	d9414317 	ldw	r5,1292(sp)
   83bd8:	00897f00 	call	897f0 <__isinfd>
   83bdc:	10021d26 	beq	r2,zero,84454 <___vfprintf_internal_r+0x1900>
   83be0:	d9014217 	ldw	r4,1288(sp)
   83be4:	d9414317 	ldw	r5,1292(sp)
   83be8:	000d883a 	mov	r6,zero
   83bec:	000f883a 	mov	r7,zero
   83bf0:	008bbfc0 	call	8bbfc <__ltdf2>
   83bf4:	1002d016 	blt	r2,zero,84738 <___vfprintf_internal_r+0x1be4>
   83bf8:	d9414d17 	ldw	r5,1332(sp)
   83bfc:	008011c4 	movi	r2,71
   83c00:	11421016 	blt	r2,r5,84444 <___vfprintf_internal_r+0x18f0>
   83c04:	018002b4 	movhi	r6,10
   83c08:	31a73704 	addi	r6,r6,-25380
   83c0c:	d9814115 	stw	r6,1284(sp)
   83c10:	d9014c17 	ldw	r4,1328(sp)
   83c14:	00c000c4 	movi	r3,3
   83c18:	00bfdfc4 	movi	r2,-129
   83c1c:	2088703a 	and	r4,r4,r2
   83c20:	180f883a 	mov	r7,r3
   83c24:	d8c14515 	stw	r3,1300(sp)
   83c28:	d9014c15 	stw	r4,1328(sp)
   83c2c:	d8014615 	stw	zero,1304(sp)
   83c30:	003e6a06 	br	835dc <___vfprintf_internal_r+0xa88>
   83c34:	38800017 	ldw	r2,0(r7)
   83c38:	00c00044 	movi	r3,1
   83c3c:	39c00104 	addi	r7,r7,4
   83c40:	d9c14015 	stw	r7,1280(sp)
   83c44:	d9000f04 	addi	r4,sp,60
   83c48:	180f883a 	mov	r7,r3
   83c4c:	d8c14515 	stw	r3,1300(sp)
   83c50:	d9014115 	stw	r4,1284(sp)
   83c54:	d8800f05 	stb	r2,60(sp)
   83c58:	d8000405 	stb	zero,16(sp)
   83c5c:	003cac06 	br	82f10 <___vfprintf_internal_r+0x3bc>
   83c60:	014002b4 	movhi	r5,10
   83c64:	29673d04 	addi	r5,r5,-25356
   83c68:	d9414415 	stw	r5,1296(sp)
   83c6c:	d9814c17 	ldw	r6,1328(sp)
   83c70:	3080080c 	andi	r2,r6,32
   83c74:	1000ff26 	beq	r2,zero,84074 <___vfprintf_internal_r+0x1520>
   83c78:	3c000017 	ldw	r16,0(r7)
   83c7c:	3c400117 	ldw	r17,4(r7)
   83c80:	38800204 	addi	r2,r7,8
   83c84:	d8814015 	stw	r2,1280(sp)
   83c88:	d9414c17 	ldw	r5,1328(sp)
   83c8c:	2880004c 	andi	r2,r5,1
   83c90:	1005003a 	cmpeq	r2,r2,zero
   83c94:	1000b91e 	bne	r2,zero,83f7c <___vfprintf_internal_r+0x1428>
   83c98:	8444b03a 	or	r2,r16,r17
   83c9c:	1000b726 	beq	r2,zero,83f7c <___vfprintf_internal_r+0x1428>
   83ca0:	d9814d17 	ldw	r6,1332(sp)
   83ca4:	29400094 	ori	r5,r5,2
   83ca8:	00800c04 	movi	r2,48
   83cac:	01000084 	movi	r4,2
   83cb0:	d9414c15 	stw	r5,1328(sp)
   83cb4:	d8800445 	stb	r2,17(sp)
   83cb8:	d9800485 	stb	r6,18(sp)
   83cbc:	d8000405 	stb	zero,16(sp)
   83cc0:	003e3206 	br	8358c <___vfprintf_internal_r+0xa38>
   83cc4:	018002b4 	movhi	r6,10
   83cc8:	31a73204 	addi	r6,r6,-25400
   83ccc:	d9814415 	stw	r6,1296(sp)
   83cd0:	003fe606 	br	83c6c <___vfprintf_internal_r+0x1118>
   83cd4:	00800ac4 	movi	r2,43
   83cd8:	d8800405 	stb	r2,16(sp)
   83cdc:	b8c00007 	ldb	r3,0(r23)
   83ce0:	003c1b06 	br	82d50 <___vfprintf_internal_r+0x1fc>
   83ce4:	d8814c17 	ldw	r2,1328(sp)
   83ce8:	b8c00007 	ldb	r3,0(r23)
   83cec:	10800054 	ori	r2,r2,1
   83cf0:	d8814c15 	stw	r2,1328(sp)
   83cf4:	003c1606 	br	82d50 <___vfprintf_internal_r+0x1fc>
   83cf8:	d8800407 	ldb	r2,16(sp)
   83cfc:	10004c1e 	bne	r2,zero,83e30 <___vfprintf_internal_r+0x12dc>
   83d00:	00800804 	movi	r2,32
   83d04:	d8800405 	stb	r2,16(sp)
   83d08:	b8c00007 	ldb	r3,0(r23)
   83d0c:	003c1006 	br	82d50 <___vfprintf_internal_r+0x1fc>
   83d10:	d9814c17 	ldw	r6,1328(sp)
   83d14:	b8c00007 	ldb	r3,0(r23)
   83d18:	31800214 	ori	r6,r6,8
   83d1c:	d9814c15 	stw	r6,1328(sp)
   83d20:	003c0b06 	br	82d50 <___vfprintf_internal_r+0x1fc>
   83d24:	0009883a 	mov	r4,zero
   83d28:	04000244 	movi	r16,9
   83d2c:	01400284 	movi	r5,10
   83d30:	d9c15115 	stw	r7,1348(sp)
   83d34:	00827200 	call	82720 <__mulsi3>
   83d38:	b9000007 	ldb	r4,0(r23)
   83d3c:	d8c14d17 	ldw	r3,1332(sp)
   83d40:	bdc00044 	addi	r23,r23,1
   83d44:	d9014d15 	stw	r4,1332(sp)
   83d48:	d9414d17 	ldw	r5,1332(sp)
   83d4c:	1885883a 	add	r2,r3,r2
   83d50:	113ff404 	addi	r4,r2,-48
   83d54:	28bff404 	addi	r2,r5,-48
   83d58:	d9c15117 	ldw	r7,1348(sp)
   83d5c:	80bff32e 	bgeu	r16,r2,83d2c <___vfprintf_internal_r+0x11d8>
   83d60:	d9014a15 	stw	r4,1320(sp)
   83d64:	003bfc06 	br	82d58 <___vfprintf_internal_r+0x204>
   83d68:	d8814c17 	ldw	r2,1328(sp)
   83d6c:	b8c00007 	ldb	r3,0(r23)
   83d70:	10802014 	ori	r2,r2,128
   83d74:	d8814c15 	stw	r2,1328(sp)
   83d78:	003bf506 	br	82d50 <___vfprintf_internal_r+0x1fc>
   83d7c:	b8c00007 	ldb	r3,0(r23)
   83d80:	00800a84 	movi	r2,42
   83d84:	bdc00044 	addi	r23,r23,1
   83d88:	18831826 	beq	r3,r2,849ec <___vfprintf_internal_r+0x1e98>
   83d8c:	d8c14d15 	stw	r3,1332(sp)
   83d90:	18bff404 	addi	r2,r3,-48
   83d94:	00c00244 	movi	r3,9
   83d98:	18827b36 	bltu	r3,r2,84788 <___vfprintf_internal_r+0x1c34>
   83d9c:	1821883a 	mov	r16,r3
   83da0:	0009883a 	mov	r4,zero
   83da4:	01400284 	movi	r5,10
   83da8:	d9c15115 	stw	r7,1348(sp)
   83dac:	00827200 	call	82720 <__mulsi3>
   83db0:	d9414d17 	ldw	r5,1332(sp)
   83db4:	b9800007 	ldb	r6,0(r23)
   83db8:	d9c15117 	ldw	r7,1348(sp)
   83dbc:	1145883a 	add	r2,r2,r5
   83dc0:	113ff404 	addi	r4,r2,-48
   83dc4:	30bff404 	addi	r2,r6,-48
   83dc8:	d9814d15 	stw	r6,1332(sp)
   83dcc:	bdc00044 	addi	r23,r23,1
   83dd0:	80bff42e 	bgeu	r16,r2,83da4 <___vfprintf_internal_r+0x1250>
   83dd4:	2027883a 	mov	r19,r4
   83dd8:	203bdf0e 	bge	r4,zero,82d58 <___vfprintf_internal_r+0x204>
   83ddc:	04ffffc4 	movi	r19,-1
   83de0:	003bdd06 	br	82d58 <___vfprintf_internal_r+0x204>
   83de4:	d8000405 	stb	zero,16(sp)
   83de8:	39800017 	ldw	r6,0(r7)
   83dec:	39c00104 	addi	r7,r7,4
   83df0:	d9c14015 	stw	r7,1280(sp)
   83df4:	d9814115 	stw	r6,1284(sp)
   83df8:	3001c926 	beq	r6,zero,84520 <___vfprintf_internal_r+0x19cc>
   83dfc:	98000e16 	blt	r19,zero,83e38 <___vfprintf_internal_r+0x12e4>
   83e00:	d9014117 	ldw	r4,1284(sp)
   83e04:	000b883a 	mov	r5,zero
   83e08:	980d883a 	mov	r6,r19
   83e0c:	0087c880 	call	87c88 <memchr>
   83e10:	10025926 	beq	r2,zero,84778 <___vfprintf_internal_r+0x1c24>
   83e14:	d8c14117 	ldw	r3,1284(sp)
   83e18:	10cfc83a 	sub	r7,r2,r3
   83e1c:	99c19e16 	blt	r19,r7,84498 <___vfprintf_internal_r+0x1944>
   83e20:	d9c14515 	stw	r7,1300(sp)
   83e24:	38000916 	blt	r7,zero,83e4c <___vfprintf_internal_r+0x12f8>
   83e28:	d8014615 	stw	zero,1304(sp)
   83e2c:	003deb06 	br	835dc <___vfprintf_internal_r+0xa88>
   83e30:	b8c00007 	ldb	r3,0(r23)
   83e34:	003bc606 	br	82d50 <___vfprintf_internal_r+0x1fc>
   83e38:	d9014117 	ldw	r4,1284(sp)
   83e3c:	0082a880 	call	82a88 <strlen>
   83e40:	d8814515 	stw	r2,1300(sp)
   83e44:	100f883a 	mov	r7,r2
   83e48:	103ff70e 	bge	r2,zero,83e28 <___vfprintf_internal_r+0x12d4>
   83e4c:	d8014515 	stw	zero,1300(sp)
   83e50:	d8014615 	stw	zero,1304(sp)
   83e54:	003de106 	br	835dc <___vfprintf_internal_r+0xa88>
   83e58:	20c03fcc 	andi	r3,r4,255
   83e5c:	00800044 	movi	r2,1
   83e60:	18802d26 	beq	r3,r2,83f18 <___vfprintf_internal_r+0x13c4>
   83e64:	18800e36 	bltu	r3,r2,83ea0 <___vfprintf_internal_r+0x134c>
   83e68:	00800084 	movi	r2,2
   83e6c:	1880fa26 	beq	r3,r2,84258 <___vfprintf_internal_r+0x1704>
   83e70:	010002b4 	movhi	r4,10
   83e74:	21274204 	addi	r4,r4,-25336
   83e78:	0082a880 	call	82a88 <strlen>
   83e7c:	100f883a 	mov	r7,r2
   83e80:	dcc14515 	stw	r19,1300(sp)
   83e84:	9880010e 	bge	r19,r2,83e8c <___vfprintf_internal_r+0x1338>
   83e88:	d8814515 	stw	r2,1300(sp)
   83e8c:	008002b4 	movhi	r2,10
   83e90:	10a74204 	addi	r2,r2,-25336
   83e94:	dcc14615 	stw	r19,1304(sp)
   83e98:	d8814115 	stw	r2,1284(sp)
   83e9c:	003dcf06 	br	835dc <___vfprintf_internal_r+0xa88>
   83ea0:	d9401904 	addi	r5,sp,100
   83ea4:	dd000f04 	addi	r20,sp,60
   83ea8:	d9414115 	stw	r5,1284(sp)
   83eac:	880a977a 	slli	r5,r17,29
   83eb0:	d9814117 	ldw	r6,1284(sp)
   83eb4:	8004d0fa 	srli	r2,r16,3
   83eb8:	8806d0fa 	srli	r3,r17,3
   83ebc:	810001cc 	andi	r4,r16,7
   83ec0:	2884b03a 	or	r2,r5,r2
   83ec4:	31bfffc4 	addi	r6,r6,-1
   83ec8:	21000c04 	addi	r4,r4,48
   83ecc:	d9814115 	stw	r6,1284(sp)
   83ed0:	10cab03a 	or	r5,r2,r3
   83ed4:	31000005 	stb	r4,0(r6)
   83ed8:	1021883a 	mov	r16,r2
   83edc:	1823883a 	mov	r17,r3
   83ee0:	283ff21e 	bne	r5,zero,83eac <___vfprintf_internal_r+0x1358>
   83ee4:	d8c14c17 	ldw	r3,1328(sp)
   83ee8:	1880004c 	andi	r2,r3,1
   83eec:	1005003a 	cmpeq	r2,r2,zero
   83ef0:	103db31e 	bne	r2,zero,835c0 <___vfprintf_internal_r+0xa6c>
   83ef4:	20803fcc 	andi	r2,r4,255
   83ef8:	1080201c 	xori	r2,r2,128
   83efc:	10bfe004 	addi	r2,r2,-128
   83f00:	00c00c04 	movi	r3,48
   83f04:	10fdae26 	beq	r2,r3,835c0 <___vfprintf_internal_r+0xa6c>
   83f08:	31bfffc4 	addi	r6,r6,-1
   83f0c:	d9814115 	stw	r6,1284(sp)
   83f10:	30c00005 	stb	r3,0(r6)
   83f14:	003daa06 	br	835c0 <___vfprintf_internal_r+0xa6c>
   83f18:	88800068 	cmpgeui	r2,r17,1
   83f1c:	10002c1e 	bne	r2,zero,83fd0 <___vfprintf_internal_r+0x147c>
   83f20:	8800021e 	bne	r17,zero,83f2c <___vfprintf_internal_r+0x13d8>
   83f24:	00800244 	movi	r2,9
   83f28:	14002936 	bltu	r2,r16,83fd0 <___vfprintf_internal_r+0x147c>
   83f2c:	d90018c4 	addi	r4,sp,99
   83f30:	dd000f04 	addi	r20,sp,60
   83f34:	d9014115 	stw	r4,1284(sp)
   83f38:	d9014117 	ldw	r4,1284(sp)
   83f3c:	80800c04 	addi	r2,r16,48
   83f40:	20800005 	stb	r2,0(r4)
   83f44:	003d9e06 	br	835c0 <___vfprintf_internal_r+0xa6c>
   83f48:	dc400d17 	ldw	r17,52(sp)
   83f4c:	070002b4 	movhi	fp,10
   83f50:	e7274984 	addi	fp,fp,-25306
   83f54:	9425883a 	add	r18,r18,r16
   83f58:	8c400044 	addi	r17,r17,1
   83f5c:	008001c4 	movi	r2,7
   83f60:	1f000015 	stw	fp,0(r3)
   83f64:	1c000115 	stw	r16,4(r3)
   83f68:	dc800e15 	stw	r18,56(sp)
   83f6c:	dc400d15 	stw	r17,52(sp)
   83f70:	147ddc16 	blt	r2,r17,836e4 <___vfprintf_internal_r+0xb90>
   83f74:	18c00204 	addi	r3,r3,8
   83f78:	003c7406 	br	8314c <___vfprintf_internal_r+0x5f8>
   83f7c:	01000084 	movi	r4,2
   83f80:	d8000405 	stb	zero,16(sp)
   83f84:	003d8106 	br	8358c <___vfprintf_internal_r+0xa38>
   83f88:	d9814c17 	ldw	r6,1328(sp)
   83f8c:	30c4703a 	and	r2,r6,r3
   83f90:	1005003a 	cmpeq	r2,r2,zero
   83f94:	103cb326 	beq	r2,zero,83264 <___vfprintf_internal_r+0x710>
   83f98:	d9014117 	ldw	r4,1284(sp)
   83f9c:	94800044 	addi	r18,r18,1
   83fa0:	8c400044 	addi	r17,r17,1
   83fa4:	008001c4 	movi	r2,7
   83fa8:	a9000015 	stw	r4,0(r21)
   83fac:	a8c00115 	stw	r3,4(r21)
   83fb0:	dc800e15 	stw	r18,56(sp)
   83fb4:	dc400d15 	stw	r17,52(sp)
   83fb8:	147e6016 	blt	r2,r17,8393c <___vfprintf_internal_r+0xde8>
   83fbc:	acc00204 	addi	r19,r21,8
   83fc0:	003cd106 	br	83308 <___vfprintf_internal_r+0x7b4>
   83fc4:	070002b4 	movhi	fp,10
   83fc8:	e7274984 	addi	fp,fp,-25306
   83fcc:	003c4906 	br	830f4 <___vfprintf_internal_r+0x5a0>
   83fd0:	dd000f04 	addi	r20,sp,60
   83fd4:	dc801904 	addi	r18,sp,100
   83fd8:	8009883a 	mov	r4,r16
   83fdc:	880b883a 	mov	r5,r17
   83fe0:	01800284 	movi	r6,10
   83fe4:	000f883a 	mov	r7,zero
   83fe8:	008a85c0 	call	8a85c <__umoddi3>
   83fec:	12000c04 	addi	r8,r2,48
   83ff0:	94bfffc4 	addi	r18,r18,-1
   83ff4:	8009883a 	mov	r4,r16
   83ff8:	880b883a 	mov	r5,r17
   83ffc:	01800284 	movi	r6,10
   84000:	000f883a 	mov	r7,zero
   84004:	92000005 	stb	r8,0(r18)
   84008:	008a1f00 	call	8a1f0 <__udivdi3>
   8400c:	1009883a 	mov	r4,r2
   84010:	1021883a 	mov	r16,r2
   84014:	18800068 	cmpgeui	r2,r3,1
   84018:	1823883a 	mov	r17,r3
   8401c:	103fee1e 	bne	r2,zero,83fd8 <___vfprintf_internal_r+0x1484>
   84020:	1800021e 	bne	r3,zero,8402c <___vfprintf_internal_r+0x14d8>
   84024:	00800244 	movi	r2,9
   84028:	113feb36 	bltu	r2,r4,83fd8 <___vfprintf_internal_r+0x1484>
   8402c:	94bfffc4 	addi	r18,r18,-1
   84030:	dc814115 	stw	r18,1284(sp)
   84034:	003fc006 	br	83f38 <___vfprintf_internal_r+0x13e4>
   84038:	d9014c17 	ldw	r4,1328(sp)
   8403c:	2080004c 	andi	r2,r4,1
   84040:	10009a1e 	bne	r2,zero,842ac <___vfprintf_internal_r+0x1758>
   84044:	d9401904 	addi	r5,sp,100
   84048:	dd000f04 	addi	r20,sp,60
   8404c:	d9414115 	stw	r5,1284(sp)
   84050:	003d5b06 	br	835c0 <___vfprintf_internal_r+0xa6c>
   84054:	d9014f17 	ldw	r4,1340(sp)
   84058:	b00b883a 	mov	r5,r22
   8405c:	d9800c04 	addi	r6,sp,48
   84060:	0082afc0 	call	82afc <__sprint_r>
   84064:	103c731e 	bne	r2,zero,83234 <___vfprintf_internal_r+0x6e0>
   84068:	dc800e17 	ldw	r18,56(sp)
   8406c:	d8c01904 	addi	r3,sp,100
   84070:	003cf906 	br	83458 <___vfprintf_internal_r+0x904>
   84074:	d8c14c17 	ldw	r3,1328(sp)
   84078:	1880040c 	andi	r2,r3,16
   8407c:	1000711e 	bne	r2,zero,84244 <___vfprintf_internal_r+0x16f0>
   84080:	d9014c17 	ldw	r4,1328(sp)
   84084:	2080100c 	andi	r2,r4,64
   84088:	10006e26 	beq	r2,zero,84244 <___vfprintf_internal_r+0x16f0>
   8408c:	3c00000b 	ldhu	r16,0(r7)
   84090:	0023883a 	mov	r17,zero
   84094:	39c00104 	addi	r7,r7,4
   84098:	d9c14015 	stw	r7,1280(sp)
   8409c:	003efa06 	br	83c88 <___vfprintf_internal_r+0x1134>
   840a0:	dc400d17 	ldw	r17,52(sp)
   840a4:	070002b4 	movhi	fp,10
   840a8:	e7274984 	addi	fp,fp,-25306
   840ac:	9425883a 	add	r18,r18,r16
   840b0:	8c400044 	addi	r17,r17,1
   840b4:	008001c4 	movi	r2,7
   840b8:	1f000015 	stw	fp,0(r3)
   840bc:	1c000115 	stw	r16,4(r3)
   840c0:	dc800e15 	stw	r18,56(sp)
   840c4:	dc400d15 	stw	r17,52(sp)
   840c8:	147d7016 	blt	r2,r17,8368c <___vfprintf_internal_r+0xb38>
   840cc:	18c00204 	addi	r3,r3,8
   840d0:	003d7506 	br	836a8 <___vfprintf_internal_r+0xb54>
   840d4:	dc800e17 	ldw	r18,56(sp)
   840d8:	dc400d17 	ldw	r17,52(sp)
   840dc:	070002b4 	movhi	fp,10
   840e0:	e7274d84 	addi	fp,fp,-25290
   840e4:	003bba06 	br	82fd0 <___vfprintf_internal_r+0x47c>
   840e8:	d9014f17 	ldw	r4,1340(sp)
   840ec:	b00b883a 	mov	r5,r22
   840f0:	d9800c04 	addi	r6,sp,48
   840f4:	0082afc0 	call	82afc <__sprint_r>
   840f8:	103c4e1e 	bne	r2,zero,83234 <___vfprintf_internal_r+0x6e0>
   840fc:	dc800e17 	ldw	r18,56(sp)
   84100:	d8c01904 	addi	r3,sp,100
   84104:	003ce306 	br	83494 <___vfprintf_internal_r+0x940>
   84108:	3c000017 	ldw	r16,0(r7)
   8410c:	0009883a 	mov	r4,zero
   84110:	39c00104 	addi	r7,r7,4
   84114:	0023883a 	mov	r17,zero
   84118:	d9c14015 	stw	r7,1280(sp)
   8411c:	d8000405 	stb	zero,16(sp)
   84120:	003d1a06 	br	8358c <___vfprintf_internal_r+0xa38>
   84124:	38800017 	ldw	r2,0(r7)
   84128:	39c00104 	addi	r7,r7,4
   8412c:	d9c14015 	stw	r7,1280(sp)
   84130:	1023d7fa 	srai	r17,r2,31
   84134:	1021883a 	mov	r16,r2
   84138:	003d1206 	br	83584 <___vfprintf_internal_r+0xa30>
   8413c:	3c000017 	ldw	r16,0(r7)
   84140:	01000044 	movi	r4,1
   84144:	39c00104 	addi	r7,r7,4
   84148:	0023883a 	mov	r17,zero
   8414c:	d9c14015 	stw	r7,1280(sp)
   84150:	d8000405 	stb	zero,16(sp)
   84154:	003d0d06 	br	8358c <___vfprintf_internal_r+0xa38>
   84158:	008002b4 	movhi	r2,10
   8415c:	10a74904 	addi	r2,r2,-25308
   84160:	94800044 	addi	r18,r18,1
   84164:	8c400044 	addi	r17,r17,1
   84168:	a8800015 	stw	r2,0(r21)
   8416c:	00c00044 	movi	r3,1
   84170:	008001c4 	movi	r2,7
   84174:	a8c00115 	stw	r3,4(r21)
   84178:	dc800e15 	stw	r18,56(sp)
   8417c:	dc400d15 	stw	r17,52(sp)
   84180:	1440ca16 	blt	r2,r17,844ac <___vfprintf_internal_r+0x1958>
   84184:	a8c00204 	addi	r3,r21,8
   84188:	2000061e 	bne	r4,zero,841a4 <___vfprintf_internal_r+0x1650>
   8418c:	d9414717 	ldw	r5,1308(sp)
   84190:	2800041e 	bne	r5,zero,841a4 <___vfprintf_internal_r+0x1650>
   84194:	d9814c17 	ldw	r6,1328(sp)
   84198:	3080004c 	andi	r2,r6,1
   8419c:	1005003a 	cmpeq	r2,r2,zero
   841a0:	103bea1e 	bne	r2,zero,8314c <___vfprintf_internal_r+0x5f8>
   841a4:	00800044 	movi	r2,1
   841a8:	dc400d17 	ldw	r17,52(sp)
   841ac:	18800115 	stw	r2,4(r3)
   841b0:	d8814917 	ldw	r2,1316(sp)
   841b4:	94800044 	addi	r18,r18,1
   841b8:	8c400044 	addi	r17,r17,1
   841bc:	18800015 	stw	r2,0(r3)
   841c0:	008001c4 	movi	r2,7
   841c4:	dc800e15 	stw	r18,56(sp)
   841c8:	dc400d15 	stw	r17,52(sp)
   841cc:	1440ca16 	blt	r2,r17,844f8 <___vfprintf_internal_r+0x19a4>
   841d0:	18c00204 	addi	r3,r3,8
   841d4:	0121c83a 	sub	r16,zero,r4
   841d8:	0400500e 	bge	zero,r16,8431c <___vfprintf_internal_r+0x17c8>
   841dc:	00800404 	movi	r2,16
   841e0:	1400800e 	bge	r2,r16,843e4 <___vfprintf_internal_r+0x1890>
   841e4:	1027883a 	mov	r19,r2
   841e8:	070002b4 	movhi	fp,10
   841ec:	e7274984 	addi	fp,fp,-25306
   841f0:	050001c4 	movi	r20,7
   841f4:	00000306 	br	84204 <___vfprintf_internal_r+0x16b0>
   841f8:	18c00204 	addi	r3,r3,8
   841fc:	843ffc04 	addi	r16,r16,-16
   84200:	9c007a0e 	bge	r19,r16,843ec <___vfprintf_internal_r+0x1898>
   84204:	94800404 	addi	r18,r18,16
   84208:	8c400044 	addi	r17,r17,1
   8420c:	1f000015 	stw	fp,0(r3)
   84210:	1cc00115 	stw	r19,4(r3)
   84214:	dc800e15 	stw	r18,56(sp)
   84218:	dc400d15 	stw	r17,52(sp)
   8421c:	a47ff60e 	bge	r20,r17,841f8 <___vfprintf_internal_r+0x16a4>
   84220:	d9014f17 	ldw	r4,1340(sp)
   84224:	b00b883a 	mov	r5,r22
   84228:	d9800c04 	addi	r6,sp,48
   8422c:	0082afc0 	call	82afc <__sprint_r>
   84230:	103c001e 	bne	r2,zero,83234 <___vfprintf_internal_r+0x6e0>
   84234:	dc800e17 	ldw	r18,56(sp)
   84238:	dc400d17 	ldw	r17,52(sp)
   8423c:	d8c01904 	addi	r3,sp,100
   84240:	003fee06 	br	841fc <___vfprintf_internal_r+0x16a8>
   84244:	3c000017 	ldw	r16,0(r7)
   84248:	0023883a 	mov	r17,zero
   8424c:	39c00104 	addi	r7,r7,4
   84250:	d9c14015 	stw	r7,1280(sp)
   84254:	003e8c06 	br	83c88 <___vfprintf_internal_r+0x1134>
   84258:	d9401904 	addi	r5,sp,100
   8425c:	dd000f04 	addi	r20,sp,60
   84260:	d9414115 	stw	r5,1284(sp)
   84264:	d9814417 	ldw	r6,1296(sp)
   84268:	880a973a 	slli	r5,r17,28
   8426c:	8004d13a 	srli	r2,r16,4
   84270:	810003cc 	andi	r4,r16,15
   84274:	3109883a 	add	r4,r6,r4
   84278:	2884b03a 	or	r2,r5,r2
   8427c:	21400003 	ldbu	r5,0(r4)
   84280:	d9014117 	ldw	r4,1284(sp)
   84284:	8806d13a 	srli	r3,r17,4
   84288:	1021883a 	mov	r16,r2
   8428c:	213fffc4 	addi	r4,r4,-1
   84290:	d9014115 	stw	r4,1284(sp)
   84294:	d9814117 	ldw	r6,1284(sp)
   84298:	10c8b03a 	or	r4,r2,r3
   8429c:	1823883a 	mov	r17,r3
   842a0:	31400005 	stb	r5,0(r6)
   842a4:	203fef1e 	bne	r4,zero,84264 <___vfprintf_internal_r+0x1710>
   842a8:	003cc506 	br	835c0 <___vfprintf_internal_r+0xa6c>
   842ac:	00800c04 	movi	r2,48
   842b0:	d98018c4 	addi	r6,sp,99
   842b4:	dd000f04 	addi	r20,sp,60
   842b8:	d88018c5 	stb	r2,99(sp)
   842bc:	d9814115 	stw	r6,1284(sp)
   842c0:	003cbf06 	br	835c0 <___vfprintf_internal_r+0xa6c>
   842c4:	dc400d17 	ldw	r17,52(sp)
   842c8:	070002b4 	movhi	fp,10
   842cc:	e7274d84 	addi	fp,fp,-25290
   842d0:	003bc106 	br	831d8 <___vfprintf_internal_r+0x684>
   842d4:	d9414c17 	ldw	r5,1328(sp)
   842d8:	2880040c 	andi	r2,r5,16
   842dc:	10007c26 	beq	r2,zero,844d0 <___vfprintf_internal_r+0x197c>
   842e0:	38800017 	ldw	r2,0(r7)
   842e4:	39c00104 	addi	r7,r7,4
   842e8:	d9c14015 	stw	r7,1280(sp)
   842ec:	d9814b17 	ldw	r6,1324(sp)
   842f0:	d9c14017 	ldw	r7,1280(sp)
   842f4:	11800015 	stw	r6,0(r2)
   842f8:	003a7206 	br	82cc4 <___vfprintf_internal_r+0x170>
   842fc:	d9014f17 	ldw	r4,1340(sp)
   84300:	b00b883a 	mov	r5,r22
   84304:	d9800c04 	addi	r6,sp,48
   84308:	0082afc0 	call	82afc <__sprint_r>
   8430c:	103bc91e 	bne	r2,zero,83234 <___vfprintf_internal_r+0x6e0>
   84310:	dc800e17 	ldw	r18,56(sp)
   84314:	dc400d17 	ldw	r17,52(sp)
   84318:	d8c01904 	addi	r3,sp,100
   8431c:	d9014717 	ldw	r4,1308(sp)
   84320:	d9414117 	ldw	r5,1284(sp)
   84324:	8c400044 	addi	r17,r17,1
   84328:	9125883a 	add	r18,r18,r4
   8432c:	008001c4 	movi	r2,7
   84330:	19400015 	stw	r5,0(r3)
   84334:	19000115 	stw	r4,4(r3)
   84338:	dc800e15 	stw	r18,56(sp)
   8433c:	dc400d15 	stw	r17,52(sp)
   84340:	147ce816 	blt	r2,r17,836e4 <___vfprintf_internal_r+0xb90>
   84344:	18c00204 	addi	r3,r3,8
   84348:	003b8006 	br	8314c <___vfprintf_internal_r+0x5f8>
   8434c:	38c00017 	ldw	r3,0(r7)
   84350:	39000204 	addi	r4,r7,8
   84354:	d9014015 	stw	r4,1280(sp)
   84358:	d8c14215 	stw	r3,1288(sp)
   8435c:	39c00117 	ldw	r7,4(r7)
   84360:	d9c14315 	stw	r7,1292(sp)
   84364:	003e1a06 	br	83bd0 <___vfprintf_internal_r+0x107c>
   84368:	0005883a 	mov	r2,zero
   8436c:	1409c83a 	sub	r4,r2,r16
   84370:	1105803a 	cmpltu	r2,r2,r4
   84374:	044bc83a 	sub	r5,zero,r17
   84378:	2885c83a 	sub	r2,r5,r2
   8437c:	2021883a 	mov	r16,r4
   84380:	1023883a 	mov	r17,r2
   84384:	01000044 	movi	r4,1
   84388:	00800b44 	movi	r2,45
   8438c:	d8800405 	stb	r2,16(sp)
   84390:	003c7e06 	br	8358c <___vfprintf_internal_r+0xa38>
   84394:	d9014f17 	ldw	r4,1340(sp)
   84398:	b00b883a 	mov	r5,r22
   8439c:	d9800c04 	addi	r6,sp,48
   843a0:	0082afc0 	call	82afc <__sprint_r>
   843a4:	103ba31e 	bne	r2,zero,83234 <___vfprintf_internal_r+0x6e0>
   843a8:	dc800e17 	ldw	r18,56(sp)
   843ac:	dc400d17 	ldw	r17,52(sp)
   843b0:	d9000517 	ldw	r4,20(sp)
   843b4:	d9401904 	addi	r5,sp,100
   843b8:	003da106 	br	83a40 <___vfprintf_internal_r+0xeec>
   843bc:	d9014f17 	ldw	r4,1340(sp)
   843c0:	b00b883a 	mov	r5,r22
   843c4:	d9800c04 	addi	r6,sp,48
   843c8:	0082afc0 	call	82afc <__sprint_r>
   843cc:	103b991e 	bne	r2,zero,83234 <___vfprintf_internal_r+0x6e0>
   843d0:	dc800e17 	ldw	r18,56(sp)
   843d4:	dc400d17 	ldw	r17,52(sp)
   843d8:	d9000517 	ldw	r4,20(sp)
   843dc:	d8c01904 	addi	r3,sp,100
   843e0:	003d8b06 	br	83a10 <___vfprintf_internal_r+0xebc>
   843e4:	070002b4 	movhi	fp,10
   843e8:	e7274984 	addi	fp,fp,-25306
   843ec:	9425883a 	add	r18,r18,r16
   843f0:	8c400044 	addi	r17,r17,1
   843f4:	008001c4 	movi	r2,7
   843f8:	1f000015 	stw	fp,0(r3)
   843fc:	1c000115 	stw	r16,4(r3)
   84400:	dc800e15 	stw	r18,56(sp)
   84404:	dc400d15 	stw	r17,52(sp)
   84408:	147fbc16 	blt	r2,r17,842fc <___vfprintf_internal_r+0x17a8>
   8440c:	18c00204 	addi	r3,r3,8
   84410:	003fc206 	br	8431c <___vfprintf_internal_r+0x17c8>
   84414:	d9014f17 	ldw	r4,1340(sp)
   84418:	b00b883a 	mov	r5,r22
   8441c:	d9800c04 	addi	r6,sp,48
   84420:	0082afc0 	call	82afc <__sprint_r>
   84424:	103b831e 	bne	r2,zero,83234 <___vfprintf_internal_r+0x6e0>
   84428:	dc800e17 	ldw	r18,56(sp)
   8442c:	d9000517 	ldw	r4,20(sp)
   84430:	d8c01904 	addi	r3,sp,100
   84434:	003cfc06 	br	83828 <___vfprintf_internal_r+0xcd4>
   84438:	070002b4 	movhi	fp,10
   8443c:	e7274984 	addi	fp,fp,-25306
   84440:	003bde06 	br	833bc <___vfprintf_internal_r+0x868>
   84444:	008002b4 	movhi	r2,10
   84448:	10a73804 	addi	r2,r2,-25376
   8444c:	d8814115 	stw	r2,1284(sp)
   84450:	003def06 	br	83c10 <___vfprintf_internal_r+0x10bc>
   84454:	d9014217 	ldw	r4,1288(sp)
   84458:	d9414317 	ldw	r5,1292(sp)
   8445c:	00898300 	call	89830 <__isnand>
   84460:	10003926 	beq	r2,zero,84548 <___vfprintf_internal_r+0x19f4>
   84464:	d9414d17 	ldw	r5,1332(sp)
   84468:	008011c4 	movi	r2,71
   8446c:	1140ce16 	blt	r2,r5,847a8 <___vfprintf_internal_r+0x1c54>
   84470:	018002b4 	movhi	r6,10
   84474:	31a73904 	addi	r6,r6,-25372
   84478:	d9814115 	stw	r6,1284(sp)
   8447c:	003de406 	br	83c10 <___vfprintf_internal_r+0x10bc>
   84480:	d9014c17 	ldw	r4,1328(sp)
   84484:	bdc00044 	addi	r23,r23,1
   84488:	b8c00007 	ldb	r3,0(r23)
   8448c:	21000814 	ori	r4,r4,32
   84490:	d9014c15 	stw	r4,1328(sp)
   84494:	003a2e06 	br	82d50 <___vfprintf_internal_r+0x1fc>
   84498:	dcc14515 	stw	r19,1300(sp)
   8449c:	98011016 	blt	r19,zero,848e0 <___vfprintf_internal_r+0x1d8c>
   844a0:	980f883a 	mov	r7,r19
   844a4:	d8014615 	stw	zero,1304(sp)
   844a8:	003c4c06 	br	835dc <___vfprintf_internal_r+0xa88>
   844ac:	d9014f17 	ldw	r4,1340(sp)
   844b0:	b00b883a 	mov	r5,r22
   844b4:	d9800c04 	addi	r6,sp,48
   844b8:	0082afc0 	call	82afc <__sprint_r>
   844bc:	103b5d1e 	bne	r2,zero,83234 <___vfprintf_internal_r+0x6e0>
   844c0:	dc800e17 	ldw	r18,56(sp)
   844c4:	d9000517 	ldw	r4,20(sp)
   844c8:	d8c01904 	addi	r3,sp,100
   844cc:	003f2e06 	br	84188 <___vfprintf_internal_r+0x1634>
   844d0:	d8c14c17 	ldw	r3,1328(sp)
   844d4:	1880100c 	andi	r2,r3,64
   844d8:	1000a026 	beq	r2,zero,8475c <___vfprintf_internal_r+0x1c08>
   844dc:	38800017 	ldw	r2,0(r7)
   844e0:	39c00104 	addi	r7,r7,4
   844e4:	d9c14015 	stw	r7,1280(sp)
   844e8:	d9014b17 	ldw	r4,1324(sp)
   844ec:	d9c14017 	ldw	r7,1280(sp)
   844f0:	1100000d 	sth	r4,0(r2)
   844f4:	0039f306 	br	82cc4 <___vfprintf_internal_r+0x170>
   844f8:	d9014f17 	ldw	r4,1340(sp)
   844fc:	b00b883a 	mov	r5,r22
   84500:	d9800c04 	addi	r6,sp,48
   84504:	0082afc0 	call	82afc <__sprint_r>
   84508:	103b4a1e 	bne	r2,zero,83234 <___vfprintf_internal_r+0x6e0>
   8450c:	dc800e17 	ldw	r18,56(sp)
   84510:	dc400d17 	ldw	r17,52(sp)
   84514:	d9000517 	ldw	r4,20(sp)
   84518:	d8c01904 	addi	r3,sp,100
   8451c:	003f2d06 	br	841d4 <___vfprintf_internal_r+0x1680>
   84520:	00800184 	movi	r2,6
   84524:	14c09a36 	bltu	r2,r19,84790 <___vfprintf_internal_r+0x1c3c>
   84528:	dcc14515 	stw	r19,1300(sp)
   8452c:	9800010e 	bge	r19,zero,84534 <___vfprintf_internal_r+0x19e0>
   84530:	d8014515 	stw	zero,1300(sp)
   84534:	008002b4 	movhi	r2,10
   84538:	10a73b04 	addi	r2,r2,-25364
   8453c:	980f883a 	mov	r7,r19
   84540:	d8814115 	stw	r2,1284(sp)
   84544:	003a7206 	br	82f10 <___vfprintf_internal_r+0x3bc>
   84548:	00bfffc4 	movi	r2,-1
   8454c:	9880e226 	beq	r19,r2,848d8 <___vfprintf_internal_r+0x1d84>
   84550:	d9414d17 	ldw	r5,1332(sp)
   84554:	008019c4 	movi	r2,103
   84558:	2880dc26 	beq	r5,r2,848cc <___vfprintf_internal_r+0x1d78>
   8455c:	008011c4 	movi	r2,71
   84560:	2880da26 	beq	r5,r2,848cc <___vfprintf_internal_r+0x1d78>
   84564:	d9414c17 	ldw	r5,1328(sp)
   84568:	d9014317 	ldw	r4,1292(sp)
   8456c:	d9814217 	ldw	r6,1288(sp)
   84570:	29404014 	ori	r5,r5,256
   84574:	d9414c15 	stw	r5,1328(sp)
   84578:	2000cc16 	blt	r4,zero,848ac <___vfprintf_internal_r+0x1d58>
   8457c:	3021883a 	mov	r16,r6
   84580:	2023883a 	mov	r17,r4
   84584:	0039883a 	mov	fp,zero
   84588:	d9414d17 	ldw	r5,1332(sp)
   8458c:	00801984 	movi	r2,102
   84590:	2880b726 	beq	r5,r2,84870 <___vfprintf_internal_r+0x1d1c>
   84594:	00801184 	movi	r2,70
   84598:	2880b526 	beq	r5,r2,84870 <___vfprintf_internal_r+0x1d1c>
   8459c:	00801944 	movi	r2,101
   845a0:	2880c826 	beq	r5,r2,848c4 <___vfprintf_internal_r+0x1d70>
   845a4:	00801144 	movi	r2,69
   845a8:	2880c626 	beq	r5,r2,848c4 <___vfprintf_internal_r+0x1d70>
   845ac:	9829883a 	mov	r20,r19
   845b0:	d9014f17 	ldw	r4,1340(sp)
   845b4:	d8800504 	addi	r2,sp,20
   845b8:	880d883a 	mov	r6,r17
   845bc:	d8800115 	stw	r2,4(sp)
   845c0:	d8c00604 	addi	r3,sp,24
   845c4:	d8800704 	addi	r2,sp,28
   845c8:	800b883a 	mov	r5,r16
   845cc:	01c00084 	movi	r7,2
   845d0:	d8c00215 	stw	r3,8(sp)
   845d4:	d8800315 	stw	r2,12(sp)
   845d8:	dd000015 	stw	r20,0(sp)
   845dc:	0084dbc0 	call	84dbc <_dtoa_r>
   845e0:	d9814d17 	ldw	r6,1332(sp)
   845e4:	d8814115 	stw	r2,1284(sp)
   845e8:	008019c4 	movi	r2,103
   845ec:	30809526 	beq	r6,r2,84844 <___vfprintf_internal_r+0x1cf0>
   845f0:	d8c14d17 	ldw	r3,1332(sp)
   845f4:	008011c4 	movi	r2,71
   845f8:	18809226 	beq	r3,r2,84844 <___vfprintf_internal_r+0x1cf0>
   845fc:	d9414117 	ldw	r5,1284(sp)
   84600:	d9814d17 	ldw	r6,1332(sp)
   84604:	00801984 	movi	r2,102
   84608:	2d25883a 	add	r18,r5,r20
   8460c:	30808626 	beq	r6,r2,84828 <___vfprintf_internal_r+0x1cd4>
   84610:	00801184 	movi	r2,70
   84614:	30808426 	beq	r6,r2,84828 <___vfprintf_internal_r+0x1cd4>
   84618:	000d883a 	mov	r6,zero
   8461c:	000f883a 	mov	r7,zero
   84620:	880b883a 	mov	r5,r17
   84624:	8009883a 	mov	r4,r16
   84628:	008b9dc0 	call	8b9dc <__eqdf2>
   8462c:	1000751e 	bne	r2,zero,84804 <___vfprintf_internal_r+0x1cb0>
   84630:	9005883a 	mov	r2,r18
   84634:	dc800715 	stw	r18,28(sp)
   84638:	d9014117 	ldw	r4,1284(sp)
   8463c:	d9414d17 	ldw	r5,1332(sp)
   84640:	00c019c4 	movi	r3,103
   84644:	1125c83a 	sub	r18,r2,r4
   84648:	28c06826 	beq	r5,r3,847ec <___vfprintf_internal_r+0x1c98>
   8464c:	008011c4 	movi	r2,71
   84650:	28806626 	beq	r5,r2,847ec <___vfprintf_internal_r+0x1c98>
   84654:	d9000517 	ldw	r4,20(sp)
   84658:	d8c14d17 	ldw	r3,1332(sp)
   8465c:	00801944 	movi	r2,101
   84660:	10c05516 	blt	r2,r3,847b8 <___vfprintf_internal_r+0x1c64>
   84664:	213fffc4 	addi	r4,r4,-1
   84668:	d9000515 	stw	r4,20(sp)
   8466c:	d8c00805 	stb	r3,32(sp)
   84670:	2021883a 	mov	r16,r4
   84674:	2000c116 	blt	r4,zero,8497c <___vfprintf_internal_r+0x1e28>
   84678:	00800ac4 	movi	r2,43
   8467c:	d8800845 	stb	r2,33(sp)
   84680:	00800244 	movi	r2,9
   84684:	1400af0e 	bge	r2,r16,84944 <___vfprintf_internal_r+0x1df0>
   84688:	1027883a 	mov	r19,r2
   8468c:	dc400b84 	addi	r17,sp,46
   84690:	8009883a 	mov	r4,r16
   84694:	01400284 	movi	r5,10
   84698:	00826b00 	call	826b0 <__modsi3>
   8469c:	10800c04 	addi	r2,r2,48
   846a0:	8c7fffc4 	addi	r17,r17,-1
   846a4:	8009883a 	mov	r4,r16
   846a8:	01400284 	movi	r5,10
   846ac:	88800005 	stb	r2,0(r17)
   846b0:	00826500 	call	82650 <__divsi3>
   846b4:	1021883a 	mov	r16,r2
   846b8:	98bff516 	blt	r19,r2,84690 <___vfprintf_internal_r+0x1b3c>
   846bc:	10c00c04 	addi	r3,r2,48
   846c0:	d88009c4 	addi	r2,sp,39
   846c4:	108001c4 	addi	r2,r2,7
   846c8:	897fffc4 	addi	r5,r17,-1
   846cc:	88ffffc5 	stb	r3,-1(r17)
   846d0:	2880a72e 	bgeu	r5,r2,84970 <___vfprintf_internal_r+0x1e1c>
   846d4:	1009883a 	mov	r4,r2
   846d8:	d9800804 	addi	r6,sp,32
   846dc:	d8c00884 	addi	r3,sp,34
   846e0:	28800003 	ldbu	r2,0(r5)
   846e4:	29400044 	addi	r5,r5,1
   846e8:	18800005 	stb	r2,0(r3)
   846ec:	18c00044 	addi	r3,r3,1
   846f0:	293ffb36 	bltu	r5,r4,846e0 <___vfprintf_internal_r+0x1b8c>
   846f4:	1987c83a 	sub	r3,r3,r6
   846f8:	00800044 	movi	r2,1
   846fc:	d8c14815 	stw	r3,1312(sp)
   84700:	90cf883a 	add	r7,r18,r3
   84704:	1480960e 	bge	r2,r18,84960 <___vfprintf_internal_r+0x1e0c>
   84708:	39c00044 	addi	r7,r7,1
   8470c:	d9c14515 	stw	r7,1300(sp)
   84710:	38003416 	blt	r7,zero,847e4 <___vfprintf_internal_r+0x1c90>
   84714:	e0803fcc 	andi	r2,fp,255
   84718:	1080201c 	xori	r2,r2,128
   8471c:	10bfe004 	addi	r2,r2,-128
   84720:	10004e26 	beq	r2,zero,8485c <___vfprintf_internal_r+0x1d08>
   84724:	00800b44 	movi	r2,45
   84728:	dc814715 	stw	r18,1308(sp)
   8472c:	d8014615 	stw	zero,1304(sp)
   84730:	d8800405 	stb	r2,16(sp)
   84734:	003bab06 	br	835e4 <___vfprintf_internal_r+0xa90>
   84738:	00800b44 	movi	r2,45
   8473c:	d8800405 	stb	r2,16(sp)
   84740:	003d2d06 	br	83bf8 <___vfprintf_internal_r+0x10a4>
   84744:	d9014f17 	ldw	r4,1340(sp)
   84748:	b00b883a 	mov	r5,r22
   8474c:	d9800c04 	addi	r6,sp,48
   84750:	0082afc0 	call	82afc <__sprint_r>
   84754:	103ab71e 	bne	r2,zero,83234 <___vfprintf_internal_r+0x6e0>
   84758:	003ab506 	br	83230 <___vfprintf_internal_r+0x6dc>
   8475c:	38800017 	ldw	r2,0(r7)
   84760:	39c00104 	addi	r7,r7,4
   84764:	d9c14015 	stw	r7,1280(sp)
   84768:	d9414b17 	ldw	r5,1324(sp)
   8476c:	d9c14017 	ldw	r7,1280(sp)
   84770:	11400015 	stw	r5,0(r2)
   84774:	00395306 	br	82cc4 <___vfprintf_internal_r+0x170>
   84778:	980f883a 	mov	r7,r19
   8477c:	dcc14515 	stw	r19,1300(sp)
   84780:	d8014615 	stw	zero,1304(sp)
   84784:	003b9506 	br	835dc <___vfprintf_internal_r+0xa88>
   84788:	0027883a 	mov	r19,zero
   8478c:	00397206 	br	82d58 <___vfprintf_internal_r+0x204>
   84790:	00c002b4 	movhi	r3,10
   84794:	18e73b04 	addi	r3,r3,-25364
   84798:	100f883a 	mov	r7,r2
   8479c:	d8814515 	stw	r2,1300(sp)
   847a0:	d8c14115 	stw	r3,1284(sp)
   847a4:	0039da06 	br	82f10 <___vfprintf_internal_r+0x3bc>
   847a8:	008002b4 	movhi	r2,10
   847ac:	10a73a04 	addi	r2,r2,-25368
   847b0:	d8814115 	stw	r2,1284(sp)
   847b4:	003d1606 	br	83c10 <___vfprintf_internal_r+0x10bc>
   847b8:	d9414d17 	ldw	r5,1332(sp)
   847bc:	00801984 	movi	r2,102
   847c0:	28804926 	beq	r5,r2,848e8 <___vfprintf_internal_r+0x1d94>
   847c4:	200f883a 	mov	r7,r4
   847c8:	24805716 	blt	r4,r18,84928 <___vfprintf_internal_r+0x1dd4>
   847cc:	d9414c17 	ldw	r5,1328(sp)
   847d0:	2880004c 	andi	r2,r5,1
   847d4:	10000126 	beq	r2,zero,847dc <___vfprintf_internal_r+0x1c88>
   847d8:	21c00044 	addi	r7,r4,1
   847dc:	d9c14515 	stw	r7,1300(sp)
   847e0:	383fcc0e 	bge	r7,zero,84714 <___vfprintf_internal_r+0x1bc0>
   847e4:	d8014515 	stw	zero,1300(sp)
   847e8:	003fca06 	br	84714 <___vfprintf_internal_r+0x1bc0>
   847ec:	d9000517 	ldw	r4,20(sp)
   847f0:	00bfff04 	movi	r2,-4
   847f4:	1100480e 	bge	r2,r4,84918 <___vfprintf_internal_r+0x1dc4>
   847f8:	99004716 	blt	r19,r4,84918 <___vfprintf_internal_r+0x1dc4>
   847fc:	d8c14d15 	stw	r3,1332(sp)
   84800:	003ff006 	br	847c4 <___vfprintf_internal_r+0x1c70>
   84804:	d8800717 	ldw	r2,28(sp)
   84808:	14bf8b2e 	bgeu	r2,r18,84638 <___vfprintf_internal_r+0x1ae4>
   8480c:	9007883a 	mov	r3,r18
   84810:	01000c04 	movi	r4,48
   84814:	11000005 	stb	r4,0(r2)
   84818:	10800044 	addi	r2,r2,1
   8481c:	d8800715 	stw	r2,28(sp)
   84820:	18bffc1e 	bne	r3,r2,84814 <___vfprintf_internal_r+0x1cc0>
   84824:	003f8406 	br	84638 <___vfprintf_internal_r+0x1ae4>
   84828:	d8814117 	ldw	r2,1284(sp)
   8482c:	10c00007 	ldb	r3,0(r2)
   84830:	00800c04 	movi	r2,48
   84834:	18805b26 	beq	r3,r2,849a4 <___vfprintf_internal_r+0x1e50>
   84838:	d9000517 	ldw	r4,20(sp)
   8483c:	9125883a 	add	r18,r18,r4
   84840:	003f7506 	br	84618 <___vfprintf_internal_r+0x1ac4>
   84844:	d9014c17 	ldw	r4,1328(sp)
   84848:	2080004c 	andi	r2,r4,1
   8484c:	1005003a 	cmpeq	r2,r2,zero
   84850:	103f6a26 	beq	r2,zero,845fc <___vfprintf_internal_r+0x1aa8>
   84854:	d8800717 	ldw	r2,28(sp)
   84858:	003f7706 	br	84638 <___vfprintf_internal_r+0x1ae4>
   8485c:	d9c14515 	stw	r7,1300(sp)
   84860:	38004d16 	blt	r7,zero,84998 <___vfprintf_internal_r+0x1e44>
   84864:	dc814715 	stw	r18,1308(sp)
   84868:	d8014615 	stw	zero,1304(sp)
   8486c:	003b5b06 	br	835dc <___vfprintf_internal_r+0xa88>
   84870:	d9014f17 	ldw	r4,1340(sp)
   84874:	d8800504 	addi	r2,sp,20
   84878:	d8800115 	stw	r2,4(sp)
   8487c:	d8c00604 	addi	r3,sp,24
   84880:	d8800704 	addi	r2,sp,28
   84884:	800b883a 	mov	r5,r16
   84888:	880d883a 	mov	r6,r17
   8488c:	01c000c4 	movi	r7,3
   84890:	d8c00215 	stw	r3,8(sp)
   84894:	d8800315 	stw	r2,12(sp)
   84898:	dcc00015 	stw	r19,0(sp)
   8489c:	9829883a 	mov	r20,r19
   848a0:	0084dbc0 	call	84dbc <_dtoa_r>
   848a4:	d8814115 	stw	r2,1284(sp)
   848a8:	003f5106 	br	845f0 <___vfprintf_internal_r+0x1a9c>
   848ac:	d8c14217 	ldw	r3,1288(sp)
   848b0:	d9014317 	ldw	r4,1292(sp)
   848b4:	07000b44 	movi	fp,45
   848b8:	1821883a 	mov	r16,r3
   848bc:	2460003c 	xorhi	r17,r4,32768
   848c0:	003f3106 	br	84588 <___vfprintf_internal_r+0x1a34>
   848c4:	9d000044 	addi	r20,r19,1
   848c8:	003f3906 	br	845b0 <___vfprintf_internal_r+0x1a5c>
   848cc:	983f251e 	bne	r19,zero,84564 <___vfprintf_internal_r+0x1a10>
   848d0:	04c00044 	movi	r19,1
   848d4:	003f2306 	br	84564 <___vfprintf_internal_r+0x1a10>
   848d8:	04c00184 	movi	r19,6
   848dc:	003f2106 	br	84564 <___vfprintf_internal_r+0x1a10>
   848e0:	d8014515 	stw	zero,1300(sp)
   848e4:	003eee06 	br	844a0 <___vfprintf_internal_r+0x194c>
   848e8:	200f883a 	mov	r7,r4
   848ec:	0100370e 	bge	zero,r4,849cc <___vfprintf_internal_r+0x1e78>
   848f0:	9800031e 	bne	r19,zero,84900 <___vfprintf_internal_r+0x1dac>
   848f4:	d9814c17 	ldw	r6,1328(sp)
   848f8:	3080004c 	andi	r2,r6,1
   848fc:	103fb726 	beq	r2,zero,847dc <___vfprintf_internal_r+0x1c88>
   84900:	20800044 	addi	r2,r4,1
   84904:	98a7883a 	add	r19,r19,r2
   84908:	dcc14515 	stw	r19,1300(sp)
   8490c:	980f883a 	mov	r7,r19
   84910:	983f800e 	bge	r19,zero,84714 <___vfprintf_internal_r+0x1bc0>
   84914:	003fb306 	br	847e4 <___vfprintf_internal_r+0x1c90>
   84918:	d9814d17 	ldw	r6,1332(sp)
   8491c:	31bfff84 	addi	r6,r6,-2
   84920:	d9814d15 	stw	r6,1332(sp)
   84924:	003f4c06 	br	84658 <___vfprintf_internal_r+0x1b04>
   84928:	0100180e 	bge	zero,r4,8498c <___vfprintf_internal_r+0x1e38>
   8492c:	00800044 	movi	r2,1
   84930:	1485883a 	add	r2,r2,r18
   84934:	d8814515 	stw	r2,1300(sp)
   84938:	100f883a 	mov	r7,r2
   8493c:	103f750e 	bge	r2,zero,84714 <___vfprintf_internal_r+0x1bc0>
   84940:	003fa806 	br	847e4 <___vfprintf_internal_r+0x1c90>
   84944:	80c00c04 	addi	r3,r16,48
   84948:	00800c04 	movi	r2,48
   8494c:	d8c008c5 	stb	r3,35(sp)
   84950:	d9800804 	addi	r6,sp,32
   84954:	d8c00904 	addi	r3,sp,36
   84958:	d8800885 	stb	r2,34(sp)
   8495c:	003f6506 	br	846f4 <___vfprintf_internal_r+0x1ba0>
   84960:	d9014c17 	ldw	r4,1328(sp)
   84964:	2084703a 	and	r2,r4,r2
   84968:	103f9c26 	beq	r2,zero,847dc <___vfprintf_internal_r+0x1c88>
   8496c:	003f6606 	br	84708 <___vfprintf_internal_r+0x1bb4>
   84970:	d9800804 	addi	r6,sp,32
   84974:	d8c00884 	addi	r3,sp,34
   84978:	003f5e06 	br	846f4 <___vfprintf_internal_r+0x1ba0>
   8497c:	00800b44 	movi	r2,45
   84980:	0121c83a 	sub	r16,zero,r4
   84984:	d8800845 	stb	r2,33(sp)
   84988:	003f3d06 	br	84680 <___vfprintf_internal_r+0x1b2c>
   8498c:	00800084 	movi	r2,2
   84990:	1105c83a 	sub	r2,r2,r4
   84994:	003fe606 	br	84930 <___vfprintf_internal_r+0x1ddc>
   84998:	d8014515 	stw	zero,1300(sp)
   8499c:	dc814715 	stw	r18,1308(sp)
   849a0:	003fb106 	br	84868 <___vfprintf_internal_r+0x1d14>
   849a4:	000d883a 	mov	r6,zero
   849a8:	000f883a 	mov	r7,zero
   849ac:	8009883a 	mov	r4,r16
   849b0:	880b883a 	mov	r5,r17
   849b4:	008ba640 	call	8ba64 <__nedf2>
   849b8:	103f9f26 	beq	r2,zero,84838 <___vfprintf_internal_r+0x1ce4>
   849bc:	00800044 	movi	r2,1
   849c0:	1509c83a 	sub	r4,r2,r20
   849c4:	d9000515 	stw	r4,20(sp)
   849c8:	003f9b06 	br	84838 <___vfprintf_internal_r+0x1ce4>
   849cc:	98000d1e 	bne	r19,zero,84a04 <___vfprintf_internal_r+0x1eb0>
   849d0:	d8c14c17 	ldw	r3,1328(sp)
   849d4:	1880004c 	andi	r2,r3,1
   849d8:	10000a1e 	bne	r2,zero,84a04 <___vfprintf_internal_r+0x1eb0>
   849dc:	01000044 	movi	r4,1
   849e0:	200f883a 	mov	r7,r4
   849e4:	d9014515 	stw	r4,1300(sp)
   849e8:	003f4a06 	br	84714 <___vfprintf_internal_r+0x1bc0>
   849ec:	3cc00017 	ldw	r19,0(r7)
   849f0:	39c00104 	addi	r7,r7,4
   849f4:	983d0e0e 	bge	r19,zero,83e30 <___vfprintf_internal_r+0x12dc>
   849f8:	b8c00007 	ldb	r3,0(r23)
   849fc:	04ffffc4 	movi	r19,-1
   84a00:	0038d306 	br	82d50 <___vfprintf_internal_r+0x1fc>
   84a04:	9cc00084 	addi	r19,r19,2
   84a08:	dcc14515 	stw	r19,1300(sp)
   84a0c:	980f883a 	mov	r7,r19
   84a10:	983f400e 	bge	r19,zero,84714 <___vfprintf_internal_r+0x1bc0>
   84a14:	003f7306 	br	847e4 <___vfprintf_internal_r+0x1c90>

00084a18 <__vfprintf_internal>:
   84a18:	008002b4 	movhi	r2,10
   84a1c:	10aee604 	addi	r2,r2,-17512
   84a20:	2013883a 	mov	r9,r4
   84a24:	11000017 	ldw	r4,0(r2)
   84a28:	2805883a 	mov	r2,r5
   84a2c:	300f883a 	mov	r7,r6
   84a30:	480b883a 	mov	r5,r9
   84a34:	100d883a 	mov	r6,r2
   84a38:	0082b541 	jmpi	82b54 <___vfprintf_internal_r>

00084a3c <__swsetup_r>:
   84a3c:	008002b4 	movhi	r2,10
   84a40:	10aee604 	addi	r2,r2,-17512
   84a44:	10c00017 	ldw	r3,0(r2)
   84a48:	defffd04 	addi	sp,sp,-12
   84a4c:	dc400115 	stw	r17,4(sp)
   84a50:	dc000015 	stw	r16,0(sp)
   84a54:	dfc00215 	stw	ra,8(sp)
   84a58:	2023883a 	mov	r17,r4
   84a5c:	2821883a 	mov	r16,r5
   84a60:	18000226 	beq	r3,zero,84a6c <__swsetup_r+0x30>
   84a64:	18800e17 	ldw	r2,56(r3)
   84a68:	10001f26 	beq	r2,zero,84ae8 <__swsetup_r+0xac>
   84a6c:	8100030b 	ldhu	r4,12(r16)
   84a70:	2080020c 	andi	r2,r4,8
   84a74:	10002826 	beq	r2,zero,84b18 <__swsetup_r+0xdc>
   84a78:	81400417 	ldw	r5,16(r16)
   84a7c:	28001d26 	beq	r5,zero,84af4 <__swsetup_r+0xb8>
   84a80:	2080004c 	andi	r2,r4,1
   84a84:	1005003a 	cmpeq	r2,r2,zero
   84a88:	10000b26 	beq	r2,zero,84ab8 <__swsetup_r+0x7c>
   84a8c:	2080008c 	andi	r2,r4,2
   84a90:	10001226 	beq	r2,zero,84adc <__swsetup_r+0xa0>
   84a94:	0005883a 	mov	r2,zero
   84a98:	80800215 	stw	r2,8(r16)
   84a9c:	28000b26 	beq	r5,zero,84acc <__swsetup_r+0x90>
   84aa0:	0005883a 	mov	r2,zero
   84aa4:	dfc00217 	ldw	ra,8(sp)
   84aa8:	dc400117 	ldw	r17,4(sp)
   84aac:	dc000017 	ldw	r16,0(sp)
   84ab0:	dec00304 	addi	sp,sp,12
   84ab4:	f800283a 	ret
   84ab8:	80800517 	ldw	r2,20(r16)
   84abc:	80000215 	stw	zero,8(r16)
   84ac0:	0085c83a 	sub	r2,zero,r2
   84ac4:	80800615 	stw	r2,24(r16)
   84ac8:	283ff51e 	bne	r5,zero,84aa0 <__swsetup_r+0x64>
   84acc:	2080200c 	andi	r2,r4,128
   84ad0:	103ff326 	beq	r2,zero,84aa0 <__swsetup_r+0x64>
   84ad4:	00bfffc4 	movi	r2,-1
   84ad8:	003ff206 	br	84aa4 <__swsetup_r+0x68>
   84adc:	80800517 	ldw	r2,20(r16)
   84ae0:	80800215 	stw	r2,8(r16)
   84ae4:	003fed06 	br	84a9c <__swsetup_r+0x60>
   84ae8:	1809883a 	mov	r4,r3
   84aec:	00866080 	call	86608 <__sinit>
   84af0:	003fde06 	br	84a6c <__swsetup_r+0x30>
   84af4:	20c0a00c 	andi	r3,r4,640
   84af8:	00808004 	movi	r2,512
   84afc:	18bfe026 	beq	r3,r2,84a80 <__swsetup_r+0x44>
   84b00:	8809883a 	mov	r4,r17
   84b04:	800b883a 	mov	r5,r16
   84b08:	00873b40 	call	873b4 <__smakebuf_r>
   84b0c:	8100030b 	ldhu	r4,12(r16)
   84b10:	81400417 	ldw	r5,16(r16)
   84b14:	003fda06 	br	84a80 <__swsetup_r+0x44>
   84b18:	2080040c 	andi	r2,r4,16
   84b1c:	103fed26 	beq	r2,zero,84ad4 <__swsetup_r+0x98>
   84b20:	2080010c 	andi	r2,r4,4
   84b24:	10001226 	beq	r2,zero,84b70 <__swsetup_r+0x134>
   84b28:	81400c17 	ldw	r5,48(r16)
   84b2c:	28000526 	beq	r5,zero,84b44 <__swsetup_r+0x108>
   84b30:	80801004 	addi	r2,r16,64
   84b34:	28800226 	beq	r5,r2,84b40 <__swsetup_r+0x104>
   84b38:	8809883a 	mov	r4,r17
   84b3c:	00869c00 	call	869c0 <_free_r>
   84b40:	80000c15 	stw	zero,48(r16)
   84b44:	8080030b 	ldhu	r2,12(r16)
   84b48:	81400417 	ldw	r5,16(r16)
   84b4c:	80000115 	stw	zero,4(r16)
   84b50:	10bff6cc 	andi	r2,r2,65499
   84b54:	8080030d 	sth	r2,12(r16)
   84b58:	81400015 	stw	r5,0(r16)
   84b5c:	8080030b 	ldhu	r2,12(r16)
   84b60:	10800214 	ori	r2,r2,8
   84b64:	113fffcc 	andi	r4,r2,65535
   84b68:	8080030d 	sth	r2,12(r16)
   84b6c:	003fc306 	br	84a7c <__swsetup_r+0x40>
   84b70:	81400417 	ldw	r5,16(r16)
   84b74:	003ff906 	br	84b5c <__swsetup_r+0x120>

00084b78 <quorem>:
   84b78:	28c00417 	ldw	r3,16(r5)
   84b7c:	20800417 	ldw	r2,16(r4)
   84b80:	defff104 	addi	sp,sp,-60
   84b84:	dfc00e15 	stw	ra,56(sp)
   84b88:	df000d15 	stw	fp,52(sp)
   84b8c:	ddc00c15 	stw	r23,48(sp)
   84b90:	dd800b15 	stw	r22,44(sp)
   84b94:	dd400a15 	stw	r21,40(sp)
   84b98:	dd000915 	stw	r20,36(sp)
   84b9c:	dcc00815 	stw	r19,32(sp)
   84ba0:	dc800715 	stw	r18,28(sp)
   84ba4:	dc400615 	stw	r17,24(sp)
   84ba8:	dc000515 	stw	r16,20(sp)
   84bac:	d9000315 	stw	r4,12(sp)
   84bb0:	d9400415 	stw	r5,16(sp)
   84bb4:	10c07f16 	blt	r2,r3,84db4 <quorem+0x23c>
   84bb8:	1d3fffc4 	addi	r20,r3,-1
   84bbc:	d8c00417 	ldw	r3,16(sp)
   84bc0:	d9000317 	ldw	r4,12(sp)
   84bc4:	a505883a 	add	r2,r20,r20
   84bc8:	1085883a 	add	r2,r2,r2
   84bcc:	1cc00504 	addi	r19,r3,20
   84bd0:	25c00504 	addi	r23,r4,20
   84bd4:	98ad883a 	add	r22,r19,r2
   84bd8:	15c7883a 	add	r3,r2,r23
   84bdc:	b1400017 	ldw	r5,0(r22)
   84be0:	19000017 	ldw	r4,0(r3)
   84be4:	d8c00015 	stw	r3,0(sp)
   84be8:	29400044 	addi	r5,r5,1
   84bec:	d9000215 	stw	r4,8(sp)
   84bf0:	00827100 	call	82710 <__udivsi3>
   84bf4:	1039883a 	mov	fp,r2
   84bf8:	10003d1e 	bne	r2,zero,84cf0 <quorem+0x178>
   84bfc:	d9400417 	ldw	r5,16(sp)
   84c00:	d9000317 	ldw	r4,12(sp)
   84c04:	00880e00 	call	880e0 <__mcmp>
   84c08:	10002c16 	blt	r2,zero,84cbc <quorem+0x144>
   84c0c:	e7000044 	addi	fp,fp,1
   84c10:	b80f883a 	mov	r7,r23
   84c14:	0011883a 	mov	r8,zero
   84c18:	0009883a 	mov	r4,zero
   84c1c:	99400017 	ldw	r5,0(r19)
   84c20:	38c00017 	ldw	r3,0(r7)
   84c24:	9cc00104 	addi	r19,r19,4
   84c28:	28bfffcc 	andi	r2,r5,65535
   84c2c:	2085883a 	add	r2,r4,r2
   84c30:	11bfffcc 	andi	r6,r2,65535
   84c34:	193fffcc 	andi	r4,r3,65535
   84c38:	1004d43a 	srli	r2,r2,16
   84c3c:	280ad43a 	srli	r5,r5,16
   84c40:	2189c83a 	sub	r4,r4,r6
   84c44:	2209883a 	add	r4,r4,r8
   84c48:	1806d43a 	srli	r3,r3,16
   84c4c:	288b883a 	add	r5,r5,r2
   84c50:	200dd43a 	srai	r6,r4,16
   84c54:	28bfffcc 	andi	r2,r5,65535
   84c58:	1887c83a 	sub	r3,r3,r2
   84c5c:	1987883a 	add	r3,r3,r6
   84c60:	3900000d 	sth	r4,0(r7)
   84c64:	38c0008d 	sth	r3,2(r7)
   84c68:	2808d43a 	srli	r4,r5,16
   84c6c:	39c00104 	addi	r7,r7,4
   84c70:	1811d43a 	srai	r8,r3,16
   84c74:	b4ffe92e 	bgeu	r22,r19,84c1c <quorem+0xa4>
   84c78:	a505883a 	add	r2,r20,r20
   84c7c:	1085883a 	add	r2,r2,r2
   84c80:	b885883a 	add	r2,r23,r2
   84c84:	10c00017 	ldw	r3,0(r2)
   84c88:	18000c1e 	bne	r3,zero,84cbc <quorem+0x144>
   84c8c:	113fff04 	addi	r4,r2,-4
   84c90:	b900082e 	bgeu	r23,r4,84cb4 <quorem+0x13c>
   84c94:	10bfff17 	ldw	r2,-4(r2)
   84c98:	10000326 	beq	r2,zero,84ca8 <quorem+0x130>
   84c9c:	00000506 	br	84cb4 <quorem+0x13c>
   84ca0:	20800017 	ldw	r2,0(r4)
   84ca4:	1000031e 	bne	r2,zero,84cb4 <quorem+0x13c>
   84ca8:	213fff04 	addi	r4,r4,-4
   84cac:	a53fffc4 	addi	r20,r20,-1
   84cb0:	b93ffb36 	bltu	r23,r4,84ca0 <quorem+0x128>
   84cb4:	d9000317 	ldw	r4,12(sp)
   84cb8:	25000415 	stw	r20,16(r4)
   84cbc:	e005883a 	mov	r2,fp
   84cc0:	dfc00e17 	ldw	ra,56(sp)
   84cc4:	df000d17 	ldw	fp,52(sp)
   84cc8:	ddc00c17 	ldw	r23,48(sp)
   84ccc:	dd800b17 	ldw	r22,44(sp)
   84cd0:	dd400a17 	ldw	r21,40(sp)
   84cd4:	dd000917 	ldw	r20,36(sp)
   84cd8:	dcc00817 	ldw	r19,32(sp)
   84cdc:	dc800717 	ldw	r18,28(sp)
   84ce0:	dc400617 	ldw	r17,24(sp)
   84ce4:	dc000517 	ldw	r16,20(sp)
   84ce8:	dec00f04 	addi	sp,sp,60
   84cec:	f800283a 	ret
   84cf0:	b823883a 	mov	r17,r23
   84cf4:	9825883a 	mov	r18,r19
   84cf8:	d8000115 	stw	zero,4(sp)
   84cfc:	002b883a 	mov	r21,zero
   84d00:	94000017 	ldw	r16,0(r18)
   84d04:	e009883a 	mov	r4,fp
   84d08:	94800104 	addi	r18,r18,4
   84d0c:	817fffcc 	andi	r5,r16,65535
   84d10:	00827200 	call	82720 <__mulsi3>
   84d14:	800ad43a 	srli	r5,r16,16
   84d18:	e009883a 	mov	r4,fp
   84d1c:	a8a1883a 	add	r16,r21,r2
   84d20:	00827200 	call	82720 <__mulsi3>
   84d24:	89000017 	ldw	r4,0(r17)
   84d28:	80ffffcc 	andi	r3,r16,65535
   84d2c:	8020d43a 	srli	r16,r16,16
   84d30:	217fffcc 	andi	r5,r4,65535
   84d34:	28cbc83a 	sub	r5,r5,r3
   84d38:	d8c00117 	ldw	r3,4(sp)
   84d3c:	2008d43a 	srli	r4,r4,16
   84d40:	1405883a 	add	r2,r2,r16
   84d44:	28cb883a 	add	r5,r5,r3
   84d48:	280dd43a 	srai	r6,r5,16
   84d4c:	10ffffcc 	andi	r3,r2,65535
   84d50:	20c9c83a 	sub	r4,r4,r3
   84d54:	2189883a 	add	r4,r4,r6
   84d58:	8900008d 	sth	r4,2(r17)
   84d5c:	2009d43a 	srai	r4,r4,16
   84d60:	8940000d 	sth	r5,0(r17)
   84d64:	102ad43a 	srli	r21,r2,16
   84d68:	8c400104 	addi	r17,r17,4
   84d6c:	d9000115 	stw	r4,4(sp)
   84d70:	b4bfe32e 	bgeu	r22,r18,84d00 <quorem+0x188>
   84d74:	d9000217 	ldw	r4,8(sp)
   84d78:	203fa01e 	bne	r4,zero,84bfc <quorem+0x84>
   84d7c:	d8800017 	ldw	r2,0(sp)
   84d80:	10ffff04 	addi	r3,r2,-4
   84d84:	b8c0082e 	bgeu	r23,r3,84da8 <quorem+0x230>
   84d88:	10bfff17 	ldw	r2,-4(r2)
   84d8c:	10000326 	beq	r2,zero,84d9c <quorem+0x224>
   84d90:	00000506 	br	84da8 <quorem+0x230>
   84d94:	18800017 	ldw	r2,0(r3)
   84d98:	1000031e 	bne	r2,zero,84da8 <quorem+0x230>
   84d9c:	18ffff04 	addi	r3,r3,-4
   84da0:	a53fffc4 	addi	r20,r20,-1
   84da4:	b8fffb36 	bltu	r23,r3,84d94 <quorem+0x21c>
   84da8:	d8c00317 	ldw	r3,12(sp)
   84dac:	1d000415 	stw	r20,16(r3)
   84db0:	003f9206 	br	84bfc <quorem+0x84>
   84db4:	0005883a 	mov	r2,zero
   84db8:	003fc106 	br	84cc0 <quorem+0x148>

00084dbc <_dtoa_r>:
   84dbc:	22001017 	ldw	r8,64(r4)
   84dc0:	deffda04 	addi	sp,sp,-152
   84dc4:	dd402115 	stw	r21,132(sp)
   84dc8:	dd002015 	stw	r20,128(sp)
   84dcc:	dc801e15 	stw	r18,120(sp)
   84dd0:	dc401d15 	stw	r17,116(sp)
   84dd4:	dfc02515 	stw	ra,148(sp)
   84dd8:	df002415 	stw	fp,144(sp)
   84ddc:	ddc02315 	stw	r23,140(sp)
   84de0:	dd802215 	stw	r22,136(sp)
   84de4:	dcc01f15 	stw	r19,124(sp)
   84de8:	dc001c15 	stw	r16,112(sp)
   84dec:	d9001615 	stw	r4,88(sp)
   84df0:	3023883a 	mov	r17,r6
   84df4:	2829883a 	mov	r20,r5
