
experiment2.elf:     file format elf32-littlenios2
experiment2.elf
architecture: nios2, flags 0x00000112:
EXEC_P, HAS_SYMS, D_PAGED
start address 0x000801bc

Program Header:
    LOAD off    0x00001000 vaddr 0x00080000 paddr 0x00080000 align 2**12
         filesz 0x00000020 memsz 0x00000020 flags r-x
    LOAD off    0x00001020 vaddr 0x00080020 paddr 0x00080020 align 2**12
         filesz 0x000193a4 memsz 0x000193a4 flags r-x
    LOAD off    0x0001a3c4 vaddr 0x000993c4 paddr 0x0009aed8 align 2**12
         filesz 0x00001b14 memsz 0x00001b14 flags rw-
    LOAD off    0x0001c9ec vaddr 0x0009c9ec paddr 0x0009c9ec align 2**12
         filesz 0x00000000 memsz 0x0000f820 flags rw-

Sections:
Idx Name          Size      VMA       LMA       File off  Algn
  0 .entry        00000020  00080000  00080000  00001000  2**5
                  CONTENTS, ALLOC, LOAD, READONLY, CODE
  1 .exceptions   0000019c  00080020  00080020  00001020  2**2
                  CONTENTS, ALLOC, LOAD, READONLY, CODE
  2 .text         00018418  000801bc  000801bc  000011bc  2**2
                  CONTENTS, ALLOC, LOAD, READONLY, CODE
  3 .rodata       00000df0  000985d4  000985d4  000195d4  2**2
                  CONTENTS, ALLOC, LOAD, READONLY, DATA
  4 .rwdata       00001b14  000993c4  0009aed8  0001a3c4  2**2
                  CONTENTS, ALLOC, LOAD, DATA, SMALL_DATA
  5 .bss          0000f820  0009c9ec  0009c9ec  0001c9ec  2**2
                  ALLOC, SMALL_DATA
  6 .comment      00000023  00000000  00000000  0001bed8  2**0
                  CONTENTS, READONLY
  7 .debug_aranges 00000f58  00000000  00000000  0001bf00  2**3
                  CONTENTS, READONLY, DEBUGGING
  8 .debug_pubnames 000025c9  00000000  00000000  0001ce58  2**0
                  CONTENTS, READONLY, DEBUGGING
  9 .debug_info   0003674e  00000000  00000000  0001f421  2**0
                  CONTENTS, READONLY, DEBUGGING
 10 .debug_abbrev 0000a314  00000000  00000000  00055b6f  2**0
                  CONTENTS, READONLY, DEBUGGING
 11 .debug_line   0001dc52  00000000  00000000  0005fe83  2**0
                  CONTENTS, READONLY, DEBUGGING
 12 .debug_frame  000029f0  00000000  00000000  0007dad8  2**2
                  CONTENTS, READONLY, DEBUGGING
 13 .debug_str    0000279a  00000000  00000000  000804c8  2**0
                  CONTENTS, READONLY, DEBUGGING
 14 .debug_loc    0000db09  00000000  00000000  00082c62  2**0
                  CONTENTS, READONLY, DEBUGGING
 15 .debug_alt_sim_info 00000010  00000000  00000000  0009076c  2**2
                  CONTENTS, READONLY, DEBUGGING
 16 .debug_ranges 000009f8  00000000  00000000  00090780  2**3
                  CONTENTS, READONLY, DEBUGGING
 17 .thread_model 00000006  00000000  00000000  000960bf  2**0
                  CONTENTS, READONLY
 18 .cpu          00000005  00000000  00000000  000960c5  2**0
                  CONTENTS, READONLY
 19 .qsys         00000001  00000000  00000000  000960ca  2**0
                  CONTENTS, READONLY
 20 .simulation_enabled 00000001  00000000  00000000  000960cb  2**0
                  CONTENTS, READONLY
 21 .stderr_dev   0000000b  00000000  00000000  000960cc  2**0
                  CONTENTS, READONLY
 22 .stdin_dev    0000000b  00000000  00000000  000960d7  2**0
                  CONTENTS, READONLY
 23 .stdout_dev   0000000b  00000000  00000000  000960e2  2**0
                  CONTENTS, READONLY
 24 .sopc_system_name 0000000b  00000000  00000000  000960ed  2**0
                  CONTENTS, READONLY
 25 .quartus_project_dir 00000049  00000000  00000000  000960f8  2**0
                  CONTENTS, READONLY
 26 .sopcinfo     0004b6b5  00000000  00000000  00096141  2**0
                  CONTENTS, READONLY
SYMBOL TABLE:
00080000 l    d  .entry	00000000 .entry
00080020 l    d  .exceptions	00000000 .exceptions
000801bc l    d  .text	00000000 .text
000985d4 l    d  .rodata	00000000 .rodata
000993c4 l    d  .rwdata	00000000 .rwdata
0009c9ec l    d  .bss	00000000 .bss
00000000 l    d  .comment	00000000 .comment
00000000 l    d  .debug_aranges	00000000 .debug_aranges
00000000 l    d  .debug_pubnames	00000000 .debug_pubnames
00000000 l    d  .debug_info	00000000 .debug_info
00000000 l    d  .debug_abbrev	00000000 .debug_abbrev
00000000 l    d  .debug_line	00000000 .debug_line
00000000 l    d  .debug_frame	00000000 .debug_frame
00000000 l    d  .debug_str	00000000 .debug_str
00000000 l    d  .debug_loc	00000000 .debug_loc
00000000 l    d  .debug_alt_sim_info	00000000 .debug_alt_sim_info
00000000 l    d  .debug_ranges	00000000 .debug_ranges
000801f4 l       .text	00000000 alt_after_alt_main
00000000 l    df *ABS*	00000000 alt_irq_handler.c
00000000 l    df *ABS*	00000000 PB_button.c
00000000 l    df *ABS*	00000000 alt_ucosii_simple_error_check.c
00000000 l    df *ABS*	00000000 experiment2.c
00000000 l    df *ABS*	00000000 tasks.c
00000000 l    df *ABS*	00000000 lib2-divmod.c
00082430 l     F .text	0000007c udivmodsi4
00000000 l    df *ABS*	00000000 lib2-mul.c
00000000 l    df *ABS*	00000000 fprintf.c
00000000 l    df *ABS*	00000000 fwrite.c
00000000 l    df *ABS*	00000000 impure.c
000993c4 l     O .rwdata	00000400 impure_data
00000000 l    df *ABS*	00000000 printf.c
00000000 l    df *ABS*	00000000 puts.c
00000000 l    df *ABS*	00000000 rand.c
00000000 l    df *ABS*	00000000 strlen.c
00000000 l    df *ABS*	00000000 vfprintf.c
00082934 l     F .text	00000058 __sprint_r
00098fba l     O .rodata	00000010 blanks.3452
00098faa l     O .rodata	00000010 zeroes.3453
00000000 l    df *ABS*	00000000 wsetup.c
00000000 l    df *ABS*	00000000 dtoa.c
000849b0 l     F .text	00000244 quorem
00000000 l    df *ABS*	00000000 fflush.c
00000000 l    df *ABS*	00000000 findfp.c
000863d8 l     F .text	00000058 std
000864e4 l     F .text	00000008 __fp_lock
000864ec l     F .text	00000008 __fp_unlock
00000000 l    df *ABS*	00000000 mallocr.c
00000000 l    df *ABS*	00000000 fvwrite.c
00000000 l    df *ABS*	00000000 fwalk.c
00000000 l    df *ABS*	00000000 locale.c
0009ae28 l     O .rwdata	00000004 charset
00098fec l     O .rodata	00000030 lconv
00000000 l    df *ABS*	00000000 makebuf.c
00000000 l    df *ABS*	00000000 mallocr.c
00000000 l    df *ABS*	00000000 memchr.c
00000000 l    df *ABS*	00000000 memcpy.c
00000000 l    df *ABS*	00000000 memmove.c
00000000 l    df *ABS*	00000000 memset.c
00000000 l    df *ABS*	00000000 mprec.c
00099134 l     O .rodata	0000000c p05.2458
00000000 l    df *ABS*	00000000 mallocr.c
00000000 l    df *ABS*	00000000 s_isinfd.c
00000000 l    df *ABS*	00000000 s_isnand.c
00000000 l    df *ABS*	00000000 sbrkr.c
00000000 l    df *ABS*	00000000 stdio.c
00000000 l    df *ABS*	00000000 strcmp.c
00000000 l    df *ABS*	00000000 writer.c
00000000 l    df *ABS*	00000000 mallocr.c
00000000 l    df *ABS*	00000000 closer.c
00000000 l    df *ABS*	00000000 fclose.c
00000000 l    df *ABS*	00000000 fstatr.c
00000000 l    df *ABS*	00000000 int_errno.c
00000000 l    df *ABS*	00000000 isattyr.c
00000000 l    df *ABS*	00000000 lseekr.c
00000000 l    df *ABS*	00000000 readr.c
00000000 l    df *ABS*	00000000 libgcc2.c
00000000 l    df *ABS*	00000000 libgcc2.c
00000000 l    df *ABS*	00000000 libgcc2.c
00000000 l    df *ABS*	00000000 dp-bit.c
0008a9bc l     F .text	00000410 _fpadd_parts
00000000 l    df *ABS*	00000000 dp-bit.c
00000000 l    df *ABS*	00000000 dp-bit.c
00000000 l    df *ABS*	00000000 dp-bit.c
00000000 l    df *ABS*	00000000 dp-bit.c
00000000 l    df *ABS*	00000000 dp-bit.c
00000000 l    df *ABS*	00000000 dp-bit.c
00000000 l    df *ABS*	00000000 dp-bit.c
00000000 l    df *ABS*	00000000 dp-bit.c
00000000 l    df *ABS*	00000000 dp-bit.c
00000000 l    df *ABS*	00000000 dp-bit.c
00000000 l    df *ABS*	00000000 dp-bit.c
00000000 l    df *ABS*	00000000 libgcc2.c
00000000 l    df *ABS*	00000000 libgcc2.c
00000000 l    df *ABS*	00000000 dp-bit.c
00000000 l    df *ABS*	00000000 dp-bit.c
00000000 l    df *ABS*	00000000 dp-bit.c
00000000 l    df *ABS*	00000000 alt_close.c
0008c17c l     F .text	00000060 alt_get_errno
00000000 l    df *ABS*	00000000 alt_dev.c
0008c1dc l     F .text	0000002c alt_dev_null_write
00000000 l    df *ABS*	00000000 alt_errno.c
00000000 l    df *ABS*	00000000 alt_fstat.c
0008c2e0 l     F .text	00000060 alt_get_errno
00000000 l    df *ABS*	00000000 alt_irq_register.c
00000000 l    df *ABS*	00000000 alt_irq_vars.c
00000000 l    df *ABS*	00000000 alt_isatty.c
0008c5c4 l     F .text	00000060 alt_get_errno
00000000 l    df *ABS*	00000000 alt_load.c
0008c6a4 l     F .text	0000006c alt_load_section
00000000 l    df *ABS*	00000000 alt_lseek.c
0008c804 l     F .text	00000060 alt_get_errno
00000000 l    df *ABS*	00000000 alt_main.c
00000000 l    df *ABS*	00000000 alt_printf.c
00000000 l    df *ABS*	00000000 alt_putchar.c
00000000 l    df *ABS*	00000000 alt_read.c
0008cce8 l     F .text	00000060 alt_get_errno
00000000 l    df *ABS*	00000000 alt_release_fd.c
00000000 l    df *ABS*	00000000 alt_sbrk.c
0009ae50 l     O .rwdata	00000004 heap_end
00000000 l    df *ABS*	00000000 alt_write.c
0008cfa0 l     F .text	00000060 alt_get_errno
00000000 l    df *ABS*	00000000 alt_env_lock.c
0009ae54 l     O .rwdata	00000004 lockid
0009ca1c l     O .bss	00000004 locks
00000000 l    df *ABS*	00000000 alt_malloc_lock.c
0009ae58 l     O .rwdata	00000004 lockid
0009ca24 l     O .bss	00000004 locks
00000000 l    df *ABS*	00000000 os_core.c
0008e9d8 l     F .text	00000044 OS_InitMisc
0008ea1c l     F .text	0000006c OS_InitRdyList
0008eb80 l     F .text	000000e0 OS_InitTCBList
0008e8fc l     F .text	000000dc OS_InitEventList
0008ea88 l     F .text	0000007c OS_InitTaskIdle
0008eb04 l     F .text	0000007c OS_InitTaskStat
0008edf4 l     F .text	00000070 OS_SchedNew
00000000 l    df *ABS*	00000000 os_dbg.c
00000000 l    df *ABS*	00000000 os_flag.c
00090d14 l     F .text	00000110 OS_FlagTaskRdy
00090a6c l     F .text	000001c4 OS_FlagBlock
00000000 l    df *ABS*	00000000 os_mem.c
00000000 l    df *ABS*	00000000 os_q.c
00000000 l    df *ABS*	00000000 os_sem.c
00000000 l    df *ABS*	00000000 os_task.c
00000000 l    df *ABS*	00000000 os_time.c
00000000 l    df *ABS*	00000000 alt_sys_init.c
00099d80 l     O .rwdata	0000106c jtag_uart_0
0009adec l     O .rwdata	0000002c character_lcd_0
00095684 l     F .text	00000038 alt_dev_reg
00000000 l    df *ABS*	00000000 altera_avalon_jtag_uart_fd.c
00000000 l    df *ABS*	00000000 altera_avalon_jtag_uart_init.c
0009593c l     F .text	000002c4 altera_avalon_jtag_uart_irq
00095c00 l     F .text	00000114 altera_avalon_jtag_uart_timeout
00000000 l    df *ABS*	00000000 altera_avalon_jtag_uart_ioctl.c
00000000 l    df *ABS*	00000000 altera_avalon_jtag_uart_read.c
00000000 l    df *ABS*	00000000 altera_avalon_jtag_uart_write.c
00000000 l    df *ABS*	00000000 altera_avalon_timer_sc.c
00096418 l     F .text	00000070 alt_avalon_timer_sc_irq
00000000 l    df *ABS*	00000000 altera_up_avalon_character_lcd.c
00000000 l    df *ABS*	00000000 alt_alarm_start.c
00000000 l    df *ABS*	00000000 alt_dcache_flush_all.c
00000000 l    df *ABS*	00000000 alt_dev_llist_insert.c
00096c6c l     F .text	00000060 alt_get_errno
00000000 l    df *ABS*	00000000 alt_do_ctors.c
00000000 l    df *ABS*	00000000 alt_do_dtors.c
00000000 l    df *ABS*	00000000 alt_find_dev.c
00000000 l    df *ABS*	00000000 alt_icache_flush_all.c
00000000 l    df *ABS*	00000000 alt_iic.c
00000000 l    df *ABS*	00000000 alt_iic_isr_register.c
00000000 l    df *ABS*	00000000 alt_io_redirect.c
00097110 l     F .text	000000d8 alt_open_fd
00000000 l    df *ABS*	00000000 alt_open.c
00097260 l     F .text	000000f8 alt_file_locked
000974e4 l     F .text	00000060 alt_get_errno
00000000 l    df *ABS*	00000000 alt_tick.c
00000000 l    df *ABS*	00000000 altera_nios2_qsys_irq.c
00000040 l       *ABS*	00000000 OSCtxSw_SWITCH_PC
00000000 l    df *ABS*	00000000 os_cpu_c.c
00000014 l       *ABS*	00000000 OSTCBNext_OFFSET
00000032 l       *ABS*	00000000 OSTCBPrio_OFFSET
00000000 l       *ABS*	00000000 OSTCBStkPtr_OFFSET
00000000 l    df *ABS*	00000000 alt_find_file.c
00000000 l    df *ABS*	00000000 alt_get_fd.c
00000000 l    df *ABS*	00000000 atexit.c
00000000 l    df *ABS*	00000000 exit.c
00000000 l    df *ABS*	00000000 memcmp.c
00000000 l    df *ABS*	00000000 putc.c
00000000 l    df *ABS*	00000000 wbuf.c
00000000 l    df *ABS*	00000000 __atexit.c
00000000 l    df *ABS*	00000000 __call_atexit.c
00098344 l     F .text	00000004 register_fini
00000000 l    df *ABS*	00000000 alt_exit.c
000984f8 l     F .text	00000040 alt_sim_halt
000881c8 g     F .text	00000094 _mprec_log10
0009aea6 g     O .rwdata	00000002 OSTaskNameSize
000882b4 g     F .text	00000088 __any_on
00089a6c g     F .text	00000070 _isatty_r
0009910c g     O .rodata	00000028 __mprec_tinytens
0008c864 g     F .text	000000c8 alt_main
00082778 g     F .text	000000a0 _puts_r
000abf7c g     O .bss	00000100 alt_irq
00089adc g     F .text	00000078 _lseek_r
00091608 g     F .text	000000d4 OS_MemInit
0009aed8 g       *ABS*	00000000 __flash_rwdata_start
00095568 g     F .text	00000064 OSTimeSet
00096594 g     F .text	00000034 alt_up_character_lcd_send_cmd
0008b4dc g     F .text	00000088 __eqdf2
0008d554 g     F .text	000006b4 OSEventPendMulti
000ac20c g       *ABS*	00000000 __alt_heap_start
00097aec g     F .text	00000020 OSTaskCreateHook
0009caac g     O .bss	00002000 custom_scheduler_stk
00082700 g     F .text	00000044 printf
0009ae7e g     O .rwdata	00000002 OSMboxEn
0008dc5c g     F .text	0000007c OSIntEnter
00089524 g     F .text	00000068 __sseek
00086440 g     F .text	000000a4 __sinit
000980c4 g     F .text	00000130 __swbuf_r
0009ae8e g     O .rwdata	00000002 OSQEn
0008714c g     F .text	00000084 _setlocale_r
00086540 g     F .text	0000009c __sfmoreglue
0008d210 g     F .text	000000d0 __malloc_unlock
00097b48 g     F .text	0000001c OSTaskStatHook
0009ca2c g     O .bss	00000001 OSLockNesting
000803fc g     F .text	000000ac KEY3_Pressed
0009aecc g     O .rwdata	00000002 OSDataSize
0009ca2d g     O .bss	00000001 OSRunning
00087c44 g     F .text	000000e0 memmove
00097b80 g     F .text	0000001c OSInitHookBegin
0009aec4 g     O .rwdata	00000002 OSTmrSize
00086530 g     F .text	00000010 _cleanup
0008833c g     F .text	000000bc _Balloc
0009ca30 g     O .bss	00000004 OSIdleCtr
0008b5ec g     F .text	00000088 __gtdf2
000977b8 g       .text	00000000 OSStartTsk
00000000  w      *UND*	00000000 __errno
00096518 g     F .text	0000007c get_DDRAM_addr
0008f128 g     F .text	000002e0 OS_TCBInit
00080000 g     F .entry	0000000c __reset
0009aeca g     O .rwdata	00000002 OSTmrWheelTblSize
00080020 g       *ABS*	00000000 __flash_exceptions_start
0009ae6a g     O .rwdata	00000002 OSEventSize
0009ca34 g     O .bss	00000001 OSPrioHighRdy
000899f8 g     F .text	00000074 _fstat_r
00097b0c g     F .text	00000020 OSTaskDelHook
0009ca04 g     O .bss	00000004 errno
00097798 g       .text	00000000 OSStartHighRdy
00093d20 g     F .text	00000200 OSTaskCreateExt
00080af8 g     F .text	0000003c initialize_task
00090588 g     F .text	00000068 OSFlagPendGetFlagsRdy
0009aeaa g     O .rwdata	00000002 OSTaskStatStkSize
0008f594 g     F .text	00000334 OSFlagAccept
00091d44 g     F .text	000000c8 OSQFlush
000916dc g     F .text	00000154 OSQAccept
0009ca14 g     O .bss	00000004 alt_argv
000a2e18 g       *ABS*	00000000 _gp
00093b4c g     F .text	000001d4 OSTaskCreate
000935d8 g     F .text	00000574 OSTaskChangePrio
0009ca28 g     O .bss	00000004 alt_heapsem
0008f408 g     F .text	0000018c OSDebugInit
00093f20 g     F .text	0000040c OSTaskDel
000811bc g     F .text	00000338 custom_scheduler
00099c00 g     O .rwdata	00000180 alt_fd_list
000a8d58 g     O .bss	00000370 OSFlagTbl
000823c0 g     F .text	00000070 custom_delay
0008e6d8 g     F .text	000000b8 OS_EventTaskRemove
00096d94 g     F .text	00000094 alt_find_dev
00087ba4 g     F .text	000000a0 memcpy
0009ae94 g     O .rwdata	00000002 OSRdyTblSize
0009672c g     F .text	0000004c alt_up_character_lcd_write_fd
00086524 g     F .text	0000000c _cleanup_r
0008b784 g     F .text	000000f8 __floatsidf
000971e8 g     F .text	00000078 alt_io_redirect
0008b6fc g     F .text	00000088 __ltdf2
000985d4 g       *ABS*	00000000 __DTOR_END__
00080d74 g     F .text	00000084 init_OS_data_structs
00082818 g     F .text	00000014 puts
0008d2e0 g     F .text	00000130 OSEventNameGet
0009ae78 g     O .rwdata	00000002 OSFlagMax
0009eaac g     O .bss	00000010 new_born_mult_press
00088118 g     F .text	000000b0 __ratio
0008dcd8 g     F .text	00000100 OSIntExit
0009aeb2 g     O .rwdata	00000002 OSTCBSize
0009ca35 g     O .bss	00000001 OSPrioCur
00095e7c g     F .text	000002c0 altera_avalon_jtag_uart_read
00000000  w      *UND*	00000000 malloc
00082744 g     F .text	00000034 _printf_r
0008256c g     F .text	00000008 __udivsi3
0008c500 g     F .text	000000c4 isatty
0009eabc g     O .bss	00008000 periodic_task_stk
0009ae98 g     O .rwdata	00000002 OSStkWidth
0009901c g     O .rodata	000000c8 __mprec_tens
0009ae8c g     O .rwdata	00000002 OSPtrSize
00087128 g     F .text	00000008 __locale_charset
0009ae6c g     O .rwdata	00000002 OSEventTblSize
0009770c g       .text	00000000 OSCtxSw
0009c9f8 g     O .bss	00000004 __malloc_top_pad
0009ca38 g     O .bss	00000004 OSTCBList
000a6abc g     O .bss	00000010 button_times
0009ca08 g     O .bss	00000004 alt_fd_list_lock
0009ae24 g     O .rwdata	00000004 __mb_cur_max
00087130 g     F .text	0000000c _localeconv_r
00088aa0 g     F .text	0000003c __i2b
00086b0c g     F .text	0000049c __sfvwrite_r
000a90c8 g     O .bss	00000c30 OSMemTbl
0009ca3c g     O .bss	00000001 OSTickStepState
000894ac g     F .text	00000070 _sbrk_r
0009ae90 g     O .rwdata	00000002 OSQMax
000a9cf8 g     O .bss	00000800 OSTaskStatStk
000911f0 g     F .text	0000010c OSMemNameGet
0009ae70 g     O .rwdata	00000002 OSFlagEn
00089b54 g     F .text	00000078 _read_r
0009aeb6 g     O .rwdata	00000002 OSTimeTickHookEn
000922a8 g     F .text	00000180 OSQPost
00090e24 g     F .text	000000ac OS_FlagUnlink
000997c4 g     O .rwdata	0000000c __lc_ctype
0009ae44 g     O .rwdata	00000004 alt_max_fd
0008ecb4 g     F .text	0000006c OS_MemCopy
0008ed20 g     F .text	000000d4 OS_Sched
0008be7c g     F .text	00000138 __unpack_d
000898d4 g     F .text	00000110 _fclose_r
000910ec g     F .text	00000104 OSMemGet
00094654 g     F .text	000001c4 OSTaskNameSet
000863a4 g     F .text	00000034 fflush
0009c9fc g     O .bss	00000004 __malloc_max_sbrked_mem
0009ca40 g     O .bss	00000004 OSCtxSwCtr
00097b64 g     F .text	0000001c OSTimeTickHook
0008c340 g     F .text	000001c0 alt_irq_register
0009ae7a g     O .rwdata	00000002 OSFlagNameSize
0008e790 g     F .text	00000104 OS_EventTaskRemoveMulti
0008ae4c g     F .text	00000074 __adddf3
0008e584 g     F .text	00000154 OS_EventTaskWaitMulti
00087ff8 g     F .text	00000120 __b2d
0009ae92 g     O .rwdata	00000002 OSQSize
0008a35c g     F .text	00000660 __umoddi3
0008c710 g     F .text	000000f4 lseek
00092e84 g     F .text	0000027c OSSemPend
0009ae20 g     O .rwdata	00000004 _global_impure_ptr
000a6acc g     O .bss	00000010 PBSemaphore
00088e48 g     F .text	000005f4 _realloc_r
0009ae7c g     O .rwdata	00000002 OSLowestPrio
000ac20c g       *ABS*	00000000 __bss_end
00097018 g     F .text	000000f8 alt_iic_isr_register
00097bd4 g     F .text	00000020 OSTCBInitHook
0009aec2 g     O .rwdata	00000002 OSTmrCfgTicksPerSec
000975dc g     F .text	00000110 alt_tick
000a6adc g     O .bss	0000006c custom_scheduler_tcb
00089cf0 g     F .text	0000066c __udivdi3
0009ae64 g     O .rwdata	00000002 OSEventEn
000990e4 g     O .rodata	00000028 __mprec_bigtens
00088d28 g     F .text	00000120 __s2b
0009aebe g     O .rwdata	00000002 OSTmrCfgNameSize
0008b954 g     F .text	00000194 __floatunsidf
00087f18 g     F .text	00000060 __mcmp
0008650c g     F .text	00000018 __fp_lock_all
00096fd0 g     F .text	00000048 alt_ic_irq_enabled
00090c30 g     F .text	000000e4 OS_FlagInit
00097544 g     F .text	00000098 alt_alarm_stop
0009aea0 g     O .rwdata	00000002 OSTaskIdleStkSize
0009ca0c g     O .bss	00000004 alt_irq_active
00092a10 g     F .text	000000c0 OSSemAccept
0009141c g     F .text	000000f0 OSMemPut
00090ed0 g     F .text	0000021c OSMemCreate
0009ca44 g     O .bss	00000004 OSIdleCtrMax
000800ec g     F .exceptions	000000d0 alt_irq_handler
00099bd8 g     O .rwdata	00000028 alt_dev_null
0009aeb4 g     O .rwdata	00000002 OSTicksPerSec
00080350 g     F .text	000000ac KEY2_Pressed
00096a14 g     F .text	00000034 alt_up_character_lcd_cursor_blink_on
0009770c g       .text	00000000 OSIntCtxSw
00096b9c g     F .text	0000001c alt_dcache_flush_all
00087de4 g     F .text	00000070 __hi0bits
000a6b48 g     O .bss	000001b0 periodic_task_tcb
0008b87c g     F .text	000000d8 __fixdfsi
000a6cf8 g     O .bss	00000010 new_born_and_kicked
0009ca48 g     O .bss	00000004 OSTCBFreeList
0009aed8 g       *ABS*	00000000 __ram_rwdata_end
00093100 g     F .text	0000017c OSSemPendAbort
0009ae3c g     O .rwdata	00000008 alt_dev_list
0008ce7c g     F .text	00000124 write
00097fdc g     F .text	000000e8 _putc_r
0009aeb8 g     O .rwdata	00000002 OSVersionNbr
000993c4 g       *ABS*	00000000 __ram_rodata_end
0008c208 g     F .text	000000d8 fstat
000825b4 g     F .text	0000002c fprintf
0009ae60 g     O .rwdata	00000004 OSEndiannessTest
00088c08 g     F .text	00000120 __pow5mult
0009c9ec g     O .bss	00000004 __nlocale_changed
00082574 g     F .text	00000008 __umodsi3
0009ae72 g     O .rwdata	00000002 OSFlagGrpSize
000ac20c g       *ABS*	00000000 end
00095804 g     F .text	00000138 altera_avalon_jtag_uart_init
0008ef98 g     F .text	000000c8 OS_TaskStat
000985d0 g       *ABS*	00000000 __CTOR_LIST__
00100000 g       *ABS*	00000000 __alt_stack_pointer
00096488 g     F .text	00000090 alt_avalon_timer_sc_init
0008bae8 g     F .text	00000080 __clzsi2
0009613c g     F .text	000002dc altera_avalon_jtag_uart_write
00086430 g     F .text	00000004 __sfp_lock_acquire
00087ac0 g     F .text	000000e4 memchr
0008ec60 g     F .text	00000054 OS_MemClr
0009663c g     F .text	00000078 alt_up_character_lcd_write
0008298c g     F .text	00001ec4 ___vfprintf_internal_r
000977dc g     F .text	00000310 OSTaskStkInit
000867f8 g     F .text	00000314 _free_r
0008c92c g     F .text	00000258 alt_printf
0008e2e0 g     F .text	00000194 OS_EventTaskRdy
00098348 g     F .text	000001b0 __call_exitprocs
0009ca4c g     O .bss	00000001 OSCPUUsage
0009c9f0 g     O .bss	00000004 __mlocale_changed
0009ae30 g     O .rwdata	00000004 __malloc_sbrk_base
000801bc g     F .text	0000003c _start
0009ca7c g     O .bss	00000004 _alt_tick_rate
00091e0c g     F .text	00000320 OSQPend
00095018 g     F .text	0000014c OSTimeDly
00082848 g     F .text	00000078 rand
00088700 g     F .text	0000014c __lshift
0009ca80 g     O .bss	00000004 _alt_nticks
0008cbc4 g     F .text	00000124 read
00095600 g     F .text	00000084 alt_sys_init
000a6d08 g     O .bss	00000030 scheduler_info_holder
000968a0 g     F .text	000000b0 alt_up_character_lcd_shift_display
00098210 g     F .text	00000134 __register_exitproc
0009ca4d g     O .bss	00000001 OSTaskCtr
00080f14 g     F .text	00000090 periodic_task1
000a6d38 g     O .bss	00000010 new_priority_assign
00095164 g     F .text	00000190 OSTimeDlyHMSM
0008884c g     F .text	00000254 __multiply
00096950 g     F .text	00000090 alt_up_character_lcd_erase_pos
00095d14 g     F .text	00000074 altera_avalon_jtag_uart_close
0008257c g     F .text	00000038 __mulsi3
000993c4 g       *ABS*	00000000 __ram_rwdata_start
000985d4 g       *ABS*	00000000 __ram_rodata_start
0009ca84 g     O .bss	00000028 __malloc_current_mallinfo
0009ae66 g     O .rwdata	00000002 OSEventMax
000883f8 g     F .text	0000017c __d2b
0009327c g     F .text	00000128 OSSemPost
000802a4 g     F .text	000000ac KEY1_Pressed
0008de64 g     F .text	000000e4 OSSchedUnlock
000956bc g     F .text	00000058 altera_avalon_jtag_uart_read_fd
00097d14 g     F .text	00000104 alt_get_fd
0009ca50 g     O .bss	00000004 OSMemFreeList
0008dfb8 g     F .text	000000ac OSStatInit
00090998 g     F .text	000000d4 OSFlagQuery
0008bfb4 g     F .text	000000c8 __fpcmp_parts_d
0009ae9c g     O .rwdata	00000002 OSTaskCreateExtEn
00089864 g     F .text	00000070 _close_r
00097e64 g     F .text	00000074 memcmp
0008e2c4 g     F .text	0000001c OS_Dummy
0009576c g     F .text	00000048 altera_avalon_jtag_uart_close_fd
000ac20c g       *ABS*	00000000 __alt_stack_base
000957b4 g     F .text	00000050 altera_avalon_jtag_uart_ioctl_fd
00082614 g     F .text	000000ac _fwrite_r
00084874 g     F .text	0000013c __swsetup_r
000aa4f8 g     O .bss	000001e0 OSQTbl
0008b284 g     F .text	00000258 __divdf3
000865dc g     F .text	000000f0 __sfp
0008825c g     F .text	00000058 __copybits
000997d0 g     O .rwdata	00000408 __malloc_av_
0008643c g     F .text	00000004 __sinit_lock_release
0009ca54 g     O .bss	00000004 OSTCBHighRdy
0008aec0 g     F .text	000003c4 __muldf3
00089608 g     F .text	00000060 __sread
0009ca58 g     O .bss	00000004 OSQFreeList
00097bf4 g     F .text	00000120 alt_find_file
00096bb8 g     F .text	000000b4 alt_dev_llist_insert
0008d108 g     F .text	00000108 __malloc_lock
000825e0 g     F .text	00000034 _fprintf_r
0008cdc0 g     F .text	000000bc sbrk
0008d410 g     F .text	00000144 OSEventNameSet
000861a8 g     F .text	000001fc _fflush_r
0008979c g     F .text	000000c8 _calloc_r
0009ca5c g     O .bss	00000001 OSRdyGrp
0009c9ec g       *ABS*	00000000 __bss_start
00087d24 g     F .text	00000098 memset
00080b34 g     F .text	00000240 main
0009ca18 g     O .bss	00000004 alt_envp
0009ca00 g     O .bss	00000004 __malloc_max_total_mem
00095714 g     F .text	00000058 altera_avalon_jtag_uart_write_fd
000981f4 g     F .text	0000001c __swbuf
0008282c g     F .text	0000001c srand
00099274 g     O .rodata	00000100 OSUnMapTbl
0009ae96 g     O .rwdata	00000002 OSSemEn
000967f0 g     F .text	000000b0 alt_up_character_lcd_shift_cursor
000905f0 g     F .text	000003a8 OSFlagPost
0008951c g     F .text	00000008 __sclose
00080614 g     F .text	000004e4 alt_ucosii_simple_error_handler
00100000 g       *ABS*	00000000 __alt_heap_limit
000899e4 g     F .text	00000014 fclose
0008e474 g     F .text	00000110 OS_EventTaskWait
0008f060 g     F .text	000000c8 OS_TaskStatStkChk
000ac07c g     O .bss	00000190 _atexit0
0009432c g     F .text	00000170 OSTaskDelReq
00084bf4 g     F .text	000015b4 _dtoa_r
00087380 g     F .text	00000740 _malloc_r
0009ae48 g     O .rwdata	00000004 alt_errno
0008df48 g     F .text	00000070 OSStart
0008d0ac g     F .text	0000005c __env_unlock
00087070 g     F .text	000000b8 _fwalk
00094818 g     F .text	00000218 OSTaskResume
0009150c g     F .text	000000fc OSMemQuery
0009aea8 g     O .rwdata	00000002 OSTaskStatEn
0009ae82 g     O .rwdata	00000002 OSMemMax
00092428 g     F .text	00000188 OSQPostFront
00097ed8 g     F .text	00000104 putc
000824ac g     F .text	00000060 __divsi3
0009ca5d g     O .bss	00000003 OSRdyTbl
0009ae5c g     O .rwdata	00000002 OSDebugEn
00099140 g     O .rodata	00000014 __thenan_df
000965fc g     F .text	00000040 alt_up_character_lcd_open_dev
000866cc g     F .text	0000012c _malloc_trim_r
000985d4 g       *ABS*	00000000 __CTOR_END__
0009ae74 g     O .rwdata	00000002 OSFlagNodeSize
0009aebc g     O .rwdata	00000002 OSTmrCfgMax
000965c8 g     F .text	00000034 alt_up_character_lcd_init
00089668 g     F .text	000000bc strcmp
00091830 g     F .text	00000214 OSQCreate
0009449c g     F .text	000001b8 OSTaskNameGet
000985d4 g       *ABS*	00000000 __flash_rodata_start
000925b0 g     F .text	00000234 OSQPostOpt
0008e064 g     F .text	00000240 OSTimeTick
0009aea4 g     O .rwdata	00000002 OSTaskMax
000985d4 g       *ABS*	00000000 __DTOR_LIST__
00092ad0 g     F .text	00000114 OSSemCreate
0009aec8 g     O .rwdata	00000002 OSTmrWheelSize
0008b564 g     F .text	00000088 __nedf2
0009ae9e g     O .rwdata	00000002 OSTaskDelEn
00080000 g       *ABS*	00000000 __alt_mem_sram_0
000a6d48 g     O .bss	00000010 new_born
000933a4 g     F .text	00000130 OSSemQuery
00091a44 g     F .text	00000300 OSQDel
0009212c g     F .text	0000017c OSQPendAbort
000955cc g     F .text	00000034 alt_irq_init
0008cd48 g     F .text	00000078 alt_release_fd
0008057c g     F .text	00000054 init_button_irq
000969e0 g     F .text	00000034 alt_up_character_lcd_cursor_off
00099154 g     O .rodata	00000100 __clz_tab
0009c9f4 g     O .bss	00000004 _PathLocale
00097e18 g     F .text	00000014 atexit
00089724 g     F .text	00000078 _write_r
0008ddd8 g     F .text	0000008c OSSchedLock
000871d0 g     F .text	0000001c setlocale
0008f8c8 g     F .text	0000013c OSFlagCreate
00080df8 g     F .text	0000008c init_create_tasks
0009ae1c g     O .rwdata	00000004 _impure_ptr
0009ca10 g     O .bss	00000004 alt_argc
00096d30 g     F .text	00000064 _do_dtors
0009ae6e g     O .rwdata	00000002 OSEventMultiEn
0008fa04 g     F .text	000002a8 OSFlagDel
0009ca60 g     O .bss	00000004 OSEventFreeList
00080020 g       .exceptions	00000000 alt_irq_entry
00087f78 g     F .text	00000080 __ulp
0008943c g     F .text	00000040 __isinfd
0008ff44 g     F .text	00000644 OSFlagPend
0009aeba g     O .rwdata	00000002 OSTmrEn
000864f4 g     F .text	00000018 __fp_unlock_all
00081034 g     F .text	00000090 periodic_task3
0009ae34 g     O .rwdata	00000008 alt_fs_list
000805d0 g     F .text	00000044 alt_ucosii_check_return_code
0008ee64 g     F .text	00000080 OS_StrCopy
0009ae84 g     O .rwdata	00000002 OSMemNameSize
00097b9c g     F .text	0000001c OSInitHookEnd
00080020 g       *ABS*	00000000 __ram_exceptions_start
0009aeb0 g     O .rwdata	00000002 OSTCBPrioTblMax
0008713c g     F .text	00000010 localeconv
0009aeac g     O .rwdata	00000002 OSTaskStatStkChkEn
00096e44 g     F .text	00000050 alt_ic_isr_register
0009ae80 g     O .rwdata	00000002 OSMemEn
000826c0 g     F .text	00000040 fwrite
0009ae8a g     O .rwdata	00000002 OSMutexEn
0009aed8 g       *ABS*	00000000 _edata
000801f8 g     F .text	000000ac KEY0_Pressed
000ac20c g       *ABS*	00000000 _end
0009ca64 g     O .bss	00000001 OSIntNesting
000801bc g       *ABS*	00000000 __ram_exceptions_end
00095d88 g     F .text	000000f4 altera_avalon_jtag_uart_ioctl
000952f4 g     F .text	00000210 OSTimeDlyResume
0008fdf0 g     F .text	00000154 OSFlagNameSet
00080fa4 g     F .text	00000090 periodic_task2
00094a30 g     F .text	000001fc OSTaskStkChk
00096f30 g     F .text	000000a0 alt_ic_irq_disable
0009ae86 g     O .rwdata	00000002 OSMemSize
0008958c g     F .text	0000007c __swrite
000814f4 g     F .text	00000ecc custom_task_handle
0009ae2c g     O .rwdata	00000004 __malloc_trim_threshold
000976ec g     F .text	00000020 altera_nios2_qsys_irq_init
0009ca68 g     O .bss	00000004 OSTCBCur
00097e2c g     F .text	00000038 exit
0009ae88 g     O .rwdata	00000002 OSMemTblSize
00086fa8 g     F .text	000000c8 _fwalk_reent
00088574 g     F .text	0000018c __mdiff
0008250c g     F .text	00000060 __modsi3
00100000 g       *ABS*	00000000 __alt_data_end
00080020 g     F .exceptions	00000000 alt_exception
00086434 g     F .text	00000004 __sfp_lock_release
0008dc08 g     F .text	00000054 OSInit
00094e58 g     F .text	00000144 OSTaskQuery
000966b4 g     F .text	00000078 alt_up_character_lcd_string
00092964 g     F .text	000000ac OS_QInit
0008eee4 g     F .text	00000058 OS_StrLen
000912fc g     F .text	00000120 OSMemNameSet
0009ae18 g     O .rwdata	00000004 performance_name
0009aea2 g     O .rwdata	00000002 OSTaskProfileEn
0009ca6c g     O .bss	00000004 OSTime
000a6d58 g     O .bss	00002000 initialize_task_stk
000aa6d8 g     O .bss	00000800 OSTaskIdleStk
00098538 g     F .text	0000002c _exit
0008947c g     F .text	00000030 __isnand
00096a48 g     F .text	00000154 alt_alarm_start
0008fcac g     F .text	00000144 OSFlagNameGet
00095504 g     F .text	00000064 OSTimeGet
00089bcc g     F .text	00000124 __muldi3
000871ec g     F .text	00000194 __smakebuf_r
000828c0 g     F .text	00000074 strlen
00097b2c g     F .text	0000001c OSTaskSwHook
00097358 g     F .text	0000018c open
000aaed8 g     O .bss	00000b40 OSEventTbl
0008b674 g     F .text	00000088 __gedf2
0008cb84 g     F .text	00000040 alt_putchar
000aba18 g     O .bss	00000510 OSTCBTbl
000934d4 g     F .text	00000104 OSSemSet
00096e28 g     F .text	0000001c alt_icache_flush_all
00096778 g     F .text	00000078 alt_up_character_lcd_set_cursor_pos
0009ae4c g     O .rwdata	00000004 alt_priority_mask
00092be4 g     F .text	000002a0 OSSemDel
0009ca70 g     O .bss	00000004 OSFlagFreeList
00096e94 g     F .text	0000009c alt_ic_irq_enable
0009ae68 g     O .rwdata	00000002 OSEventNameSize
00084850 g     F .text	00000024 __vfprintf_internal
0009ca74 g     O .bss	00000001 OSStatRdy
000abf28 g     O .bss	00000054 OSTCBPrioTbl
0008d000 g     F .text	000000ac __env_lock
0009aeae g     O .rwdata	00000002 OSTaskSwHookEn
0008adcc g     F .text	00000080 __subdf3
00087e54 g     F .text	000000c4 __lo0bits
0009aed0 g     O .rwdata	00000008 alt_alarm_list
0009ae76 g     O .rwdata	00000002 OSFlagWidth
00096ccc g     F .text	00000064 _do_ctors
000804a8 g     F .text	000000d4 handle_button_interrupts
0008c07c g     F .text	00000100 close
0009ca20 g     O .bss	00000004 alt_envsem
0009ca78 g     O .bss	00000004 OSIdleCtrRun
000810c4 g     F .text	000000f8 find_min_time
0008e2a4 g     F .text	00000020 OSVersion
0009aec0 g     O .rwdata	00000002 OSTmrCfgWheelSize
0008c624 g     F .text	00000080 alt_load
00094f9c g     F .text	0000007c OS_TaskStkClr
0008bb68 g     F .text	00000314 __pack_d
0009ae9a g     O .rwdata	00000002 OSTaskCreateEn
0008e894 g     F .text	00000068 OS_EventWaitListInit
00097bb8 g     F .text	0000001c OSTaskIdleHook
00000000  w      *UND*	00000000 free
00086438 g     F .text	00000004 __sinit_lock_acquire
00088adc g     F .text	0000012c __multadd
00080e84 g     F .text	00000090 periodic_task0
00094c2c g     F .text	0000022c OSTaskSuspend
00087dbc g     F .text	00000028 _Bfree
0008ef3c g     F .text	0000005c OS_TaskIdle
0009aec6 g     O .rwdata	00000002 OSTmrTblSize
000927e4 g     F .text	00000180 OSQQuery



Disassembly of section .entry:

00080000 <__reset>:
 * Jump to the _start entry point in the .text section if reset code
 * is allowed or if optimizing for RTL simulation.
 */
#if defined(ALT_ALLOW_CODE_AT_RESET) || defined(ALT_SIM_OPTIMIZE)
    /* Jump to the _start entry point in the .text section. */
    movhi r1, %hi(_start)
   80000:	00400234 	movhi	at,8
    ori r1, r1, %lo(_start)
   80004:	08406f14 	ori	at,at,444
    jmp r1
   80008:	0800683a 	jmp	at
	...

Disassembly of section .exceptions:

00080020 <alt_exception>:
         * Process an exception.  For all exceptions we must preserve all
         * caller saved registers on the stack (See the Nios2 ABI
         * documentation for details).
         */

        addi  sp, sp, -76
   80020:	deffed04 	addi	sp,sp,-76

#endif

#endif

        stw   ra,  0(sp)
   80024:	dfc00015 	stw	ra,0(sp)
        /*
         * Leave a gap in the stack frame at 4(sp) for the muldiv handler to
         * store zero into.
         */

        stw   r1,   8(sp)
   80028:	d8400215 	stw	at,8(sp)
        stw   r2,  12(sp)
   8002c:	d8800315 	stw	r2,12(sp)
        stw   r3,  16(sp)
   80030:	d8c00415 	stw	r3,16(sp)
        stw   r4,  20(sp)
   80034:	d9000515 	stw	r4,20(sp)
        stw   r5,  24(sp)
   80038:	d9400615 	stw	r5,24(sp)
        stw   r6,  28(sp)
   8003c:	d9800715 	stw	r6,28(sp)
        stw   r7,  32(sp)
   80040:	d9c00815 	stw	r7,32(sp)

        rdctl r5, estatus
   80044:	000b307a 	rdctl	r5,estatus

        stw   r8,  36(sp)
   80048:	da000915 	stw	r8,36(sp)
        stw   r9,  40(sp)
   8004c:	da400a15 	stw	r9,40(sp)
        stw   r10, 44(sp)
   80050:	da800b15 	stw	r10,44(sp)
        stw   r11, 48(sp)
   80054:	dac00c15 	stw	r11,48(sp)
        stw   r12, 52(sp)
   80058:	db000d15 	stw	r12,52(sp)
        stw   r13, 56(sp)
   8005c:	db400e15 	stw	r13,56(sp)
        stw   r14, 60(sp)
   80060:	db800f15 	stw	r14,60(sp)
        stw   r15, 64(sp)
   80064:	dbc01015 	stw	r15,64(sp)
        /*
         * ea-4 contains the address of the instruction being executed
         * when the exception occured. For interrupt exceptions, we will
         * will be re-issue the isntruction. Store it in 72(sp)
         */
        stw   r5,  68(sp)  /* estatus */
   80068:	d9401115 	stw	r5,68(sp)
        addi  r15, ea, -4  /* instruction that caused exception */
   8006c:	ebffff04 	addi	r15,ea,-4
        stw   r15,  72(sp)
   80070:	dbc01215 	stw	r15,72(sp)
#else
        /*
         * Test to see if the exception was a software exception or caused 
         * by an external interrupt, and vector accordingly.
         */
        rdctl r4, ipending
   80074:	0009313a 	rdctl	r4,ipending
        andi  r2, r5, 1
   80078:	2880004c 	andi	r2,r5,1
        beq   r2, zero, .Lnot_irq
   8007c:	10000326 	beq	r2,zero,8008c <alt_exception+0x6c>
        beq   r4, zero, .Lnot_irq
   80080:	20000226 	beq	r4,zero,8008c <alt_exception+0x6c>
        /*
         * Now that all necessary registers have been preserved, call 
         * alt_irq_handler() to process the interrupts.
         */

        call alt_irq_handler
   80084:	00800ec0 	call	800ec <alt_irq_handler>

        .section .exceptions.irqreturn, "xa"

        br    .Lexception_exit
   80088:	00000306 	br	80098 <alt_exception+0x78>
         * upon completion, so we write ea (address of instruction *after*
         * the one where the exception occured) into 72(sp). The actual
         * instruction that caused the exception is written in r2, which these
         * handlers will utilize.
         */
        stw   ea,  72(sp)  /* Don't re-issue */
   8008c:	df401215 	stw	ea,72(sp)
        ldw   r2, -4(ea)   /* Instruction that caused exception */
   80090:	e8bfff17 	ldw	r2,-4(ea)
#ifdef NIOS2_HAS_DEBUG_STUB
       /*
        *  Either tell the user now (if there is a debugger attached) or go into
        *  the debug monitor which will loop until a debugger is attached.
        */
        break
   80094:	003da03a 	break	0
        /* 
         * Restore the saved registers, so that all general purpose registers 
         * have been restored to their state at the time the interrupt occured.
         */

        ldw   r5,  68(sp)
   80098:	d9401117 	ldw	r5,68(sp)
        ldw   ea,  72(sp)  /* This becomes the PC once eret is executed */
   8009c:	df401217 	ldw	ea,72(sp)
        ldw   ra,   0(sp)
   800a0:	dfc00017 	ldw	ra,0(sp)

        wrctl estatus, r5
   800a4:	2801707a 	wrctl	estatus,r5

        ldw   r1,   8(sp)
   800a8:	d8400217 	ldw	at,8(sp)
        ldw   r2,  12(sp)
   800ac:	d8800317 	ldw	r2,12(sp)
        ldw   r3,  16(sp)
   800b0:	d8c00417 	ldw	r3,16(sp)
        ldw   r4,  20(sp)
   800b4:	d9000517 	ldw	r4,20(sp)
        ldw   r5,  24(sp)
   800b8:	d9400617 	ldw	r5,24(sp)
        ldw   r6,  28(sp)
   800bc:	d9800717 	ldw	r6,28(sp)
        ldw   r7,  32(sp)
   800c0:	d9c00817 	ldw	r7,32(sp)
#ifdef ALT_STACK_CHECK
        ldw   et, %gprel(alt_exception_old_stack_limit)(gp)
#endif
#endif

        ldw   r8,  36(sp)
   800c4:	da000917 	ldw	r8,36(sp)
        ldw   r9,  40(sp)
   800c8:	da400a17 	ldw	r9,40(sp)
        ldw   r10, 44(sp)
   800cc:	da800b17 	ldw	r10,44(sp)
        ldw   r11, 48(sp)
   800d0:	dac00c17 	ldw	r11,48(sp)
        ldw   r12, 52(sp)
   800d4:	db000d17 	ldw	r12,52(sp)
        ldw   r13, 56(sp)
   800d8:	db400e17 	ldw	r13,56(sp)
        ldw   r14, 60(sp)
   800dc:	db800f17 	ldw	r14,60(sp)
        ldw   r15, 64(sp)
   800e0:	dbc01017 	ldw	r15,64(sp)
#endif

        ldw   sp,  76(sp)

#else
        addi  sp, sp, 76
   800e4:	dec01304 	addi	sp,sp,76

        /*
         * Return to the interrupted instruction.
         */

        eret
   800e8:	ef80083a 	eret

000800ec <alt_irq_handler>:
 * instruction is present if the macro ALT_CI_INTERRUPT_VECTOR defined.
 */

void alt_irq_handler (void) __attribute__ ((section (".exceptions")));
void alt_irq_handler (void)
{
   800ec:	defff904 	addi	sp,sp,-28
   800f0:	dfc00615 	stw	ra,24(sp)
   800f4:	df000515 	stw	fp,20(sp)
   800f8:	df000504 	addi	fp,sp,20
  
  /*
   * Notify the operating system that we are at interrupt level.
   */ 
  
  ALT_OS_INT_ENTER();
   800fc:	008dc5c0 	call	8dc5c <OSIntEnter>
#ifndef NIOS2_EIC_PRESENT
static ALT_INLINE alt_u32 ALT_ALWAYS_INLINE alt_irq_pending (void)
{
  alt_u32 active;

  NIOS2_READ_IPENDING (active);
   80100:	0005313a 	rdctl	r2,ipending
   80104:	e0bffc15 	stw	r2,-16(fp)

  return active;
   80108:	e0bffc17 	ldw	r2,-16(fp)
   * Consider the case where the high priority interupt is asserted during
   * the interrupt entry sequence for a lower priority interrupt to see why
   * this is the case.
   */

  active = alt_irq_pending ();
   8010c:	e0bfff15 	stw	r2,-4(fp)

  do
  {
    i = 0;
   80110:	e03ffd15 	stw	zero,-12(fp)
    mask = 1;
   80114:	00800044 	movi	r2,1
   80118:	e0bffe15 	stw	r2,-8(fp)
     * called to clear the interrupt condition.
     */

    do
    {
      if (active & mask)
   8011c:	e0ffff17 	ldw	r3,-4(fp)
   80120:	e0bffe17 	ldw	r2,-8(fp)
   80124:	1884703a 	and	r2,r3,r2
   80128:	1005003a 	cmpeq	r2,r2,zero
   8012c:	1000161e 	bne	r2,zero,80188 <alt_irq_handler+0x9c>
      { 
#ifdef ALT_ENHANCED_INTERRUPT_API_PRESENT
        alt_irq[i].handler(alt_irq[i].context); 
   80130:	e0bffd17 	ldw	r2,-12(fp)
   80134:	00c002f4 	movhi	r3,11
   80138:	18efdf04 	addi	r3,r3,-16516
   8013c:	100490fa 	slli	r2,r2,3
   80140:	10c5883a 	add	r2,r2,r3
   80144:	11400017 	ldw	r5,0(r2)
   80148:	e0bffd17 	ldw	r2,-12(fp)
   8014c:	00c002f4 	movhi	r3,11
   80150:	18efdf04 	addi	r3,r3,-16516
   80154:	100490fa 	slli	r2,r2,3
   80158:	10c5883a 	add	r2,r2,r3
   8015c:	10800104 	addi	r2,r2,4
   80160:	11000017 	ldw	r4,0(r2)
   80164:	283ee83a 	callr	r5
#ifndef NIOS2_EIC_PRESENT
static ALT_INLINE alt_u32 ALT_ALWAYS_INLINE alt_irq_pending (void)
{
  alt_u32 active;

  NIOS2_READ_IPENDING (active);
   80168:	0005313a 	rdctl	r2,ipending
   8016c:	e0bffb15 	stw	r2,-20(fp)

  return active;
   80170:	e0bffb17 	ldw	r2,-20(fp)
      mask <<= 1;
      i++;

    } while (1);

    active = alt_irq_pending ();
   80174:	e0bfff15 	stw	r2,-4(fp)
    
  } while (active);
   80178:	e0bfff17 	ldw	r2,-4(fp)
   8017c:	1004c03a 	cmpne	r2,r2,zero
   80180:	103fe31e 	bne	r2,zero,80110 <alt_irq_handler+0x24>
   80184:	00000706 	br	801a4 <alt_irq_handler+0xb8>
#else
        alt_irq[i].handler(alt_irq[i].context, i); 
#endif
        break;
      }
      mask <<= 1;
   80188:	e0bffe17 	ldw	r2,-8(fp)
   8018c:	1085883a 	add	r2,r2,r2
   80190:	e0bffe15 	stw	r2,-8(fp)
      i++;
   80194:	e0bffd17 	ldw	r2,-12(fp)
   80198:	10800044 	addi	r2,r2,1
   8019c:	e0bffd15 	stw	r2,-12(fp)

    } while (1);
   801a0:	003fde06 	br	8011c <alt_irq_handler+0x30>

  /*
   * Notify the operating system that interrupt processing is complete.
   */ 

  ALT_OS_INT_EXIT();
   801a4:	008dcd80 	call	8dcd8 <OSIntExit>
}
   801a8:	e037883a 	mov	sp,fp
   801ac:	dfc00117 	ldw	ra,4(sp)
   801b0:	df000017 	ldw	fp,0(sp)
   801b4:	dec00204 	addi	sp,sp,8
   801b8:	f800283a 	ret

Disassembly of section .text:

000801bc <_start>:
#if (NIOS2_NUM_OF_SHADOW_REG_SETS == 0)    
    /*
     * Now that the caches are initialized, set up the stack pointer.
     * The value provided by the linker is assumed to be correctly aligned.
     */
    movhi sp, %hi(__alt_stack_pointer)
   801bc:	06c00434 	movhi	sp,16
    ori sp, sp, %lo(__alt_stack_pointer)
   801c0:	dec00014 	ori	sp,sp,0

    /* Set up the global pointer. */
    movhi gp, %hi(_gp)
   801c4:	068002b4 	movhi	gp,10
    ori gp, gp, %lo(_gp)
   801c8:	d68b8614 	ori	gp,gp,11800
 */
#ifndef ALT_SIM_OPTIMIZE
    /* Log that the BSS is about to be cleared. */
    ALT_LOG_PUTS(alt_log_msg_bss)

    movhi r2, %hi(__bss_start)
   801cc:	00800274 	movhi	r2,9
    ori r2, r2, %lo(__bss_start)
   801d0:	10b27b14 	ori	r2,r2,51692

    movhi r3, %hi(__bss_end)
   801d4:	00c002b4 	movhi	r3,10
    ori r3, r3, %lo(__bss_end)
   801d8:	18f08314 	ori	r3,r3,49676

    beq r2, r3, 1f
   801dc:	10c00326 	beq	r2,r3,801ec <_start+0x30>

0:
    stw zero, (r2)
   801e0:	10000015 	stw	zero,0(r2)
    addi r2, r2, 4
   801e4:	10800104 	addi	r2,r2,4
    bltu r2, r3, 0b
   801e8:	10fffd36 	bltu	r2,r3,801e0 <_start+0x24>
     * section aren't defined until alt_load() has been called).
     */
    mov   et, zero
#endif

    call alt_load
   801ec:	008c6240 	call	8c624 <alt_load>

    /* Log that alt_main is about to be called. */
    ALT_LOG_PUTS(alt_log_msg_alt_main)

    /* Call the C entry point. It should never return. */
    call alt_main
   801f0:	008c8640 	call	8c864 <alt_main>

000801f4 <alt_after_alt_main>:

    /* Wait in infinite loop in case alt_main does return. */
alt_after_alt_main:
    br alt_after_alt_main
   801f4:	003fff06 	br	801f4 <alt_after_alt_main>

000801f8 <KEY0_Pressed>:
   801f8:	defffd04 	addi	sp,sp,-12
   801fc:	dfc00215 	stw	ra,8(sp)
   80200:	df000115 	stw	fp,4(sp)
   80204:	df000104 	addi	fp,sp,4
   80208:	e03fff05 	stb	zero,-4(fp)
   8020c:	008002b4 	movhi	r2,10
   80210:	109ab304 	addi	r2,r2,27340
   80214:	11000017 	ldw	r4,0(r2)
   80218:	009327c0 	call	9327c <OSSemPost>
   8021c:	e0bfff05 	stb	r2,-4(fp)
   80220:	e13fff03 	ldbu	r4,-4(fp)
   80224:	00805d00 	call	805d0 <alt_ucosii_check_return_code>
   80228:	00955040 	call	95504 <OSTimeGet>
   8022c:	1007883a 	mov	r3,r2
   80230:	008002b4 	movhi	r2,10
   80234:	109aaf04 	addi	r2,r2,27324
   80238:	10c00015 	stw	r3,0(r2)
   8023c:	008002b4 	movhi	r2,10
   80240:	109b5204 	addi	r2,r2,27976
   80244:	10800017 	ldw	r2,0(r2)
   80248:	10800058 	cmpnei	r2,r2,1
   8024c:	1000071e 	bne	r2,zero,8026c <KEY0_Pressed+0x74>
   80250:	008002b4 	movhi	r2,10
   80254:	10baab04 	addi	r2,r2,-5460
   80258:	10800017 	ldw	r2,0(r2)
   8025c:	10c00044 	addi	r3,r2,1
   80260:	008002b4 	movhi	r2,10
   80264:	10baab04 	addi	r2,r2,-5460
   80268:	10c00015 	stw	r3,0(r2)
   8026c:	008002b4 	movhi	r2,10
   80270:	10baab04 	addi	r2,r2,-5460
   80274:	10800017 	ldw	r2,0(r2)
   80278:	10800090 	cmplti	r2,r2,2
   8027c:	1000041e 	bne	r2,zero,80290 <KEY0_Pressed+0x98>
   80280:	00c002b4 	movhi	r3,10
   80284:	18db3e04 	addi	r3,r3,27896
   80288:	00800044 	movi	r2,1
   8028c:	18800015 	stw	r2,0(r3)
   80290:	e037883a 	mov	sp,fp
   80294:	dfc00117 	ldw	ra,4(sp)
   80298:	df000017 	ldw	fp,0(sp)
   8029c:	dec00204 	addi	sp,sp,8
   802a0:	f800283a 	ret

000802a4 <KEY1_Pressed>:
   802a4:	defffd04 	addi	sp,sp,-12
   802a8:	dfc00215 	stw	ra,8(sp)
   802ac:	df000115 	stw	fp,4(sp)
   802b0:	df000104 	addi	fp,sp,4
   802b4:	e03fff05 	stb	zero,-4(fp)
   802b8:	008002b4 	movhi	r2,10
   802bc:	109ab304 	addi	r2,r2,27340
   802c0:	11000117 	ldw	r4,4(r2)
   802c4:	009327c0 	call	9327c <OSSemPost>
   802c8:	e0bfff05 	stb	r2,-4(fp)
   802cc:	e13fff03 	ldbu	r4,-4(fp)
   802d0:	00805d00 	call	805d0 <alt_ucosii_check_return_code>
   802d4:	00955040 	call	95504 <OSTimeGet>
   802d8:	1007883a 	mov	r3,r2
   802dc:	008002b4 	movhi	r2,10
   802e0:	109aaf04 	addi	r2,r2,27324
   802e4:	10c00115 	stw	r3,4(r2)
   802e8:	008002b4 	movhi	r2,10
   802ec:	109b5204 	addi	r2,r2,27976
   802f0:	10800117 	ldw	r2,4(r2)
   802f4:	10800058 	cmpnei	r2,r2,1
   802f8:	1000071e 	bne	r2,zero,80318 <KEY1_Pressed+0x74>
   802fc:	008002b4 	movhi	r2,10
   80300:	10baab04 	addi	r2,r2,-5460
   80304:	10800117 	ldw	r2,4(r2)
   80308:	10c00044 	addi	r3,r2,1
   8030c:	008002b4 	movhi	r2,10
   80310:	10baab04 	addi	r2,r2,-5460
   80314:	10c00115 	stw	r3,4(r2)
   80318:	008002b4 	movhi	r2,10
   8031c:	10baab04 	addi	r2,r2,-5460
   80320:	10800117 	ldw	r2,4(r2)
   80324:	10800090 	cmplti	r2,r2,2
   80328:	1000041e 	bne	r2,zero,8033c <KEY1_Pressed+0x98>
   8032c:	00c002b4 	movhi	r3,10
   80330:	18db3e04 	addi	r3,r3,27896
   80334:	00800044 	movi	r2,1
   80338:	18800115 	stw	r2,4(r3)
   8033c:	e037883a 	mov	sp,fp
   80340:	dfc00117 	ldw	ra,4(sp)
   80344:	df000017 	ldw	fp,0(sp)
   80348:	dec00204 	addi	sp,sp,8
   8034c:	f800283a 	ret

00080350 <KEY2_Pressed>:
   80350:	defffd04 	addi	sp,sp,-12
   80354:	dfc00215 	stw	ra,8(sp)
   80358:	df000115 	stw	fp,4(sp)
   8035c:	df000104 	addi	fp,sp,4
   80360:	e03fff05 	stb	zero,-4(fp)
   80364:	008002b4 	movhi	r2,10
   80368:	109ab304 	addi	r2,r2,27340
   8036c:	11000217 	ldw	r4,8(r2)
   80370:	009327c0 	call	9327c <OSSemPost>
   80374:	e0bfff05 	stb	r2,-4(fp)
   80378:	e13fff03 	ldbu	r4,-4(fp)
   8037c:	00805d00 	call	805d0 <alt_ucosii_check_return_code>
   80380:	008002b4 	movhi	r2,10
   80384:	109b5204 	addi	r2,r2,27976
   80388:	10800217 	ldw	r2,8(r2)
   8038c:	10800058 	cmpnei	r2,r2,1
   80390:	1000071e 	bne	r2,zero,803b0 <KEY2_Pressed+0x60>
   80394:	008002b4 	movhi	r2,10
   80398:	10baab04 	addi	r2,r2,-5460
   8039c:	10800217 	ldw	r2,8(r2)
   803a0:	10c00044 	addi	r3,r2,1
   803a4:	008002b4 	movhi	r2,10
   803a8:	10baab04 	addi	r2,r2,-5460
   803ac:	10c00215 	stw	r3,8(r2)
   803b0:	008002b4 	movhi	r2,10
   803b4:	10baab04 	addi	r2,r2,-5460
   803b8:	10800217 	ldw	r2,8(r2)
   803bc:	10800090 	cmplti	r2,r2,2
   803c0:	1000041e 	bne	r2,zero,803d4 <KEY2_Pressed+0x84>
   803c4:	00c002b4 	movhi	r3,10
   803c8:	18db3e04 	addi	r3,r3,27896
   803cc:	00800044 	movi	r2,1
   803d0:	18800215 	stw	r2,8(r3)
   803d4:	00955040 	call	95504 <OSTimeGet>
   803d8:	1007883a 	mov	r3,r2
   803dc:	008002b4 	movhi	r2,10
   803e0:	109aaf04 	addi	r2,r2,27324
   803e4:	10c00215 	stw	r3,8(r2)
   803e8:	e037883a 	mov	sp,fp
   803ec:	dfc00117 	ldw	ra,4(sp)
   803f0:	df000017 	ldw	fp,0(sp)
   803f4:	dec00204 	addi	sp,sp,8
   803f8:	f800283a 	ret

000803fc <KEY3_Pressed>:
   803fc:	defffd04 	addi	sp,sp,-12
   80400:	dfc00215 	stw	ra,8(sp)
   80404:	df000115 	stw	fp,4(sp)
   80408:	df000104 	addi	fp,sp,4
   8040c:	e03fff05 	stb	zero,-4(fp)
   80410:	008002b4 	movhi	r2,10
   80414:	109ab304 	addi	r2,r2,27340
   80418:	11000317 	ldw	r4,12(r2)
   8041c:	009327c0 	call	9327c <OSSemPost>
   80420:	e0bfff05 	stb	r2,-4(fp)
   80424:	e13fff03 	ldbu	r4,-4(fp)
   80428:	00805d00 	call	805d0 <alt_ucosii_check_return_code>
   8042c:	008002b4 	movhi	r2,10
   80430:	109b5204 	addi	r2,r2,27976
   80434:	10800317 	ldw	r2,12(r2)
   80438:	10800058 	cmpnei	r2,r2,1
   8043c:	1000071e 	bne	r2,zero,8045c <KEY3_Pressed+0x60>
   80440:	008002b4 	movhi	r2,10
   80444:	10baab04 	addi	r2,r2,-5460
   80448:	10800317 	ldw	r2,12(r2)
   8044c:	10c00044 	addi	r3,r2,1
   80450:	008002b4 	movhi	r2,10
   80454:	10baab04 	addi	r2,r2,-5460
   80458:	10c00315 	stw	r3,12(r2)
   8045c:	008002b4 	movhi	r2,10
   80460:	10baab04 	addi	r2,r2,-5460
   80464:	10800317 	ldw	r2,12(r2)
   80468:	10800090 	cmplti	r2,r2,2
   8046c:	1000041e 	bne	r2,zero,80480 <KEY3_Pressed+0x84>
   80470:	00c002b4 	movhi	r3,10
   80474:	18db3e04 	addi	r3,r3,27896
   80478:	00800044 	movi	r2,1
   8047c:	18800315 	stw	r2,12(r3)
   80480:	00955040 	call	95504 <OSTimeGet>
   80484:	1007883a 	mov	r3,r2
   80488:	008002b4 	movhi	r2,10
   8048c:	109aaf04 	addi	r2,r2,27324
   80490:	10c00315 	stw	r3,12(r2)
   80494:	e037883a 	mov	sp,fp
   80498:	dfc00117 	ldw	ra,4(sp)
   8049c:	df000017 	ldw	fp,0(sp)
   804a0:	dec00204 	addi	sp,sp,8
   804a4:	f800283a 	ret

000804a8 <handle_button_interrupts>:
   804a8:	defffd04 	addi	sp,sp,-12
   804ac:	dfc00215 	stw	ra,8(sp)
   804b0:	df000115 	stw	fp,4(sp)
   804b4:	df000104 	addi	fp,sp,4
   804b8:	008dc5c0 	call	8dc5c <OSIntEnter>
   804bc:	00800434 	movhi	r2,16
   804c0:	10841f04 	addi	r2,r2,4220
   804c4:	11000037 	ldwio	r4,0(r2)
   804c8:	00800434 	movhi	r2,16
   804cc:	10841f04 	addi	r2,r2,4220
   804d0:	11400037 	ldwio	r5,0(r2)
   804d4:	008257c0 	call	8257c <__mulsi3>
   804d8:	1007883a 	mov	r3,r2
   804dc:	00800434 	movhi	r2,16
   804e0:	10842404 	addi	r2,r2,4240
   804e4:	10c00035 	stwio	r3,0(r2)
   804e8:	00800434 	movhi	r2,16
   804ec:	10841f04 	addi	r2,r2,4220
   804f0:	10800037 	ldwio	r2,0(r2)
   804f4:	e0bfff15 	stw	r2,-4(fp)
   804f8:	e0ffff17 	ldw	r3,-4(fp)
   804fc:	188000a0 	cmpeqi	r2,r3,2
   80500:	1000101e 	bne	r2,zero,80544 <handle_button_interrupts+0x9c>
   80504:	e0ffff17 	ldw	r3,-4(fp)
   80508:	188000c8 	cmpgei	r2,r3,3
   8050c:	1000041e 	bne	r2,zero,80520 <handle_button_interrupts+0x78>
   80510:	e0ffff17 	ldw	r3,-4(fp)
   80514:	18800060 	cmpeqi	r2,r3,1
   80518:	1000081e 	bne	r2,zero,8053c <handle_button_interrupts+0x94>
   8051c:	00000e06 	br	80558 <handle_button_interrupts+0xb0>
   80520:	e0ffff17 	ldw	r3,-4(fp)
   80524:	18800120 	cmpeqi	r2,r3,4
   80528:	1000081e 	bne	r2,zero,8054c <handle_button_interrupts+0xa4>
   8052c:	e0ffff17 	ldw	r3,-4(fp)
   80530:	18800220 	cmpeqi	r2,r3,8
   80534:	1000071e 	bne	r2,zero,80554 <handle_button_interrupts+0xac>
   80538:	00000706 	br	80558 <handle_button_interrupts+0xb0>
   8053c:	00801f80 	call	801f8 <KEY0_Pressed>
   80540:	00000506 	br	80558 <handle_button_interrupts+0xb0>
   80544:	00802a40 	call	802a4 <KEY1_Pressed>
   80548:	00000306 	br	80558 <handle_button_interrupts+0xb0>
   8054c:	00803500 	call	80350 <KEY2_Pressed>
   80550:	00000106 	br	80558 <handle_button_interrupts+0xb0>
   80554:	00803fc0 	call	803fc <KEY3_Pressed>
   80558:	00800434 	movhi	r2,16
   8055c:	10841f04 	addi	r2,r2,4220
   80560:	10000035 	stwio	zero,0(r2)
   80564:	008dcd80 	call	8dcd8 <OSIntExit>
   80568:	e037883a 	mov	sp,fp
   8056c:	dfc00117 	ldw	ra,4(sp)
   80570:	df000017 	ldw	fp,0(sp)
   80574:	dec00204 	addi	sp,sp,8
   80578:	f800283a 	ret

0008057c <init_button_irq>:
   8057c:	defffe04 	addi	sp,sp,-8
   80580:	dfc00115 	stw	ra,4(sp)
   80584:	df000015 	stw	fp,0(sp)
   80588:	d839883a 	mov	fp,sp
   8058c:	00800434 	movhi	r2,16
   80590:	10841e04 	addi	r2,r2,4216
   80594:	00c003c4 	movi	r3,15
   80598:	10c00035 	stwio	r3,0(r2)
   8059c:	00800434 	movhi	r2,16
   805a0:	10841f04 	addi	r2,r2,4220
   805a4:	10000035 	stwio	zero,0(r2)
   805a8:	01000084 	movi	r4,2
   805ac:	000b883a 	mov	r5,zero
   805b0:	01800234 	movhi	r6,8
   805b4:	31812a04 	addi	r6,r6,1192
   805b8:	008c3400 	call	8c340 <alt_irq_register>
   805bc:	e037883a 	mov	sp,fp
   805c0:	dfc00117 	ldw	ra,4(sp)
   805c4:	df000017 	ldw	fp,0(sp)
   805c8:	dec00204 	addi	sp,sp,8
   805cc:	f800283a 	ret

000805d0 <alt_ucosii_check_return_code>:
 */
 

 
void alt_ucosii_check_return_code(INT8U return_code)
{
   805d0:	defffd04 	addi	sp,sp,-12
   805d4:	dfc00215 	stw	ra,8(sp)
   805d8:	df000115 	stw	fp,4(sp)
   805dc:	df000104 	addi	fp,sp,4
   805e0:	e13fff05 	stb	r4,-4(fp)
  if(return_code != OS_NO_ERR)
   805e4:	e0bfff03 	ldbu	r2,-4(fp)
   805e8:	1005003a 	cmpeq	r2,r2,zero
   805ec:	1000041e 	bne	r2,zero,80600 <alt_ucosii_check_return_code+0x30>
  {
    OSSchedLock();  /* Disable Task Switching but still service other IRQs */
   805f0:	008ddd80 	call	8ddd8 <OSSchedLock>
    alt_ucosii_simple_error_handler(return_code);
   805f4:	e13fff03 	ldbu	r4,-4(fp)
   805f8:	00806140 	call	80614 <alt_ucosii_simple_error_handler>
    OSSchedUnlock(); /* Enable Task Switching */
   805fc:	008de640 	call	8de64 <OSSchedUnlock>
  }
}
   80600:	e037883a 	mov	sp,fp
   80604:	dfc00117 	ldw	ra,4(sp)
   80608:	df000017 	ldw	fp,0(sp)
   8060c:	dec00204 	addi	sp,sp,8
   80610:	f800283a 	ret

00080614 <alt_ucosii_simple_error_handler>:
 * controls the flow that is taken from different errors occurring at different 
 * locations in the application code.
 */

void alt_ucosii_simple_error_handler(INT8U return_code)
{
   80614:	defffc04 	addi	sp,sp,-16
   80618:	dfc00315 	stw	ra,12(sp)
   8061c:	df000215 	stw	fp,8(sp)
   80620:	df000204 	addi	fp,sp,8
   80624:	e13ffe05 	stb	r4,-8(fp)
  printf("[Program Error]: See STDERR\n");
   80628:	010002b4 	movhi	r4,10
   8062c:	21217504 	addi	r4,r4,-31276
   80630:	00828180 	call	82818 <puts>
  switch (return_code) {
   80634:	e0bffe03 	ldbu	r2,-8(fp)
   80638:	e0bfff15 	stw	r2,-4(fp)
   8063c:	e0ffff17 	ldw	r3,-4(fp)
   80640:	18801968 	cmpgeui	r2,r3,101
   80644:	10011e1e 	bne	r2,zero,80ac0 <alt_ucosii_simple_error_handler+0x4ac>
   80648:	e13fff17 	ldw	r4,-4(fp)
   8064c:	e13fff17 	ldw	r4,-4(fp)
   80650:	2105883a 	add	r2,r4,r4
   80654:	1087883a 	add	r3,r2,r2
   80658:	00800234 	movhi	r2,8
   8065c:	10819b04 	addi	r2,r2,1644
   80660:	1885883a 	add	r2,r3,r2
   80664:	10800017 	ldw	r2,0(r2)
   80668:	1000683a 	jmp	r2
   8066c:	00080ac0 	call	80ac <OSCtxSw_SWITCH_PC+0x806c>
   80670:	000808e0 	cmpeqi	zero,zero,8227
   80674:	00080980 	call	8098 <OSCtxSw_SWITCH_PC+0x8058>
   80678:	00080930 	cmpltui	zero,zero,8228
   8067c:	00080908 	cmpgei	zero,zero,8228
   80680:	00080ac0 	call	80ac <OSCtxSw_SWITCH_PC+0x806c>
   80684:	00080ac0 	call	80ac <OSCtxSw_SWITCH_PC+0x806c>
   80688:	00080ac0 	call	80ac <OSCtxSw_SWITCH_PC+0x806c>
   8068c:	00080ac0 	call	80ac <OSCtxSw_SWITCH_PC+0x806c>
   80690:	00080ac0 	call	80ac <OSCtxSw_SWITCH_PC+0x806c>
   80694:	00080958 	cmpnei	zero,zero,8229
   80698:	00080ac0 	call	80ac <OSCtxSw_SWITCH_PC+0x806c>
   8069c:	00080ac0 	call	80ac <OSCtxSw_SWITCH_PC+0x806c>
   806a0:	00080ac0 	call	80ac <OSCtxSw_SWITCH_PC+0x806c>
   806a4:	00080ac0 	call	80ac <OSCtxSw_SWITCH_PC+0x806c>
   806a8:	00080ac0 	call	80ac <OSCtxSw_SWITCH_PC+0x806c>
   806ac:	00080ac0 	call	80ac <OSCtxSw_SWITCH_PC+0x806c>
   806b0:	00080ac0 	call	80ac <OSCtxSw_SWITCH_PC+0x806c>
   806b4:	00080ac0 	call	80ac <OSCtxSw_SWITCH_PC+0x806c>
   806b8:	00080ac0 	call	80ac <OSCtxSw_SWITCH_PC+0x806c>
   806bc:	000808b8 	rdprs	zero,zero,8226
   806c0:	00080ac0 	call	80ac <OSCtxSw_SWITCH_PC+0x806c>
   806c4:	00080ac0 	call	80ac <OSCtxSw_SWITCH_PC+0x806c>
   806c8:	00080ac0 	call	80ac <OSCtxSw_SWITCH_PC+0x806c>
   806cc:	00080ac0 	call	80ac <OSCtxSw_SWITCH_PC+0x806c>
   806d0:	00080ac0 	call	80ac <OSCtxSw_SWITCH_PC+0x806c>
   806d4:	00080ac0 	call	80ac <OSCtxSw_SWITCH_PC+0x806c>
   806d8:	00080ac0 	call	80ac <OSCtxSw_SWITCH_PC+0x806c>
   806dc:	00080ac0 	call	80ac <OSCtxSw_SWITCH_PC+0x806c>
   806e0:	00080ac0 	call	80ac <OSCtxSw_SWITCH_PC+0x806c>
   806e4:	00080a20 	cmpeqi	zero,zero,8232
   806e8:	00080ac0 	call	80ac <OSCtxSw_SWITCH_PC+0x806c>
   806ec:	00080ac0 	call	80ac <OSCtxSw_SWITCH_PC+0x806c>
   806f0:	00080ac0 	call	80ac <OSCtxSw_SWITCH_PC+0x806c>
   806f4:	00080ac0 	call	80ac <OSCtxSw_SWITCH_PC+0x806c>
   806f8:	00080ac0 	call	80ac <OSCtxSw_SWITCH_PC+0x806c>
   806fc:	00080ac0 	call	80ac <OSCtxSw_SWITCH_PC+0x806c>
   80700:	00080ac0 	call	80ac <OSCtxSw_SWITCH_PC+0x806c>
   80704:	00080ac0 	call	80ac <OSCtxSw_SWITCH_PC+0x806c>
   80708:	00080ac0 	call	80ac <OSCtxSw_SWITCH_PC+0x806c>
   8070c:	00080800 	call	8080 <OSCtxSw_SWITCH_PC+0x8040>
   80710:	00080ac0 	call	80ac <OSCtxSw_SWITCH_PC+0x806c>
   80714:	00080828 	cmpgeui	zero,zero,8224
   80718:	00080ac0 	call	80ac <OSCtxSw_SWITCH_PC+0x806c>
   8071c:	00080ac0 	call	80ac <OSCtxSw_SWITCH_PC+0x806c>
   80720:	00080ac0 	call	80ac <OSCtxSw_SWITCH_PC+0x806c>
   80724:	00080ac0 	call	80ac <OSCtxSw_SWITCH_PC+0x806c>
   80728:	00080ac0 	call	80ac <OSCtxSw_SWITCH_PC+0x806c>
   8072c:	00080ac0 	call	80ac <OSCtxSw_SWITCH_PC+0x806c>
   80730:	00080ac0 	call	80ac <OSCtxSw_SWITCH_PC+0x806c>
   80734:	00080ac0 	call	80ac <OSCtxSw_SWITCH_PC+0x806c>
   80738:	00080ac0 	call	80ac <OSCtxSw_SWITCH_PC+0x806c>
   8073c:	00080ac0 	call	80ac <OSCtxSw_SWITCH_PC+0x806c>
   80740:	00080ac0 	call	80ac <OSCtxSw_SWITCH_PC+0x806c>
   80744:	00080ac0 	call	80ac <OSCtxSw_SWITCH_PC+0x806c>
   80748:	00080ac0 	call	80ac <OSCtxSw_SWITCH_PC+0x806c>
   8074c:	00080ac0 	call	80ac <OSCtxSw_SWITCH_PC+0x806c>
   80750:	00080ac0 	call	80ac <OSCtxSw_SWITCH_PC+0x806c>
   80754:	00080ac0 	call	80ac <OSCtxSw_SWITCH_PC+0x806c>
   80758:	00080ac0 	call	80ac <OSCtxSw_SWITCH_PC+0x806c>
   8075c:	00080ac0 	call	80ac <OSCtxSw_SWITCH_PC+0x806c>
   80760:	000809d0 	cmplti	zero,zero,8231
   80764:	000809a8 	cmpgeui	zero,zero,8230
   80768:	00080ac0 	call	80ac <OSCtxSw_SWITCH_PC+0x806c>
   8076c:	000809f8 	rdprs	zero,zero,8231
   80770:	00080ac0 	call	80ac <OSCtxSw_SWITCH_PC+0x806c>
   80774:	00080870 	cmpltui	zero,zero,8225
   80778:	00080ac0 	call	80ac <OSCtxSw_SWITCH_PC+0x806c>
   8077c:	00080ac0 	call	80ac <OSCtxSw_SWITCH_PC+0x806c>
   80780:	00080ac0 	call	80ac <OSCtxSw_SWITCH_PC+0x806c>
   80784:	00080ac0 	call	80ac <OSCtxSw_SWITCH_PC+0x806c>
   80788:	00080ac0 	call	80ac <OSCtxSw_SWITCH_PC+0x806c>
   8078c:	00080ac0 	call	80ac <OSCtxSw_SWITCH_PC+0x806c>
   80790:	00080ac0 	call	80ac <OSCtxSw_SWITCH_PC+0x806c>
   80794:	00080ac0 	call	80ac <OSCtxSw_SWITCH_PC+0x806c>
   80798:	00080ac0 	call	80ac <OSCtxSw_SWITCH_PC+0x806c>
   8079c:	00080ac0 	call	80ac <OSCtxSw_SWITCH_PC+0x806c>
   807a0:	00080ac0 	call	80ac <OSCtxSw_SWITCH_PC+0x806c>
   807a4:	00080ac0 	call	80ac <OSCtxSw_SWITCH_PC+0x806c>
   807a8:	00080ac0 	call	80ac <OSCtxSw_SWITCH_PC+0x806c>
   807ac:	00080ac0 	call	80ac <OSCtxSw_SWITCH_PC+0x806c>
   807b0:	00080ac0 	call	80ac <OSCtxSw_SWITCH_PC+0x806c>
   807b4:	00080ac0 	call	80ac <OSCtxSw_SWITCH_PC+0x806c>
   807b8:	00080ac0 	call	80ac <OSCtxSw_SWITCH_PC+0x806c>
   807bc:	00080ac0 	call	80ac <OSCtxSw_SWITCH_PC+0x806c>
   807c0:	00080ac0 	call	80ac <OSCtxSw_SWITCH_PC+0x806c>
   807c4:	00080ac0 	call	80ac <OSCtxSw_SWITCH_PC+0x806c>
   807c8:	00080ac0 	call	80ac <OSCtxSw_SWITCH_PC+0x806c>
   807cc:	00080ac0 	call	80ac <OSCtxSw_SWITCH_PC+0x806c>
   807d0:	00080ac0 	call	80ac <OSCtxSw_SWITCH_PC+0x806c>
   807d4:	00080ac0 	call	80ac <OSCtxSw_SWITCH_PC+0x806c>
   807d8:	00080ac0 	call	80ac <OSCtxSw_SWITCH_PC+0x806c>
   807dc:	00080ac0 	call	80ac <OSCtxSw_SWITCH_PC+0x806c>
   807e0:	00080a70 	cmpltui	zero,zero,8233
   807e4:	00080ac0 	call	80ac <OSCtxSw_SWITCH_PC+0x806c>
   807e8:	00080ac0 	call	80ac <OSCtxSw_SWITCH_PC+0x806c>
   807ec:	00080a98 	cmpnei	zero,zero,8234
   807f0:	00080ac0 	call	80ac <OSCtxSw_SWITCH_PC+0x806c>
   807f4:	00080ac0 	call	80ac <OSCtxSw_SWITCH_PC+0x806c>
   807f8:	00080ac0 	call	80ac <OSCtxSw_SWITCH_PC+0x806c>
   807fc:	00080a48 	cmpgei	zero,zero,8233
    case OS_PRIO_EXIST:
      fprintf(stderr, "Attempted to assign a task priority that is aready in use.\n");
   80800:	008002b4 	movhi	r2,10
   80804:	10ab8704 	addi	r2,r2,-20964
   80808:	10800017 	ldw	r2,0(r2)
   8080c:	11c00317 	ldw	r7,12(r2)
   80810:	010002b4 	movhi	r4,10
   80814:	21217c04 	addi	r4,r4,-31248
   80818:	01400044 	movi	r5,1
   8081c:	01800ec4 	movi	r6,59
   80820:	00826c00 	call	826c0 <fwrite>
      break;
   80824:	0000af06 	br	80ae4 <alt_ucosii_simple_error_handler+0x4d0>
    case OS_PRIO_INVALID:
      fprintf(stderr, "Specified a task priority higher than the allowed maximum.\n");
   80828:	008002b4 	movhi	r2,10
   8082c:	10ab8704 	addi	r2,r2,-20964
   80830:	10800017 	ldw	r2,0(r2)
   80834:	11c00317 	ldw	r7,12(r2)
   80838:	010002b4 	movhi	r4,10
   8083c:	21218b04 	addi	r4,r4,-31188
   80840:	01400044 	movi	r5,1
   80844:	01800ec4 	movi	r6,59
   80848:	00826c00 	call	826c0 <fwrite>
      fprintf(stderr, "Task can not be assigned a priority higher than %d\n",OS_LOWEST_PRIO);
   8084c:	008002b4 	movhi	r2,10
   80850:	10ab8704 	addi	r2,r2,-20964
   80854:	10800017 	ldw	r2,0(r2)
   80858:	11000317 	ldw	r4,12(r2)
   8085c:	014002b4 	movhi	r5,10
   80860:	29619a04 	addi	r5,r5,-31128
   80864:	01800504 	movi	r6,20
   80868:	00825b40 	call	825b4 <fprintf>
      break;
   8086c:	00009d06 	br	80ae4 <alt_ucosii_simple_error_handler+0x4d0>
    case OS_NO_MORE_TCB:
      fprintf(stderr, "Task Control Blocks have been exhausted\n");
   80870:	008002b4 	movhi	r2,10
   80874:	10ab8704 	addi	r2,r2,-20964
   80878:	10800017 	ldw	r2,0(r2)
   8087c:	11c00317 	ldw	r7,12(r2)
   80880:	010002b4 	movhi	r4,10
   80884:	2121a704 	addi	r4,r4,-31076
   80888:	01400044 	movi	r5,1
   8088c:	01800a04 	movi	r6,40
   80890:	00826c00 	call	826c0 <fwrite>
      fprintf(stderr, "The current max number of task is %d\n",OS_MAX_TASKS);
   80894:	008002b4 	movhi	r2,10
   80898:	10ab8704 	addi	r2,r2,-20964
   8089c:	10800017 	ldw	r2,0(r2)
   808a0:	11000317 	ldw	r4,12(r2)
   808a4:	014002b4 	movhi	r5,10
   808a8:	2961b204 	addi	r5,r5,-31032
   808ac:	01800284 	movi	r6,10
   808b0:	00825b40 	call	825b4 <fprintf>
      break;
   808b4:	00008b06 	br	80ae4 <alt_ucosii_simple_error_handler+0x4d0>
    case OS_MBOX_FULL:
      fprintf(stderr, "Attempted a Post to a Mailbox that already contains a message\n");
   808b8:	008002b4 	movhi	r2,10
   808bc:	10ab8704 	addi	r2,r2,-20964
   808c0:	10800017 	ldw	r2,0(r2)
   808c4:	11c00317 	ldw	r7,12(r2)
   808c8:	010002b4 	movhi	r4,10
   808cc:	2121bc04 	addi	r4,r4,-30992
   808d0:	01400044 	movi	r5,1
   808d4:	01800f84 	movi	r6,62
   808d8:	00826c00 	call	826c0 <fwrite>
      break;
   808dc:	00008106 	br	80ae4 <alt_ucosii_simple_error_handler+0x4d0>
    case OS_ERR_EVENT_TYPE:
      fprintf(stderr, "Attempted to access a resource that doesn't match the required data type\n");
   808e0:	008002b4 	movhi	r2,10
   808e4:	10ab8704 	addi	r2,r2,-20964
   808e8:	10800017 	ldw	r2,0(r2)
   808ec:	11c00317 	ldw	r7,12(r2)
   808f0:	010002b4 	movhi	r4,10
   808f4:	2121cc04 	addi	r4,r4,-30928
   808f8:	01400044 	movi	r5,1
   808fc:	01801244 	movi	r6,73
   80900:	00826c00 	call	826c0 <fwrite>
      break;
   80904:	00007706 	br	80ae4 <alt_ucosii_simple_error_handler+0x4d0>
    case OS_ERR_PEVENT_NULL:
      fprintf(stderr, "Attempting access a resource that is pointing to NULL\n");
   80908:	008002b4 	movhi	r2,10
   8090c:	10ab8704 	addi	r2,r2,-20964
   80910:	10800017 	ldw	r2,0(r2)
   80914:	11c00317 	ldw	r7,12(r2)
   80918:	010002b4 	movhi	r4,10
   8091c:	2121df04 	addi	r4,r4,-30852
   80920:	01400044 	movi	r5,1
   80924:	01800d84 	movi	r6,54
   80928:	00826c00 	call	826c0 <fwrite>
      break;
   8092c:	00006d06 	br	80ae4 <alt_ucosii_simple_error_handler+0x4d0>
    case OS_ERR_POST_NULL_PTR:
      fprintf(stderr, "Attempted to Post a NULL to a resource. \n");
   80930:	008002b4 	movhi	r2,10
   80934:	10ab8704 	addi	r2,r2,-20964
   80938:	10800017 	ldw	r2,0(r2)
   8093c:	11c00317 	ldw	r7,12(r2)
   80940:	010002b4 	movhi	r4,10
   80944:	2121ed04 	addi	r4,r4,-30796
   80948:	01400044 	movi	r5,1
   8094c:	01800a44 	movi	r6,41
   80950:	00826c00 	call	826c0 <fwrite>
      break;
   80954:	00006306 	br	80ae4 <alt_ucosii_simple_error_handler+0x4d0>
    case OS_TIMEOUT:
      fprintf(stderr, "Resource not received in specified time\n");
   80958:	008002b4 	movhi	r2,10
   8095c:	10ab8704 	addi	r2,r2,-20964
   80960:	10800017 	ldw	r2,0(r2)
   80964:	11c00317 	ldw	r7,12(r2)
   80968:	010002b4 	movhi	r4,10
   8096c:	2121f804 	addi	r4,r4,-30752
   80970:	01400044 	movi	r5,1
   80974:	01800a04 	movi	r6,40
   80978:	00826c00 	call	826c0 <fwrite>
      break;
   8097c:	00005906 	br	80ae4 <alt_ucosii_simple_error_handler+0x4d0>
    case OS_ERR_PEND_ISR:
      fprintf(stderr, "Attempting to pending for a resource in an ISR\n");
   80980:	008002b4 	movhi	r2,10
   80984:	10ab8704 	addi	r2,r2,-20964
   80988:	10800017 	ldw	r2,0(r2)
   8098c:	11c00317 	ldw	r7,12(r2)
   80990:	010002b4 	movhi	r4,10
   80994:	21220304 	addi	r4,r4,-30708
   80998:	01400044 	movi	r5,1
   8099c:	01800bc4 	movi	r6,47
   809a0:	00826c00 	call	826c0 <fwrite>
      break;
   809a4:	00004f06 	br	80ae4 <alt_ucosii_simple_error_handler+0x4d0>
    case OS_TASK_DEL_IDLE:
      fprintf(stderr, "Attempted to delete the IDLE task\n");
   809a8:	008002b4 	movhi	r2,10
   809ac:	10ab8704 	addi	r2,r2,-20964
   809b0:	10800017 	ldw	r2,0(r2)
   809b4:	11c00317 	ldw	r7,12(r2)
   809b8:	010002b4 	movhi	r4,10
   809bc:	21220f04 	addi	r4,r4,-30660
   809c0:	01400044 	movi	r5,1
   809c4:	01800884 	movi	r6,34
   809c8:	00826c00 	call	826c0 <fwrite>
      break;
   809cc:	00004506 	br	80ae4 <alt_ucosii_simple_error_handler+0x4d0>
    case OS_TASK_DEL_ERR:
      fprintf(stderr, "Attempted to delete a task that does not exist\n");
   809d0:	008002b4 	movhi	r2,10
   809d4:	10ab8704 	addi	r2,r2,-20964
   809d8:	10800017 	ldw	r2,0(r2)
   809dc:	11c00317 	ldw	r7,12(r2)
   809e0:	010002b4 	movhi	r4,10
   809e4:	21221804 	addi	r4,r4,-30624
   809e8:	01400044 	movi	r5,1
   809ec:	01800bc4 	movi	r6,47
   809f0:	00826c00 	call	826c0 <fwrite>
      break;
   809f4:	00003b06 	br	80ae4 <alt_ucosii_simple_error_handler+0x4d0>
    case OS_TASK_DEL_ISR:
      fprintf(stderr, "Attempted to delete a task from an ISR\n");
   809f8:	008002b4 	movhi	r2,10
   809fc:	10ab8704 	addi	r2,r2,-20964
   80a00:	10800017 	ldw	r2,0(r2)
   80a04:	11c00317 	ldw	r7,12(r2)
   80a08:	010002b4 	movhi	r4,10
   80a0c:	21222404 	addi	r4,r4,-30576
   80a10:	01400044 	movi	r5,1
   80a14:	018009c4 	movi	r6,39
   80a18:	00826c00 	call	826c0 <fwrite>
      break;
   80a1c:	00003106 	br	80ae4 <alt_ucosii_simple_error_handler+0x4d0>
    case OS_Q_FULL:
      fprintf(stderr, "Attempted to post to a full message queue\n");
   80a20:	008002b4 	movhi	r2,10
   80a24:	10ab8704 	addi	r2,r2,-20964
   80a28:	10800017 	ldw	r2,0(r2)
   80a2c:	11c00317 	ldw	r7,12(r2)
   80a30:	010002b4 	movhi	r4,10
   80a34:	21222e04 	addi	r4,r4,-30536
   80a38:	01400044 	movi	r5,1
   80a3c:	01800a84 	movi	r6,42
   80a40:	00826c00 	call	826c0 <fwrite>
      break;
   80a44:	00002706 	br	80ae4 <alt_ucosii_simple_error_handler+0x4d0>
    case OS_ERR_NOT_MUTEX_OWNER:
      fprintf(stderr, "Attempted to post a mutex that is not owned by the task\n");
   80a48:	008002b4 	movhi	r2,10
   80a4c:	10ab8704 	addi	r2,r2,-20964
   80a50:	10800017 	ldw	r2,0(r2)
   80a54:	11c00317 	ldw	r7,12(r2)
   80a58:	010002b4 	movhi	r4,10
   80a5c:	21223904 	addi	r4,r4,-30492
   80a60:	01400044 	movi	r5,1
   80a64:	01800e04 	movi	r6,56
   80a68:	00826c00 	call	826c0 <fwrite>
      break;
   80a6c:	00001d06 	br	80ae4 <alt_ucosii_simple_error_handler+0x4d0>
    case OS_MEM_NO_FREE_BLKS:
      fprintf(stderr, "the memory partition doesnt contain any more memory blocks to allocate\n");
   80a70:	008002b4 	movhi	r2,10
   80a74:	10ab8704 	addi	r2,r2,-20964
   80a78:	10800017 	ldw	r2,0(r2)
   80a7c:	11c00317 	ldw	r7,12(r2)
   80a80:	010002b4 	movhi	r4,10
   80a84:	21224804 	addi	r4,r4,-30432
   80a88:	01400044 	movi	r5,1
   80a8c:	018011c4 	movi	r6,71
   80a90:	00826c00 	call	826c0 <fwrite>
      break;
   80a94:	00001306 	br	80ae4 <alt_ucosii_simple_error_handler+0x4d0>
    case OS_MEM_INVALID_PMEM:
      fprintf(stderr, "pmem is a NULL pointer\n");
   80a98:	008002b4 	movhi	r2,10
   80a9c:	10ab8704 	addi	r2,r2,-20964
   80aa0:	10800017 	ldw	r2,0(r2)
   80aa4:	11c00317 	ldw	r7,12(r2)
   80aa8:	010002b4 	movhi	r4,10
   80aac:	21225a04 	addi	r4,r4,-30360
   80ab0:	01400044 	movi	r5,1
   80ab4:	018005c4 	movi	r6,23
   80ab8:	00826c00 	call	826c0 <fwrite>
      break;
   80abc:	00000906 	br	80ae4 <alt_ucosii_simple_error_handler+0x4d0>
    default:
      fprintf(stderr, "Unknown Error\n");
   80ac0:	008002b4 	movhi	r2,10
   80ac4:	10ab8704 	addi	r2,r2,-20964
   80ac8:	10800017 	ldw	r2,0(r2)
   80acc:	11c00317 	ldw	r7,12(r2)
   80ad0:	010002b4 	movhi	r4,10
   80ad4:	21226004 	addi	r4,r4,-30336
   80ad8:	01400044 	movi	r5,1
   80adc:	01800384 	movi	r6,14
   80ae0:	00826c00 	call	826c0 <fwrite>
      break;
  }
//  fprintf(stderr, "Program is terminating.\n");
//  exit(0);
}
   80ae4:	e037883a 	mov	sp,fp
   80ae8:	dfc00117 	ldw	ra,4(sp)
   80aec:	df000017 	ldw	fp,0(sp)
   80af0:	dec00204 	addi	sp,sp,8
   80af4:	f800283a 	ret

00080af8 <initialize_task>:
// Local function prototypes
int init_OS_data_structs(void);
int init_create_tasks(void);

// Initialization task for uCOS
void initialize_task(void* pdata) {
   80af8:	defffc04 	addi	sp,sp,-16
   80afc:	dfc00315 	stw	ra,12(sp)
   80b00:	df000215 	stw	fp,8(sp)
   80b04:	df000204 	addi	fp,sp,8
   80b08:	e13fff15 	stw	r4,-4(fp)
	INT8U return_code = OS_NO_ERR;
   80b0c:	e03ffe05 	stb	zero,-8(fp)

	// Initialize statistic counters in OS
	OSStatInit();
   80b10:	008dfb80 	call	8dfb8 <OSStatInit>

	// create os data structures
	init_OS_data_structs();
   80b14:	0080d740 	call	80d74 <init_OS_data_structs>

	// create the tasks
	init_create_tasks();
   80b18:	0080df80 	call	80df8 <init_create_tasks>

	// This task is deleted because there is no need for it to run again
	return_code = OSTaskDel(OS_PRIO_SELF);
   80b1c:	01003fc4 	movi	r4,255
   80b20:	0093f200 	call	93f20 <OSTaskDel>
   80b24:	e0bffe05 	stb	r2,-8(fp)
	alt_ucosii_check_return_code(return_code);
   80b28:	e13ffe03 	ldbu	r4,-8(fp)
   80b2c:	00805d00 	call	805d0 <alt_ucosii_check_return_code>

	while (1);
   80b30:	003fff06 	br	80b30 <initialize_task+0x38>

00080b34 <main>:
}

// The main function, it initializes the hardware, and create the initialization task,
// then it starts uCOS, and never returns
int main(void) {
   80b34:	defff604 	addi	sp,sp,-40
   80b38:	dfc00915 	stw	ra,36(sp)
   80b3c:	df000815 	stw	fp,32(sp)
   80b40:	df000804 	addi	fp,sp,32
  	INT8U return_code = OS_NO_ERR;
   80b44:	e03fff05 	stb	zero,-4(fp)
    alt_up_character_lcd_dev *lcd_0;

    printf("Starting Exercise 2...\n");
   80b48:	010002b4 	movhi	r4,10
   80b4c:	21226404 	addi	r4,r4,-30320
   80b50:	00828180 	call	82818 <puts>
	printf("Start main...\n");
   80b54:	010002b4 	movhi	r4,10
   80b58:	21226a04 	addi	r4,r4,-30296
   80b5c:	00828180 	call	82818 <puts>

	init_button_irq();
   80b60:	008057c0 	call	8057c <init_button_irq>
	printf("PB initialized...\n");
   80b64:	010002b4 	movhi	r4,10
   80b68:	21226e04 	addi	r4,r4,-30280
   80b6c:	00828180 	call	82818 <puts>

	seg7_show(SEG7_DISPLAY_0_BASE,SEG7_VALUE);
   80b70:	00c00434 	movhi	r3,16
   80b74:	18c42a04 	addi	r3,r3,4264
   80b78:	00844474 	movhi	r2,4369
   80b7c:	10844444 	addi	r2,r2,4369
   80b80:	18800035 	stwio	r2,0(r3)
	printf("SEG7 initialized...\n");
   80b84:	010002b4 	movhi	r4,10
   80b88:	21227304 	addi	r4,r4,-30260
   80b8c:	00828180 	call	82818 <puts>

   	lcd_0 = alt_up_character_lcd_open_dev(CHARACTER_LCD_0_NAME);
   80b90:	010002b4 	movhi	r4,10
   80b94:	21227804 	addi	r4,r4,-30240
   80b98:	00965fc0 	call	965fc <alt_up_character_lcd_open_dev>
   80b9c:	e0bffe15 	stw	r2,-8(fp)
    
    if (lcd_0 == NULL) alt_printf("Error opening LCD device\n");
   80ba0:	e0bffe17 	ldw	r2,-8(fp)
   80ba4:	1004c03a 	cmpne	r2,r2,zero
   80ba8:	1000041e 	bne	r2,zero,80bbc <main+0x88>
   80bac:	010002b4 	movhi	r4,10
   80bb0:	21227e04 	addi	r4,r4,-30216
   80bb4:	008c92c0 	call	8c92c <alt_printf>
   80bb8:	00000306 	br	80bc8 <main+0x94>
    else alt_printf("LCD device opened.\n");
   80bbc:	010002b4 	movhi	r4,10
   80bc0:	21228504 	addi	r4,r4,-30188
   80bc4:	008c92c0 	call	8c92c <alt_printf>
    
    alt_up_character_lcd_init(lcd_0);
   80bc8:	e13ffe17 	ldw	r4,-8(fp)
   80bcc:	00965c80 	call	965c8 <alt_up_character_lcd_init>
    
    alt_up_character_lcd_string(lcd_0, "COE4DS4 Winter18");
   80bd0:	e13ffe17 	ldw	r4,-8(fp)
   80bd4:	014002b4 	movhi	r5,10
   80bd8:	29628a04 	addi	r5,r5,-30168
   80bdc:	00966b40 	call	966b4 <alt_up_character_lcd_string>
    
    alt_up_character_lcd_set_cursor_pos(lcd_0, 0, 1);
   80be0:	e13ffe17 	ldw	r4,-8(fp)
   80be4:	000b883a 	mov	r5,zero
   80be8:	01800044 	movi	r6,1
   80bec:	00967780 	call	96778 <alt_up_character_lcd_set_cursor_pos>
    
    alt_up_character_lcd_string(lcd_0, "Lab6      exp. 2");
   80bf0:	e13ffe17 	ldw	r4,-8(fp)
   80bf4:	014002b4 	movhi	r5,10
   80bf8:	29628f04 	addi	r5,r5,-30148
   80bfc:	00966b40 	call	966b4 <alt_up_character_lcd_string>
    
    printf("Character LCD initialized...\n");
   80c00:	010002b4 	movhi	r4,10
   80c04:	21229404 	addi	r4,r4,-30128
   80c08:	00828180 	call	82818 <puts>

    int i=0;
   80c0c:	e03ffd15 	stw	zero,-12(fp)
    for(i=0;i<4;i++){//init all new borns to zero----> because tasks havent been born/created yet
   80c10:	e03ffd15 	stw	zero,-12(fp)
   80c14:	00000b06 	br	80c44 <main+0x110>
    	new_born[i]=1;
   80c18:	e0bffd17 	ldw	r2,-12(fp)
   80c1c:	00c002b4 	movhi	r3,10
   80c20:	18db5204 	addi	r3,r3,27976
   80c24:	1085883a 	add	r2,r2,r2
   80c28:	1085883a 	add	r2,r2,r2
   80c2c:	10c7883a 	add	r3,r2,r3
   80c30:	00800044 	movi	r2,1
   80c34:	18800015 	stw	r2,0(r3)
    alt_up_character_lcd_string(lcd_0, "Lab6      exp. 2");
    
    printf("Character LCD initialized...\n");

    int i=0;
    for(i=0;i<4;i++){//init all new borns to zero----> because tasks havent been born/created yet
   80c38:	e0bffd17 	ldw	r2,-12(fp)
   80c3c:	10800044 	addi	r2,r2,1
   80c40:	e0bffd15 	stw	r2,-12(fp)
   80c44:	e0bffd17 	ldw	r2,-12(fp)
   80c48:	10800110 	cmplti	r2,r2,4
   80c4c:	103ff21e 	bne	r2,zero,80c18 <main+0xe4>
    	new_born[i]=1;

    }

    for(i=0;i<4;i++){//init all new borns to zero----> because tasks havent been born/created yet
   80c50:	e03ffd15 	stw	zero,-12(fp)
   80c54:	00000a06 	br	80c80 <main+0x14c>
    	new_born_and_kicked[i]=0;
   80c58:	e0bffd17 	ldw	r2,-12(fp)
   80c5c:	00c002b4 	movhi	r3,10
   80c60:	18db3e04 	addi	r3,r3,27896
   80c64:	1085883a 	add	r2,r2,r2
   80c68:	1085883a 	add	r2,r2,r2
   80c6c:	10c5883a 	add	r2,r2,r3
   80c70:	10000015 	stw	zero,0(r2)
    for(i=0;i<4;i++){//init all new borns to zero----> because tasks havent been born/created yet
    	new_born[i]=1;

    }

    for(i=0;i<4;i++){//init all new borns to zero----> because tasks havent been born/created yet
   80c74:	e0bffd17 	ldw	r2,-12(fp)
   80c78:	10800044 	addi	r2,r2,1
   80c7c:	e0bffd15 	stw	r2,-12(fp)
   80c80:	e0bffd17 	ldw	r2,-12(fp)
   80c84:	10800110 	cmplti	r2,r2,4
   80c88:	103ff31e 	bne	r2,zero,80c58 <main+0x124>
    	new_born_and_kicked[i]=0;

    }

    for(i=0;i<4;i++){//init all new borns to zero----> because tasks havent been born/created yet
   80c8c:	e03ffd15 	stw	zero,-12(fp)
   80c90:	00000a06 	br	80cbc <main+0x188>
    	new_born_mult_press[i]=0;
   80c94:	e0bffd17 	ldw	r2,-12(fp)
   80c98:	00c002b4 	movhi	r3,10
   80c9c:	18faab04 	addi	r3,r3,-5460
   80ca0:	1085883a 	add	r2,r2,r2
   80ca4:	1085883a 	add	r2,r2,r2
   80ca8:	10c5883a 	add	r2,r2,r3
   80cac:	10000015 	stw	zero,0(r2)
    for(i=0;i<4;i++){//init all new borns to zero----> because tasks havent been born/created yet
    	new_born_and_kicked[i]=0;

    }

    for(i=0;i<4;i++){//init all new borns to zero----> because tasks havent been born/created yet
   80cb0:	e0bffd17 	ldw	r2,-12(fp)
   80cb4:	10800044 	addi	r2,r2,1
   80cb8:	e0bffd15 	stw	r2,-12(fp)
   80cbc:	e0bffd17 	ldw	r2,-12(fp)
   80cc0:	10800110 	cmplti	r2,r2,4
   80cc4:	103ff31e 	bne	r2,zero,80c94 <main+0x160>
    	new_born_mult_press[i]=0;

    }
    //new_born[4]={0,0,0,0};

	PERF_RESET(PERFORMANCE_COUNTER_0_BASE);
   80cc8:	00c00434 	movhi	r3,16
   80ccc:	18c40004 	addi	r3,r3,4096
   80cd0:	00800044 	movi	r2,1
   80cd4:	18800035 	stwio	r2,0(r3)
	printf("Reset performance counter...\n");
   80cd8:	010002b4 	movhi	r4,10
   80cdc:	21229c04 	addi	r4,r4,-30096
   80ce0:	00828180 	call	82818 <puts>

    srand(IORD(SWITCH_I_BASE, 0));
   80ce4:	00800434 	movhi	r2,16
   80ce8:	10841804 	addi	r2,r2,4192
   80cec:	10800037 	ldwio	r2,0(r2)
   80cf0:	1009883a 	mov	r4,r2
   80cf4:	008282c0 	call	8282c <srand>

	OSInit();
   80cf8:	008dc080 	call	8dc08 <OSInit>

	return_code = OSTaskCreateExt(initialize_task,
   80cfc:	018002f4 	movhi	r6,11
   80d00:	31a35604 	addi	r6,r6,-29352
   80d04:	00800184 	movi	r2,6
   80d08:	d8800015 	stw	r2,0(sp)
   80d0c:	008002b4 	movhi	r2,10
   80d10:	109b5604 	addi	r2,r2,27992
   80d14:	d8800115 	stw	r2,4(sp)
   80d18:	00820004 	movi	r2,2048
   80d1c:	d8800215 	stw	r2,8(sp)
   80d20:	d8000315 	stw	zero,12(sp)
   80d24:	008000c4 	movi	r2,3
   80d28:	d8800415 	stw	r2,16(sp)
   80d2c:	01000234 	movhi	r4,8
   80d30:	2102be04 	addi	r4,r4,2808
   80d34:	000b883a 	mov	r5,zero
   80d38:	01c00184 	movi	r7,6
   80d3c:	0093d200 	call	93d20 <OSTaskCreateExt>
   80d40:	e0bfff05 	stb	r2,-4(fp)
					INITIALIZE_TASK_PRIORITY,
					initialize_task_stk,
					TASK_STACKSIZE,
					NULL,
					OS_TASK_OPT_STK_CHK | OS_TASK_OPT_STK_CLR);
	alt_ucosii_check_return_code(return_code);
   80d44:	e13fff03 	ldbu	r4,-4(fp)
   80d48:	00805d00 	call	805d0 <alt_ucosii_check_return_code>
	printf("Starting uCOS...\n");
   80d4c:	010002b4 	movhi	r4,10
   80d50:	2122a404 	addi	r4,r4,-30064
   80d54:	00828180 	call	82818 <puts>

	OSStart();
   80d58:	008df480 	call	8df48 <OSStart>
	return 0;
   80d5c:	0005883a 	mov	r2,zero
}
   80d60:	e037883a 	mov	sp,fp
   80d64:	dfc00117 	ldw	ra,4(sp)
   80d68:	df000017 	ldw	fp,0(sp)
   80d6c:	dec00204 	addi	sp,sp,8
   80d70:	f800283a 	ret

00080d74 <init_OS_data_structs>:

// This function creates the data structures for uCOS
int init_OS_data_structs(void) {
   80d74:	defffc04 	addi	sp,sp,-16
   80d78:	dfc00315 	stw	ra,12(sp)
   80d7c:	df000215 	stw	fp,8(sp)
   80d80:	dc000115 	stw	r16,4(sp)
   80d84:	df000104 	addi	fp,sp,4
	int i;

	printf("Init data structs...\n");
   80d88:	010002b4 	movhi	r4,10
   80d8c:	2122a904 	addi	r4,r4,-30044
   80d90:	00828180 	call	82818 <puts>

	for (i = 0; i < NUM_PB_BUTTON; i++)
   80d94:	e03fff15 	stw	zero,-4(fp)
   80d98:	00000d06 	br	80dd0 <init_OS_data_structs+0x5c>
		PBSemaphore[i] = OSSemCreate(0);
   80d9c:	e43fff17 	ldw	r16,-4(fp)
   80da0:	0009883a 	mov	r4,zero
   80da4:	0092ad00 	call	92ad0 <OSSemCreate>
   80da8:	1009883a 	mov	r4,r2
   80dac:	00c002b4 	movhi	r3,10
   80db0:	18dab304 	addi	r3,r3,27340
   80db4:	8405883a 	add	r2,r16,r16
   80db8:	1085883a 	add	r2,r2,r2
   80dbc:	10c5883a 	add	r2,r2,r3
   80dc0:	11000015 	stw	r4,0(r2)
int init_OS_data_structs(void) {
	int i;

	printf("Init data structs...\n");

	for (i = 0; i < NUM_PB_BUTTON; i++)
   80dc4:	e0bfff17 	ldw	r2,-4(fp)
   80dc8:	10800044 	addi	r2,r2,1
   80dcc:	e0bfff15 	stw	r2,-4(fp)
   80dd0:	e0bfff17 	ldw	r2,-4(fp)
   80dd4:	10800110 	cmplti	r2,r2,4
   80dd8:	103ff01e 	bne	r2,zero,80d9c <init_OS_data_structs+0x28>
		PBSemaphore[i] = OSSemCreate(0);

	return 0;
   80ddc:	0005883a 	mov	r2,zero
}
   80de0:	e037883a 	mov	sp,fp
   80de4:	dfc00217 	ldw	ra,8(sp)
   80de8:	df000117 	ldw	fp,4(sp)
   80dec:	dc000017 	ldw	r16,0(sp)
   80df0:	dec00304 	addi	sp,sp,12
   80df4:	f800283a 	ret

00080df8 <init_create_tasks>:

// This function creates the first task in uCOS
int init_create_tasks(void) {
   80df8:	defff804 	addi	sp,sp,-32
   80dfc:	dfc00715 	stw	ra,28(sp)
   80e00:	df000615 	stw	fp,24(sp)
   80e04:	df000604 	addi	fp,sp,24
	INT8U return_code = OS_NO_ERR;
   80e08:	e03fff05 	stb	zero,-4(fp)

	printf("Creating custom_scheduler...\n");
   80e0c:	010002b4 	movhi	r4,10
   80e10:	2122af04 	addi	r4,r4,-30020
   80e14:	00828180 	call	82818 <puts>
	return_code = OSTaskCreateExt(custom_scheduler,
   80e18:	018002b4 	movhi	r6,10
   80e1c:	31baab04 	addi	r6,r6,-5460
   80e20:	00800244 	movi	r2,9
   80e24:	d8800015 	stw	r2,0(sp)
   80e28:	008002b4 	movhi	r2,10
   80e2c:	10b2ab04 	addi	r2,r2,-13652
   80e30:	d8800115 	stw	r2,4(sp)
   80e34:	00820004 	movi	r2,2048
   80e38:	d8800215 	stw	r2,8(sp)
   80e3c:	008002b4 	movhi	r2,10
   80e40:	109ab704 	addi	r2,r2,27356
   80e44:	d8800315 	stw	r2,12(sp)
   80e48:	d8000415 	stw	zero,16(sp)
   80e4c:	01000234 	movhi	r4,8
   80e50:	21046f04 	addi	r4,r4,4540
   80e54:	000b883a 	mov	r5,zero
   80e58:	01c00244 	movi	r7,9
   80e5c:	0093d200 	call	93d20 <OSTaskCreateExt>
   80e60:	e0bfff05 	stb	r2,-4(fp)
					CUSTOM_SCHEDULER_PRIORITY,
					custom_scheduler_stk,
                    TASK_STACKSIZE,
					&custom_scheduler_tcb,
					0);
	alt_ucosii_check_return_code(return_code);
   80e64:	e13fff03 	ldbu	r4,-4(fp)
   80e68:	00805d00 	call	805d0 <alt_ucosii_check_return_code>

	return 0;
   80e6c:	0005883a 	mov	r2,zero
}
   80e70:	e037883a 	mov	sp,fp
   80e74:	dfc00117 	ldw	ra,4(sp)
   80e78:	df000017 	ldw	fp,0(sp)
   80e7c:	dec00204 	addi	sp,sp,8
   80e80:	f800283a 	ret

00080e84 <periodic_task0>:

scheduler_info_struct scheduler_info_holder[NUM_TASK];
// Periodic task 0
// It periodically uses a custom delay to occupy the CPU
// Then it suspends itself for a specified period of time
void periodic_task0(void* pdata) {
   80e84:	defffc04 	addi	sp,sp,-16
   80e88:	dfc00315 	stw	ra,12(sp)
   80e8c:	df000215 	stw	fp,8(sp)
   80e90:	df000204 	addi	fp,sp,8
   80e94:	e13fff15 	stw	r4,-4(fp)
	task_info_struct *task_info_ptr;

	task_info_ptr = (task_info_struct *) pdata;
   80e98:	e0bfff17 	ldw	r2,-4(fp)
   80e9c:	e0bffe15 	stw	r2,-8(fp)
	while (1) {
		printf("Start periodic_task0 (%4d ms) (%1d s) (%d priority)\n",
   80ea0:	e0bffe17 	ldw	r2,-8(fp)
   80ea4:	11400117 	ldw	r5,4(r2)
   80ea8:	e0bffe17 	ldw	r2,-8(fp)
   80eac:	11800217 	ldw	r6,8(r2)
   80eb0:	e0bffe17 	ldw	r2,-8(fp)
   80eb4:	11c00017 	ldw	r7,0(r2)
   80eb8:	010002b4 	movhi	r4,10
   80ebc:	2122b704 	addi	r4,r4,-29988
   80ec0:	00827000 	call	82700 <printf>
				task_info_ptr->execution_time, task_info_ptr->os_delay,
				task_info_ptr->priority);
		custom_delay(task_info_ptr->execution_time);
   80ec4:	e0bffe17 	ldw	r2,-8(fp)
   80ec8:	11000117 	ldw	r4,4(r2)
   80ecc:	00823c00 	call	823c0 <custom_delay>
		printf("End	  periodic_task0 (%4d ms) (%1d s) (%d priority)\n",
   80ed0:	e0bffe17 	ldw	r2,-8(fp)
   80ed4:	11400117 	ldw	r5,4(r2)
   80ed8:	e0bffe17 	ldw	r2,-8(fp)
   80edc:	11800217 	ldw	r6,8(r2)
   80ee0:	e0bffe17 	ldw	r2,-8(fp)
   80ee4:	11c00017 	ldw	r7,0(r2)
   80ee8:	010002b4 	movhi	r4,10
   80eec:	2122c504 	addi	r4,r4,-29932
   80ef0:	00827000 	call	82700 <printf>
				task_info_ptr->execution_time, task_info_ptr->os_delay,
				task_info_ptr->priority);
		OSTimeDlyHMSM(0, 0, task_info_ptr->os_delay, 0);
   80ef4:	e0bffe17 	ldw	r2,-8(fp)
   80ef8:	10800217 	ldw	r2,8(r2)
   80efc:	11803fcc 	andi	r6,r2,255
   80f00:	0009883a 	mov	r4,zero
   80f04:	000b883a 	mov	r5,zero
   80f08:	000f883a 	mov	r7,zero
   80f0c:	00951640 	call	95164 <OSTimeDlyHMSM>
	}
   80f10:	003fe306 	br	80ea0 <periodic_task0+0x1c>

00080f14 <periodic_task1>:
}

// Periodic task 1
// It periodically uses a custom delay to occupy the CPU
// Then it suspends itself for a specified period of time
void periodic_task1(void* pdata) {
   80f14:	defffc04 	addi	sp,sp,-16
   80f18:	dfc00315 	stw	ra,12(sp)
   80f1c:	df000215 	stw	fp,8(sp)
   80f20:	df000204 	addi	fp,sp,8
   80f24:	e13fff15 	stw	r4,-4(fp)
	task_info_struct *task_info_ptr;

	task_info_ptr = (task_info_struct *) pdata;
   80f28:	e0bfff17 	ldw	r2,-4(fp)
   80f2c:	e0bffe15 	stw	r2,-8(fp)
	while (1) {
		printf("Start periodic_task1 (%4d ms) (%1d s) (%d priority)\n",
   80f30:	e0bffe17 	ldw	r2,-8(fp)
   80f34:	11400117 	ldw	r5,4(r2)
   80f38:	e0bffe17 	ldw	r2,-8(fp)
   80f3c:	11800217 	ldw	r6,8(r2)
   80f40:	e0bffe17 	ldw	r2,-8(fp)
   80f44:	11c00017 	ldw	r7,0(r2)
   80f48:	010002b4 	movhi	r4,10
   80f4c:	2122d304 	addi	r4,r4,-29876
   80f50:	00827000 	call	82700 <printf>
				task_info_ptr->execution_time, task_info_ptr->os_delay,
				task_info_ptr->priority);
		custom_delay(task_info_ptr->execution_time);
   80f54:	e0bffe17 	ldw	r2,-8(fp)
   80f58:	11000117 	ldw	r4,4(r2)
   80f5c:	00823c00 	call	823c0 <custom_delay>
		printf("End	  periodic_task1 (%4d ms) (%1d s) (%d priority)\n",
   80f60:	e0bffe17 	ldw	r2,-8(fp)
   80f64:	11400117 	ldw	r5,4(r2)
   80f68:	e0bffe17 	ldw	r2,-8(fp)
   80f6c:	11800217 	ldw	r6,8(r2)
   80f70:	e0bffe17 	ldw	r2,-8(fp)
   80f74:	11c00017 	ldw	r7,0(r2)
   80f78:	010002b4 	movhi	r4,10
   80f7c:	2122e104 	addi	r4,r4,-29820
   80f80:	00827000 	call	82700 <printf>
				task_info_ptr->execution_time, task_info_ptr->os_delay,
				task_info_ptr->priority);
		OSTimeDlyHMSM(0, 0, task_info_ptr->os_delay, 0);
   80f84:	e0bffe17 	ldw	r2,-8(fp)
   80f88:	10800217 	ldw	r2,8(r2)
   80f8c:	11803fcc 	andi	r6,r2,255
   80f90:	0009883a 	mov	r4,zero
   80f94:	000b883a 	mov	r5,zero
   80f98:	000f883a 	mov	r7,zero
   80f9c:	00951640 	call	95164 <OSTimeDlyHMSM>
	}
   80fa0:	003fe306 	br	80f30 <periodic_task1+0x1c>

00080fa4 <periodic_task2>:
}

// Periodic task 2
// It periodically uses a custom delay to occupy the CPU
// Then it suspends itself for a specified period of time
void periodic_task2(void* pdata) {
   80fa4:	defffc04 	addi	sp,sp,-16
   80fa8:	dfc00315 	stw	ra,12(sp)
   80fac:	df000215 	stw	fp,8(sp)
   80fb0:	df000204 	addi	fp,sp,8
   80fb4:	e13fff15 	stw	r4,-4(fp)
	task_info_struct *task_info_ptr;

	task_info_ptr = (task_info_struct *) pdata;
   80fb8:	e0bfff17 	ldw	r2,-4(fp)
   80fbc:	e0bffe15 	stw	r2,-8(fp)
	while (1) {
		printf("Start periodic_task2 (%4d ms) (%1d s) (%d priority)\n",
   80fc0:	e0bffe17 	ldw	r2,-8(fp)
   80fc4:	11400117 	ldw	r5,4(r2)
   80fc8:	e0bffe17 	ldw	r2,-8(fp)
   80fcc:	11800217 	ldw	r6,8(r2)
   80fd0:	e0bffe17 	ldw	r2,-8(fp)
   80fd4:	11c00017 	ldw	r7,0(r2)
   80fd8:	010002b4 	movhi	r4,10
   80fdc:	2122ef04 	addi	r4,r4,-29764
   80fe0:	00827000 	call	82700 <printf>
				task_info_ptr->execution_time, task_info_ptr->os_delay,
				task_info_ptr->priority);
		custom_delay(task_info_ptr->execution_time);
   80fe4:	e0bffe17 	ldw	r2,-8(fp)
   80fe8:	11000117 	ldw	r4,4(r2)
   80fec:	00823c00 	call	823c0 <custom_delay>
		printf("End	  periodic_task2 (%4d ms) (%1d s) (%d priority)\n",
   80ff0:	e0bffe17 	ldw	r2,-8(fp)
   80ff4:	11400117 	ldw	r5,4(r2)
   80ff8:	e0bffe17 	ldw	r2,-8(fp)
   80ffc:	11800217 	ldw	r6,8(r2)
   81000:	e0bffe17 	ldw	r2,-8(fp)
   81004:	11c00017 	ldw	r7,0(r2)
   81008:	010002b4 	movhi	r4,10
   8100c:	2122fd04 	addi	r4,r4,-29708
   81010:	00827000 	call	82700 <printf>
				task_info_ptr->execution_time, task_info_ptr->os_delay,
				task_info_ptr->priority);
		OSTimeDlyHMSM(0, 0, task_info_ptr->os_delay, 0);
   81014:	e0bffe17 	ldw	r2,-8(fp)
   81018:	10800217 	ldw	r2,8(r2)
   8101c:	11803fcc 	andi	r6,r2,255
   81020:	0009883a 	mov	r4,zero
   81024:	000b883a 	mov	r5,zero
   81028:	000f883a 	mov	r7,zero
   8102c:	00951640 	call	95164 <OSTimeDlyHMSM>
	}
   81030:	003fe306 	br	80fc0 <periodic_task2+0x1c>

00081034 <periodic_task3>:
}

// Periodic task 3
// It periodically uses a custom delay to occupy the CPU
// Then it suspends itself for a specified period of time
void periodic_task3(void* pdata) {
   81034:	defffc04 	addi	sp,sp,-16
   81038:	dfc00315 	stw	ra,12(sp)
   8103c:	df000215 	stw	fp,8(sp)
   81040:	df000204 	addi	fp,sp,8
   81044:	e13fff15 	stw	r4,-4(fp)
	task_info_struct *task_info_ptr;

	task_info_ptr = (task_info_struct *) pdata;
   81048:	e0bfff17 	ldw	r2,-4(fp)
   8104c:	e0bffe15 	stw	r2,-8(fp)
	while (1) {
		printf("Start periodic_task3 (%4d ms) (%1d s) (%d priority)\n",
   81050:	e0bffe17 	ldw	r2,-8(fp)
   81054:	11400117 	ldw	r5,4(r2)
   81058:	e0bffe17 	ldw	r2,-8(fp)
   8105c:	11800217 	ldw	r6,8(r2)
   81060:	e0bffe17 	ldw	r2,-8(fp)
   81064:	11c00017 	ldw	r7,0(r2)
   81068:	010002b4 	movhi	r4,10
   8106c:	21230b04 	addi	r4,r4,-29652
   81070:	00827000 	call	82700 <printf>
				task_info_ptr->execution_time, task_info_ptr->os_delay,
				task_info_ptr->priority);
		custom_delay(task_info_ptr->execution_time);
   81074:	e0bffe17 	ldw	r2,-8(fp)
   81078:	11000117 	ldw	r4,4(r2)
   8107c:	00823c00 	call	823c0 <custom_delay>
		printf("End	  periodic_task3 (%4d ms) (%1d s) (%d priority)\n",
   81080:	e0bffe17 	ldw	r2,-8(fp)
   81084:	11400117 	ldw	r5,4(r2)
   81088:	e0bffe17 	ldw	r2,-8(fp)
   8108c:	11800217 	ldw	r6,8(r2)
   81090:	e0bffe17 	ldw	r2,-8(fp)
   81094:	11c00017 	ldw	r7,0(r2)
   81098:	010002b4 	movhi	r4,10
   8109c:	21231904 	addi	r4,r4,-29596
   810a0:	00827000 	call	82700 <printf>
				task_info_ptr->execution_time, task_info_ptr->os_delay,
				task_info_ptr->priority);
		OSTimeDlyHMSM(0, 0, task_info_ptr->os_delay, 0);
   810a4:	e0bffe17 	ldw	r2,-8(fp)
   810a8:	10800217 	ldw	r2,8(r2)
   810ac:	11803fcc 	andi	r6,r2,255
   810b0:	0009883a 	mov	r4,zero
   810b4:	000b883a 	mov	r5,zero
   810b8:	000f883a 	mov	r7,zero
   810bc:	00951640 	call	95164 <OSTimeDlyHMSM>
	}
   810c0:	003fe306 	br	81050 <periodic_task3+0x1c>

000810c4 <find_min_time>:
}

int find_min_time(int PB_pressed[]) {//function to return the lowest OS time in our global array
   810c4:	defffa04 	addi	sp,sp,-24
   810c8:	df000515 	stw	fp,20(sp)
   810cc:	df000504 	addi	fp,sp,20
   810d0:	e13fff15 	stw	r4,-4(fp)
	int min = -1;
   810d4:	00bfffc4 	movi	r2,-1
   810d8:	e0bffe15 	stw	r2,-8(fp)
	int i;
	int flag = 0;
   810dc:	e03ffc15 	stw	zero,-16(fp)
	int furthest_time = 2147483647;
   810e0:	00a00034 	movhi	r2,32768
   810e4:	10bfffc4 	addi	r2,r2,-1
   810e8:	e0bffb15 	stw	r2,-20(fp)

	for (i = 0; i < 4; i++) {
   810ec:	e03ffd15 	stw	zero,-12(fp)
   810f0:	00002a06 	br	8119c <find_min_time+0xd8>
		if ((PB_pressed[i] == 1) && (button_times[i] != -1)) {//IF BUTTON TIMES [I] ==-1 THAT MEANS THE BUTTON ASSOC W/ THIS TIME HAS BEEN SERVED!! DONT DO AGAIN!!!
   810f4:	e0bffd17 	ldw	r2,-12(fp)
   810f8:	1085883a 	add	r2,r2,r2
   810fc:	1085883a 	add	r2,r2,r2
   81100:	1007883a 	mov	r3,r2
   81104:	e0bfff17 	ldw	r2,-4(fp)
   81108:	1885883a 	add	r2,r3,r2
   8110c:	10800017 	ldw	r2,0(r2)
   81110:	10800058 	cmpnei	r2,r2,1
   81114:	10001e1e 	bne	r2,zero,81190 <find_min_time+0xcc>
   81118:	e0bffd17 	ldw	r2,-12(fp)
   8111c:	00c002b4 	movhi	r3,10
   81120:	18daaf04 	addi	r3,r3,27324
   81124:	1085883a 	add	r2,r2,r2
   81128:	1085883a 	add	r2,r2,r2
   8112c:	10c5883a 	add	r2,r2,r3
   81130:	10800017 	ldw	r2,0(r2)
   81134:	10bfffe0 	cmpeqi	r2,r2,-1
   81138:	1000151e 	bne	r2,zero,81190 <find_min_time+0xcc>
			if (furthest_time > button_times[i]) {
   8113c:	e0bffd17 	ldw	r2,-12(fp)
   81140:	00c002b4 	movhi	r3,10
   81144:	18daaf04 	addi	r3,r3,27324
   81148:	1085883a 	add	r2,r2,r2
   8114c:	1085883a 	add	r2,r2,r2
   81150:	10c5883a 	add	r2,r2,r3
   81154:	10c00017 	ldw	r3,0(r2)
   81158:	e0bffb17 	ldw	r2,-20(fp)
   8115c:	18800c0e 	bge	r3,r2,81190 <find_min_time+0xcc>
				min = i;
   81160:	e0bffd17 	ldw	r2,-12(fp)
   81164:	e0bffe15 	stw	r2,-8(fp)
				furthest_time = button_times[i];
   81168:	e0bffd17 	ldw	r2,-12(fp)
   8116c:	00c002b4 	movhi	r3,10
   81170:	18daaf04 	addi	r3,r3,27324
   81174:	1085883a 	add	r2,r2,r2
   81178:	1085883a 	add	r2,r2,r2
   8117c:	10c5883a 	add	r2,r2,r3
   81180:	10800017 	ldw	r2,0(r2)
   81184:	e0bffb15 	stw	r2,-20(fp)
				flag = 1;
   81188:	00800044 	movi	r2,1
   8118c:	e0bffc15 	stw	r2,-16(fp)
	int min = -1;
	int i;
	int flag = 0;
	int furthest_time = 2147483647;

	for (i = 0; i < 4; i++) {
   81190:	e0bffd17 	ldw	r2,-12(fp)
   81194:	10800044 	addi	r2,r2,1
   81198:	e0bffd15 	stw	r2,-12(fp)
   8119c:	e0bffd17 	ldw	r2,-12(fp)
   811a0:	10800110 	cmplti	r2,r2,4
   811a4:	103fd31e 	bne	r2,zero,810f4 <find_min_time+0x30>

		}

	}

	return min;
   811a8:	e0bffe17 	ldw	r2,-8(fp)
}
   811ac:	e037883a 	mov	sp,fp
   811b0:	df000017 	ldw	fp,0(sp)
   811b4:	dec00104 	addi	sp,sp,4
   811b8:	f800283a 	ret

000811bc <custom_scheduler>:
// The custom_scheduler
// It has the highest priority
// It checks the PBs every 500ms
// It a button has been pressed, it creates/deletes the corresponding task in the OS
// When creating a task, it will assign the new task with the lowest priority among the running tasks
void custom_scheduler(void *pdata) {
   811bc:	deffc704 	addi	sp,sp,-228
   811c0:	dfc03815 	stw	ra,224(sp)
   811c4:	df003715 	stw	fp,220(sp)
   811c8:	dd003615 	stw	r20,216(sp)
   811cc:	dcc03515 	stw	r19,212(sp)
   811d0:	dc803415 	stw	r18,208(sp)
   811d4:	dc403315 	stw	r17,204(sp)
   811d8:	dc003215 	stw	r16,200(sp)
   811dc:	df003204 	addi	fp,sp,200
   811e0:	e13fff15 	stw	r4,-4(fp)
	INT8U return_code = OS_NO_ERR;
   811e4:	e03fde05 	stb	zero,-136(fp)
	int num_active_task;
	// Array of task_info
	task_info_struct task_info[NUM_TASK];
	scheduler_info_struct scheduler_info[NUM_TASK];

	printf("Starting custom scheduler...\n");
   811e8:	010002b4 	movhi	r4,10
   811ec:	21232704 	addi	r4,r4,-29540
   811f0:	00828180 	call	82818 <puts>

	num_active_task = 0;
   811f4:	e03fd215 	stw	zero,-184(fp)


	// Scheduler never returns
	while (1) {
		new_pressed = 0;
   811f8:	e03fdb15 	stw	zero,-148(fp)
		// Check for PBs
		num_buttons_pressed = 0;
   811fc:	e03fd315 	stw	zero,-180(fp)

		for (i = 0; i < NUM_PB_BUTTON; i++) {
   81200:	e03fdd15 	stw	zero,-140(fp)
   81204:	00002f06 	br	812c4 <custom_scheduler+0x108>
			PB_pressed[i] = 0;
   81208:	e0bfdd17 	ldw	r2,-140(fp)
   8120c:	1085883a 	add	r2,r2,r2
   81210:	1085883a 	add	r2,r2,r2
   81214:	e0ffd204 	addi	r3,fp,-184
   81218:	10c5883a 	add	r2,r2,r3
   8121c:	10800d04 	addi	r2,r2,52
   81220:	10000015 	stw	zero,0(r2)
			sem_value = OSSemAccept(PBSemaphore[i]);
   81224:	e0bfdd17 	ldw	r2,-140(fp)
   81228:	00c002b4 	movhi	r3,10
   8122c:	18dab304 	addi	r3,r3,27340
   81230:	1085883a 	add	r2,r2,r2
   81234:	1085883a 	add	r2,r2,r2
   81238:	10c5883a 	add	r2,r2,r3
   8123c:	11000017 	ldw	r4,0(r2)
   81240:	0092a100 	call	92a10 <OSSemAccept>
   81244:	10bfffcc 	andi	r2,r2,65535
   81248:	e0bfdc15 	stw	r2,-144(fp)
			if (sem_value != 0) {
   8124c:	e0bfdc17 	ldw	r2,-144(fp)
   81250:	1005003a 	cmpeq	r2,r2,zero
   81254:	1000181e 	bne	r2,zero,812b8 <custom_scheduler+0xfc>
				PB_pressed[i] = 1;
   81258:	e0bfdd17 	ldw	r2,-140(fp)
   8125c:	1085883a 	add	r2,r2,r2
   81260:	1085883a 	add	r2,r2,r2
   81264:	e0ffd204 	addi	r3,fp,-184
   81268:	10c5883a 	add	r2,r2,r3
   8126c:	10c00d04 	addi	r3,r2,52
   81270:	00800044 	movi	r2,1
   81274:	18800015 	stw	r2,0(r3)
				new_pressed = 1;
   81278:	00800044 	movi	r2,1
   8127c:	e0bfdb15 	stw	r2,-148(fp)

				printf("Button %d was pressed at time %ld\n", i,
   81280:	e0bfdd17 	ldw	r2,-140(fp)
   81284:	00c002b4 	movhi	r3,10
   81288:	18daaf04 	addi	r3,r3,27324
   8128c:	1085883a 	add	r2,r2,r2
   81290:	1085883a 	add	r2,r2,r2
   81294:	10c5883a 	add	r2,r2,r3
   81298:	11800017 	ldw	r6,0(r2)
   8129c:	010002b4 	movhi	r4,10
   812a0:	21232f04 	addi	r4,r4,-29508
   812a4:	e17fdd17 	ldw	r5,-140(fp)
   812a8:	00827000 	call	82700 <printf>
						button_times[i]);
				num_buttons_pressed++;
   812ac:	e0bfd317 	ldw	r2,-180(fp)
   812b0:	10800044 	addi	r2,r2,1
   812b4:	e0bfd315 	stw	r2,-180(fp)
	while (1) {
		new_pressed = 0;
		// Check for PBs
		num_buttons_pressed = 0;

		for (i = 0; i < NUM_PB_BUTTON; i++) {
   812b8:	e0bfdd17 	ldw	r2,-140(fp)
   812bc:	10800044 	addi	r2,r2,1
   812c0:	e0bfdd15 	stw	r2,-140(fp)
   812c4:	e0bfdd17 	ldw	r2,-140(fp)
   812c8:	10800110 	cmplti	r2,r2,4
   812cc:	103fce1e 	bne	r2,zero,81208 <custom_scheduler+0x4c>
		}

		//printf("\n%d buttons have been pressed\n", num_buttons_pressed);
		//printf("The value of new_pressed is %d\n", new_pressed);

		if (new_pressed != 0) {
   812d0:	e0bfdb17 	ldw	r2,-148(fp)
   812d4:	1005003a 	cmpeq	r2,r2,zero
   812d8:	1000831e 	bne	r2,zero,814e8 <custom_scheduler+0x32c>
			printf("Locking OS scheduler for new scheduling\n");
   812dc:	010002b4 	movhi	r4,10
   812e0:	21233804 	addi	r4,r4,-29472
   812e4:	00828180 	call	82818 <puts>
			OSSchedLock();
   812e8:	008ddd80 	call	8ddd8 <OSSchedLock>
			for (j = 0; j < num_buttons_pressed; j++) {
   812ec:	e03fd615 	stw	zero,-168(fp)
   812f0:	00007606 	br	814cc <custom_scheduler+0x310>


				task_num_to_serve = find_min_time(PB_pressed);
   812f4:	e13fdf04 	addi	r4,fp,-132
   812f8:	00810c40 	call	810c4 <find_min_time>
   812fc:	e0bfd515 	stw	r2,-172(fp)
				//printf("\nWe are serving task #%d\n", task_num_to_serve);

				if(new_born[task_num_to_serve]==1)increment_flag=1;
   81300:	e0bfd517 	ldw	r2,-172(fp)
   81304:	00c002b4 	movhi	r3,10
   81308:	18db5204 	addi	r3,r3,27976
   8130c:	1085883a 	add	r2,r2,r2
   81310:	1085883a 	add	r2,r2,r2
   81314:	10c5883a 	add	r2,r2,r3
   81318:	10800017 	ldw	r2,0(r2)
   8131c:	10800058 	cmpnei	r2,r2,1
   81320:	1000021e 	bne	r2,zero,8132c <custom_scheduler+0x170>
   81324:	00800044 	movi	r2,1
   81328:	e0bfd415 	stw	r2,-176(fp)
				custom_task_handle(task_num_to_serve, num_active_task,
   8132c:	e1bff304 	addi	r6,fp,-52
   81330:	e1ffe704 	addi	r7,fp,-100
   81334:	e13fd517 	ldw	r4,-172(fp)
   81338:	e17fd217 	ldw	r5,-184(fp)
   8133c:	00814f40 	call	814f4 <custom_task_handle>
						scheduler_info, task_info);
				button_times[task_num_to_serve] = -1;
   81340:	e0bfd517 	ldw	r2,-172(fp)
   81344:	00c002b4 	movhi	r3,10
   81348:	18daaf04 	addi	r3,r3,27324
   8134c:	1085883a 	add	r2,r2,r2
   81350:	1085883a 	add	r2,r2,r2
   81354:	10c7883a 	add	r3,r2,r3
   81358:	00bfffc4 	movi	r2,-1
   8135c:	18800015 	stw	r2,0(r3)
				if(increment_flag==1){num_active_task++;increment_flag=0;}
   81360:	e0bfd417 	ldw	r2,-176(fp)
   81364:	10800058 	cmpnei	r2,r2,1
   81368:	1000041e 	bne	r2,zero,8137c <custom_scheduler+0x1c0>
   8136c:	e0bfd217 	ldw	r2,-184(fp)
   81370:	10800044 	addi	r2,r2,1
   81374:	e0bfd215 	stw	r2,-184(fp)
   81378:	e03fd415 	stw	zero,-176(fp)
				printf("Printing task info:\n");
   8137c:	010002b4 	movhi	r4,10
   81380:	21234204 	addi	r4,r4,-29432
   81384:	00828180 	call	82818 <puts>
				for (i = 0; i < num_active_task; i++) {
   81388:	e03fdd15 	stw	zero,-140(fp)
   8138c:	00004906 	br	814b4 <custom_scheduler+0x2f8>
					printf(
   81390:	e13fdd17 	ldw	r4,-140(fp)
   81394:	01400304 	movi	r5,12
   81398:	008257c0 	call	8257c <__mulsi3>
   8139c:	e0ffd204 	addi	r3,fp,-184
   813a0:	10c5883a 	add	r2,r2,r3
   813a4:	10802104 	addi	r2,r2,132
   813a8:	14000017 	ldw	r16,0(r2)
   813ac:	e13fdd17 	ldw	r4,-140(fp)
   813b0:	01400304 	movi	r5,12
   813b4:	008257c0 	call	8257c <__mulsi3>
   813b8:	e0ffd204 	addi	r3,fp,-184
   813bc:	10c5883a 	add	r2,r2,r3
   813c0:	10802204 	addi	r2,r2,136
   813c4:	14400017 	ldw	r17,0(r2)
   813c8:	e13fdd17 	ldw	r4,-140(fp)
   813cc:	01400304 	movi	r5,12
   813d0:	008257c0 	call	8257c <__mulsi3>
   813d4:	e0ffd204 	addi	r3,fp,-184
   813d8:	10c5883a 	add	r2,r2,r3
   813dc:	10802304 	addi	r2,r2,140
   813e0:	14800017 	ldw	r18,0(r2)
   813e4:	e13fdd17 	ldw	r4,-140(fp)
   813e8:	01400304 	movi	r5,12
   813ec:	008257c0 	call	8257c <__mulsi3>
   813f0:	e0ffd204 	addi	r3,fp,-184
   813f4:	10c5883a 	add	r2,r2,r3
   813f8:	10802204 	addi	r2,r2,136
   813fc:	11000017 	ldw	r4,0(r2)
   81400:	01400304 	movi	r5,12
   81404:	008257c0 	call	8257c <__mulsi3>
   81408:	e0ffd204 	addi	r3,fp,-184
   8140c:	10c5883a 	add	r2,r2,r3
   81410:	10801604 	addi	r2,r2,88
   81414:	14c00017 	ldw	r19,0(r2)
   81418:	e13fdd17 	ldw	r4,-140(fp)
   8141c:	01400304 	movi	r5,12
   81420:	008257c0 	call	8257c <__mulsi3>
   81424:	e0ffd204 	addi	r3,fp,-184
   81428:	10c5883a 	add	r2,r2,r3
   8142c:	10802204 	addi	r2,r2,136
   81430:	11000017 	ldw	r4,0(r2)
   81434:	01400304 	movi	r5,12
   81438:	008257c0 	call	8257c <__mulsi3>
   8143c:	e0ffd204 	addi	r3,fp,-184
   81440:	10c5883a 	add	r2,r2,r3
   81444:	10801704 	addi	r2,r2,92
   81448:	15000017 	ldw	r20,0(r2)
   8144c:	e13fdd17 	ldw	r4,-140(fp)
   81450:	01400304 	movi	r5,12
   81454:	008257c0 	call	8257c <__mulsi3>
   81458:	e0ffd204 	addi	r3,fp,-184
   8145c:	10c5883a 	add	r2,r2,r3
   81460:	10802204 	addi	r2,r2,136
   81464:	11000017 	ldw	r4,0(r2)
   81468:	01400304 	movi	r5,12
   8146c:	008257c0 	call	8257c <__mulsi3>
   81470:	e0ffd204 	addi	r3,fp,-184
   81474:	10c5883a 	add	r2,r2,r3
   81478:	10801504 	addi	r2,r2,84
   8147c:	10800017 	ldw	r2,0(r2)
   81480:	dc800015 	stw	r18,0(sp)
   81484:	dcc00115 	stw	r19,4(sp)
   81488:	dd000215 	stw	r20,8(sp)
   8148c:	d8800315 	stw	r2,12(sp)
   81490:	010002b4 	movhi	r4,10
   81494:	21234704 	addi	r4,r4,-29412
   81498:	e17fdd17 	ldw	r5,-140(fp)
   8149c:	800d883a 	mov	r6,r16
   814a0:	880f883a 	mov	r7,r17
   814a4:	00827000 	call	82700 <printf>
				custom_task_handle(task_num_to_serve, num_active_task,
						scheduler_info, task_info);
				button_times[task_num_to_serve] = -1;
				if(increment_flag==1){num_active_task++;increment_flag=0;}
				printf("Printing task info:\n");
				for (i = 0; i < num_active_task; i++) {
   814a8:	e0bfdd17 	ldw	r2,-140(fp)
   814ac:	10800044 	addi	r2,r2,1
   814b0:	e0bfdd15 	stw	r2,-140(fp)
   814b4:	e0ffdd17 	ldw	r3,-140(fp)
   814b8:	e0bfd217 	ldw	r2,-184(fp)
   814bc:	18bfb416 	blt	r3,r2,81390 <custom_scheduler+0x1d4>
		//printf("The value of new_pressed is %d\n", new_pressed);

		if (new_pressed != 0) {
			printf("Locking OS scheduler for new scheduling\n");
			OSSchedLock();
			for (j = 0; j < num_buttons_pressed; j++) {
   814c0:	e0bfd617 	ldw	r2,-168(fp)
   814c4:	10800044 	addi	r2,r2,1
   814c8:	e0bfd615 	stw	r2,-168(fp)
   814cc:	e0ffd617 	ldw	r3,-168(fp)
   814d0:	e0bfd317 	ldw	r2,-180(fp)
   814d4:	18bf8716 	blt	r3,r2,812f4 <custom_scheduler+0x138>
//						task_info[scheduler_info[i].id].execution_time,
//						task_info[scheduler_info[i].id].os_delay,
//						task_info[scheduler_info[i].id].priority);
//			}

			printf("Unlocking OS scheduler\n");
   814d8:	010002b4 	movhi	r4,10
   814dc:	21235c04 	addi	r4,r4,-29328
   814e0:	00828180 	call	82818 <puts>
			OSSchedUnlock();
   814e4:	008de640 	call	8de64 <OSSchedUnlock>
		}

		OSTimeDly(3000);
   814e8:	0102ee04 	movi	r4,3000
   814ec:	00950180 	call	95018 <OSTimeDly>
	}
   814f0:	003f4106 	br	811f8 <custom_scheduler+0x3c>

000814f4 <custom_task_handle>:
}

// Function for creating a task in the OS, and update the data structure task_info
// The new task has the lowest priority among the existing tasks
void custom_task_handle(int task_num, int num_active_task,
		scheduler_info_struct scheduler_info[], task_info_struct task_info[]) {
   814f4:	deffe504 	addi	sp,sp,-108
   814f8:	dfc01a15 	stw	ra,104(sp)
   814fc:	df001915 	stw	fp,100(sp)
   81500:	dd001815 	stw	r20,96(sp)
   81504:	dcc01715 	stw	r19,92(sp)
   81508:	dc801615 	stw	r18,88(sp)
   8150c:	dc401515 	stw	r17,84(sp)
   81510:	dc001415 	stw	r16,80(sp)
   81514:	df001404 	addi	fp,sp,80
   81518:	e13ffa15 	stw	r4,-24(fp)
   8151c:	e17ffb15 	stw	r5,-20(fp)
   81520:	e1bffc15 	stw	r6,-16(fp)
   81524:	e1fffd15 	stw	r7,-12(fp)
	//int i;
	int t;
	int k;
	int kick_this_prio;
	int num_task_created;
	INT8U return_code = OS_NO_ERR;
   81528:	e03ff105 	stb	zero,-60(fp)
	int lowest_priority_assign[4];

	num_task_created = 0;
   8152c:	e03ff215 	stw	zero,-56(fp)





	if (new_born_and_kicked[task_num] == 1){//START NEW BORN AND KICKED excuse our wierd terms but this means that the function needs to be newly created BUT with lowest priority
   81530:	e0bffa17 	ldw	r2,-24(fp)
   81534:	00c002b4 	movhi	r3,10
   81538:	18db3e04 	addi	r3,r3,27896
   8153c:	1085883a 	add	r2,r2,r2
   81540:	1085883a 	add	r2,r2,r2
   81544:	10c5883a 	add	r2,r2,r3
   81548:	10800017 	ldw	r2,0(r2)
   8154c:	10800058 	cmpnei	r2,r2,1
   81550:	10011f1e 	bne	r2,zero,819d0 <custom_task_handle+0x4dc>

		printf("Creating task(s) in the OS ...\n");
   81554:	010002b4 	movhi	r4,10
   81558:	21236204 	addi	r4,r4,-29304
   8155c:	00828180 	call	82818 <puts>
			task_info[task_num].execution_time = rand() % (1750-1000)+1000;
   81560:	e13ffa17 	ldw	r4,-24(fp)
   81564:	01400304 	movi	r5,12
   81568:	008257c0 	call	8257c <__mulsi3>
   8156c:	1007883a 	mov	r3,r2
   81570:	e0bffd17 	ldw	r2,-12(fp)
   81574:	18a1883a 	add	r16,r3,r2
   81578:	00828480 	call	82848 <rand>
   8157c:	1009883a 	mov	r4,r2
   81580:	0140bb84 	movi	r5,750
   81584:	008250c0 	call	8250c <__modsi3>
   81588:	1080fa04 	addi	r2,r2,1000
   8158c:	80800115 	stw	r2,4(r16)
			task_info[task_num].os_delay =rand() % OS_DELAY_LIMIT + 1;
   81590:	e13ffa17 	ldw	r4,-24(fp)
   81594:	01400304 	movi	r5,12
   81598:	008257c0 	call	8257c <__mulsi3>
   8159c:	1007883a 	mov	r3,r2
   815a0:	e0bffd17 	ldw	r2,-12(fp)
   815a4:	18a1883a 	add	r16,r3,r2
   815a8:	00828480 	call	82848 <rand>
   815ac:	1009883a 	mov	r4,r2
   815b0:	01400144 	movi	r5,5
   815b4:	008250c0 	call	8250c <__modsi3>
   815b8:	10800044 	addi	r2,r2,1
   815bc:	80800215 	stw	r2,8(r16)
			task_info[task_num].priority = num_active_task;//num_active_task + num_task_created;
   815c0:	e13ffa17 	ldw	r4,-24(fp)
   815c4:	01400304 	movi	r5,12
   815c8:	008257c0 	call	8257c <__mulsi3>
   815cc:	1007883a 	mov	r3,r2
   815d0:	e0bffd17 	ldw	r2,-12(fp)
   815d4:	1887883a 	add	r3,r3,r2
   815d8:	e0bffb17 	ldw	r2,-20(fp)
   815dc:	18800015 	stw	r2,0(r3)

			scheduler_info[num_active_task].valid = 1;
   815e0:	e13ffb17 	ldw	r4,-20(fp)
   815e4:	01400304 	movi	r5,12
   815e8:	008257c0 	call	8257c <__mulsi3>
   815ec:	1007883a 	mov	r3,r2
   815f0:	e0bffc17 	ldw	r2,-16(fp)
   815f4:	1887883a 	add	r3,r3,r2
   815f8:	00800044 	movi	r2,1
   815fc:	18800015 	stw	r2,0(r3)
			scheduler_info[num_active_task].period = rand() % (12000-10000)+10000;
   81600:	e13ffb17 	ldw	r4,-20(fp)
   81604:	01400304 	movi	r5,12
   81608:	008257c0 	call	8257c <__mulsi3>
   8160c:	1007883a 	mov	r3,r2
   81610:	e0bffc17 	ldw	r2,-16(fp)
   81614:	18a1883a 	add	r16,r3,r2
   81618:	00828480 	call	82848 <rand>
   8161c:	1009883a 	mov	r4,r2
   81620:	0141f404 	movi	r5,2000
   81624:	008250c0 	call	8250c <__modsi3>
   81628:	1089c404 	addi	r2,r2,10000
   8162c:	80800215 	stw	r2,8(r16)
			scheduler_info[num_active_task].id = task_num;
   81630:	e13ffb17 	ldw	r4,-20(fp)
   81634:	01400304 	movi	r5,12
   81638:	008257c0 	call	8257c <__mulsi3>
   8163c:	1007883a 	mov	r3,r2
   81640:	e0bffc17 	ldw	r2,-16(fp)
   81644:	1887883a 	add	r3,r3,r2
   81648:	e0bffa17 	ldw	r2,-24(fp)
   8164c:	18800115 	stw	r2,4(r3)
//					"-Creating periodic_task%d: execution_time_tick = %d, os_delay_time = %d: priority (%d)\n",
//					task_num, task_info[task_num].execution_time,
//					task_info[task_num].os_delay, 0);

			// Create the task in the OS
			printf("\n--------\nWe are creating task %d with priority %d. It should have the lowest of all current priorities\n--------\n",task_num, TASK_START_PRIORITY+num_active_task);
   81650:	e0bffb17 	ldw	r2,-20(fp)
   81654:	11800284 	addi	r6,r2,10
   81658:	010002b4 	movhi	r4,10
   8165c:	21236a04 	addi	r4,r4,-29272
   81660:	e17ffa17 	ldw	r5,-24(fp)
   81664:	00827000 	call	82700 <printf>
			switch (task_num) {
   81668:	e0bffa17 	ldw	r2,-24(fp)
   8166c:	e0bffe15 	stw	r2,-8(fp)
   81670:	e0fffe17 	ldw	r3,-8(fp)
   81674:	18800060 	cmpeqi	r2,r3,1
   81678:	1000371e 	bne	r2,zero,81758 <custom_task_handle+0x264>
   8167c:	e0fffe17 	ldw	r3,-8(fp)
   81680:	188000a0 	cmpeqi	r2,r3,2
   81684:	1000641e 	bne	r2,zero,81818 <custom_task_handle+0x324>
   81688:	e0fffe17 	ldw	r3,-8(fp)
   8168c:	1805003a 	cmpeq	r2,r3,zero
   81690:	1000011e 	bne	r2,zero,81698 <custom_task_handle+0x1a4>
   81694:	00009006 	br	818d8 <custom_task_handle+0x3e4>
			case 0:
				return_code = OSTaskCreateExt(periodic_task0, &task_info[task_num],
   81698:	e13ffa17 	ldw	r4,-24(fp)
   8169c:	01400304 	movi	r5,12
   816a0:	008257c0 	call	8257c <__mulsi3>
   816a4:	1007883a 	mov	r3,r2
   816a8:	e0bffd17 	ldw	r2,-12(fp)
   816ac:	18a1883a 	add	r16,r3,r2
   816b0:	e0bffa17 	ldw	r2,-24(fp)
   816b4:	1004937a 	slli	r2,r2,13
   816b8:	1007883a 	mov	r3,r2
   816bc:	008002b4 	movhi	r2,10
   816c0:	10baaf04 	addi	r2,r2,-5444
   816c4:	1087ff04 	addi	r2,r2,8188
   816c8:	18a3883a 	add	r17,r3,r2
   816cc:	e0bffb17 	ldw	r2,-20(fp)
   816d0:	10800284 	addi	r2,r2,10
   816d4:	14803fcc 	andi	r18,r2,255
   816d8:	e0bffa17 	ldw	r2,-24(fp)
   816dc:	14ffffcc 	andi	r19,r2,65535
   816e0:	e0bffa17 	ldw	r2,-24(fp)
   816e4:	1004937a 	slli	r2,r2,13
   816e8:	1007883a 	mov	r3,r2
   816ec:	008002b4 	movhi	r2,10
   816f0:	10baaf04 	addi	r2,r2,-5444
   816f4:	1885883a 	add	r2,r3,r2
   816f8:	1029883a 	mov	r20,r2
   816fc:	e13ffa17 	ldw	r4,-24(fp)
   81700:	01401b04 	movi	r5,108
   81704:	008257c0 	call	8257c <__mulsi3>
   81708:	1007883a 	mov	r3,r2
   8170c:	008002b4 	movhi	r2,10
   81710:	109ad204 	addi	r2,r2,27464
   81714:	1887883a 	add	r3,r3,r2
   81718:	dcc00015 	stw	r19,0(sp)
   8171c:	dd000115 	stw	r20,4(sp)
   81720:	00820004 	movi	r2,2048
   81724:	d8800215 	stw	r2,8(sp)
   81728:	d8c00315 	stw	r3,12(sp)
   8172c:	d8000415 	stw	zero,16(sp)
   81730:	01000234 	movhi	r4,8
   81734:	2103a104 	addi	r4,r4,3716
   81738:	800b883a 	mov	r5,r16
   8173c:	880d883a 	mov	r6,r17
   81740:	900f883a 	mov	r7,r18
   81744:	0093d200 	call	93d20 <OSTaskCreateExt>
   81748:	e0bff105 	stb	r2,-60(fp)
						(void *) &periodic_task_stk[task_num][TASK_STACKSIZE
								- 1], TASK_START_PRIORITY+num_active_task, task_num,
						&periodic_task_stk[task_num][0], TASK_STACKSIZE,
						&periodic_task_tcb[task_num], 0);
				alt_ucosii_check_return_code(return_code);
   8174c:	e13ff103 	ldbu	r4,-60(fp)
   81750:	00805d00 	call	805d0 <alt_ucosii_check_return_code>
				break;
   81754:	00008f06 	br	81994 <custom_task_handle+0x4a0>
			case 1:
				return_code = OSTaskCreateExt(periodic_task1, &task_info[task_num],
   81758:	e13ffa17 	ldw	r4,-24(fp)
   8175c:	01400304 	movi	r5,12
   81760:	008257c0 	call	8257c <__mulsi3>
   81764:	1007883a 	mov	r3,r2
   81768:	e0bffd17 	ldw	r2,-12(fp)
   8176c:	18a1883a 	add	r16,r3,r2
   81770:	e0bffa17 	ldw	r2,-24(fp)
   81774:	1004937a 	slli	r2,r2,13
   81778:	1007883a 	mov	r3,r2
   8177c:	008002b4 	movhi	r2,10
   81780:	10baaf04 	addi	r2,r2,-5444
   81784:	1087ff04 	addi	r2,r2,8188
   81788:	18a3883a 	add	r17,r3,r2
   8178c:	e0bffb17 	ldw	r2,-20(fp)
   81790:	10800284 	addi	r2,r2,10
   81794:	14803fcc 	andi	r18,r2,255
   81798:	e0bffa17 	ldw	r2,-24(fp)
   8179c:	14ffffcc 	andi	r19,r2,65535
   817a0:	e0bffa17 	ldw	r2,-24(fp)
   817a4:	1004937a 	slli	r2,r2,13
   817a8:	1007883a 	mov	r3,r2
   817ac:	008002b4 	movhi	r2,10
   817b0:	10baaf04 	addi	r2,r2,-5444
   817b4:	1885883a 	add	r2,r3,r2
   817b8:	1029883a 	mov	r20,r2
   817bc:	e13ffa17 	ldw	r4,-24(fp)
   817c0:	01401b04 	movi	r5,108
   817c4:	008257c0 	call	8257c <__mulsi3>
   817c8:	1007883a 	mov	r3,r2
   817cc:	008002b4 	movhi	r2,10
   817d0:	109ad204 	addi	r2,r2,27464
   817d4:	1887883a 	add	r3,r3,r2
   817d8:	dcc00015 	stw	r19,0(sp)
   817dc:	dd000115 	stw	r20,4(sp)
   817e0:	00820004 	movi	r2,2048
   817e4:	d8800215 	stw	r2,8(sp)
   817e8:	d8c00315 	stw	r3,12(sp)
   817ec:	d8000415 	stw	zero,16(sp)
   817f0:	01000234 	movhi	r4,8
   817f4:	2103c504 	addi	r4,r4,3860
   817f8:	800b883a 	mov	r5,r16
   817fc:	880d883a 	mov	r6,r17
   81800:	900f883a 	mov	r7,r18
   81804:	0093d200 	call	93d20 <OSTaskCreateExt>
   81808:	e0bff105 	stb	r2,-60(fp)
						(void *) &periodic_task_stk[task_num][TASK_STACKSIZE - 1],
						TASK_START_PRIORITY+num_active_task, task_num,
						&periodic_task_stk[task_num][0], TASK_STACKSIZE,
						&periodic_task_tcb[task_num], 0);
				alt_ucosii_check_return_code(return_code);
   8180c:	e13ff103 	ldbu	r4,-60(fp)
   81810:	00805d00 	call	805d0 <alt_ucosii_check_return_code>
				break;
   81814:	00005f06 	br	81994 <custom_task_handle+0x4a0>
			case 2:
				return_code = OSTaskCreateExt(periodic_task2, &task_info[task_num],
   81818:	e13ffa17 	ldw	r4,-24(fp)
   8181c:	01400304 	movi	r5,12
   81820:	008257c0 	call	8257c <__mulsi3>
   81824:	1007883a 	mov	r3,r2
   81828:	e0bffd17 	ldw	r2,-12(fp)
   8182c:	18a1883a 	add	r16,r3,r2
   81830:	e0bffa17 	ldw	r2,-24(fp)
   81834:	1004937a 	slli	r2,r2,13
   81838:	1007883a 	mov	r3,r2
   8183c:	008002b4 	movhi	r2,10
   81840:	10baaf04 	addi	r2,r2,-5444
   81844:	1087ff04 	addi	r2,r2,8188
   81848:	18a3883a 	add	r17,r3,r2
   8184c:	e0bffb17 	ldw	r2,-20(fp)
   81850:	10800284 	addi	r2,r2,10
   81854:	14803fcc 	andi	r18,r2,255
   81858:	e0bffa17 	ldw	r2,-24(fp)
   8185c:	14ffffcc 	andi	r19,r2,65535
   81860:	e0bffa17 	ldw	r2,-24(fp)
   81864:	1004937a 	slli	r2,r2,13
   81868:	1007883a 	mov	r3,r2
   8186c:	008002b4 	movhi	r2,10
   81870:	10baaf04 	addi	r2,r2,-5444
   81874:	1885883a 	add	r2,r3,r2
   81878:	1029883a 	mov	r20,r2
   8187c:	e13ffa17 	ldw	r4,-24(fp)
   81880:	01401b04 	movi	r5,108
   81884:	008257c0 	call	8257c <__mulsi3>
   81888:	1007883a 	mov	r3,r2
   8188c:	008002b4 	movhi	r2,10
   81890:	109ad204 	addi	r2,r2,27464
   81894:	1887883a 	add	r3,r3,r2
   81898:	dcc00015 	stw	r19,0(sp)
   8189c:	dd000115 	stw	r20,4(sp)
   818a0:	00820004 	movi	r2,2048
   818a4:	d8800215 	stw	r2,8(sp)
   818a8:	d8c00315 	stw	r3,12(sp)
   818ac:	d8000415 	stw	zero,16(sp)
   818b0:	01000234 	movhi	r4,8
   818b4:	2103e904 	addi	r4,r4,4004
   818b8:	800b883a 	mov	r5,r16
   818bc:	880d883a 	mov	r6,r17
   818c0:	900f883a 	mov	r7,r18
   818c4:	0093d200 	call	93d20 <OSTaskCreateExt>
   818c8:	e0bff105 	stb	r2,-60(fp)
						(void *) &periodic_task_stk[task_num][TASK_STACKSIZE - 1],
						TASK_START_PRIORITY+num_active_task, task_num,
						&periodic_task_stk[task_num][0], TASK_STACKSIZE,
						&periodic_task_tcb[task_num], 0);
				alt_ucosii_check_return_code(return_code);
   818cc:	e13ff103 	ldbu	r4,-60(fp)
   818d0:	00805d00 	call	805d0 <alt_ucosii_check_return_code>
				break;
   818d4:	00002f06 	br	81994 <custom_task_handle+0x4a0>
			default:
				return_code = OSTaskCreateExt(periodic_task3, &task_info[task_num],
   818d8:	e13ffa17 	ldw	r4,-24(fp)
   818dc:	01400304 	movi	r5,12
   818e0:	008257c0 	call	8257c <__mulsi3>
   818e4:	1007883a 	mov	r3,r2
   818e8:	e0bffd17 	ldw	r2,-12(fp)
   818ec:	18a1883a 	add	r16,r3,r2
   818f0:	e0bffa17 	ldw	r2,-24(fp)
   818f4:	1004937a 	slli	r2,r2,13
   818f8:	1007883a 	mov	r3,r2
   818fc:	008002b4 	movhi	r2,10
   81900:	10baaf04 	addi	r2,r2,-5444
   81904:	1087ff04 	addi	r2,r2,8188
   81908:	18a3883a 	add	r17,r3,r2
   8190c:	e0bffb17 	ldw	r2,-20(fp)
   81910:	10800284 	addi	r2,r2,10
   81914:	14803fcc 	andi	r18,r2,255
   81918:	e0bffa17 	ldw	r2,-24(fp)
   8191c:	14ffffcc 	andi	r19,r2,65535
   81920:	e0bffa17 	ldw	r2,-24(fp)
   81924:	1004937a 	slli	r2,r2,13
   81928:	1007883a 	mov	r3,r2
   8192c:	008002b4 	movhi	r2,10
   81930:	10baaf04 	addi	r2,r2,-5444
   81934:	1885883a 	add	r2,r3,r2
   81938:	1029883a 	mov	r20,r2
   8193c:	e13ffa17 	ldw	r4,-24(fp)
   81940:	01401b04 	movi	r5,108
   81944:	008257c0 	call	8257c <__mulsi3>
   81948:	1007883a 	mov	r3,r2
   8194c:	008002b4 	movhi	r2,10
   81950:	109ad204 	addi	r2,r2,27464
   81954:	1887883a 	add	r3,r3,r2
   81958:	dcc00015 	stw	r19,0(sp)
   8195c:	dd000115 	stw	r20,4(sp)
   81960:	00820004 	movi	r2,2048
   81964:	d8800215 	stw	r2,8(sp)
   81968:	d8c00315 	stw	r3,12(sp)
   8196c:	d8000415 	stw	zero,16(sp)
   81970:	01000234 	movhi	r4,8
   81974:	21040d04 	addi	r4,r4,4148
   81978:	800b883a 	mov	r5,r16
   8197c:	880d883a 	mov	r6,r17
   81980:	900f883a 	mov	r7,r18
   81984:	0093d200 	call	93d20 <OSTaskCreateExt>
   81988:	e0bff105 	stb	r2,-60(fp)
						(void *) &periodic_task_stk[task_num][TASK_STACKSIZE - 1],
						TASK_START_PRIORITY+num_active_task, task_num,
						&periodic_task_stk[task_num][0], TASK_STACKSIZE,
						&periodic_task_tcb[task_num], 0);
				alt_ucosii_check_return_code(return_code);
   8198c:	e13ff103 	ldbu	r4,-60(fp)
   81990:	00805d00 	call	805d0 <alt_ucosii_check_return_code>
				break;
			}
			new_born[task_num] = 0;
   81994:	e0bffa17 	ldw	r2,-24(fp)
   81998:	00c002b4 	movhi	r3,10
   8199c:	18db5204 	addi	r3,r3,27976
   819a0:	1085883a 	add	r2,r2,r2
   819a4:	1085883a 	add	r2,r2,r2
   819a8:	10c5883a 	add	r2,r2,r3
   819ac:	10000015 	stw	zero,0(r2)
			new_born_and_kicked[task_num] = 0;
   819b0:	e0bffa17 	ldw	r2,-24(fp)
   819b4:	00c002b4 	movhi	r3,10
   819b8:	18db3e04 	addi	r3,r3,27896
   819bc:	1085883a 	add	r2,r2,r2
   819c0:	1085883a 	add	r2,r2,r2
   819c4:	10c5883a 	add	r2,r2,r3
   819c8:	10000015 	stw	zero,0(r2)
   819cc:	00027206 	br	82398 <custom_task_handle+0xea4>
	///////////////////////////////////////////////////////////////////////////////////////////////////
	///////////////////////////////////////////////////////////////////////////////////////////////////
	//CREATING TASKS WITH LOWEST PRIORITY
	///////////////////////////////////////////////////////////////////////////////////////////////////
	///////////////////////////////////////////////////////////////////////////////////////////////////
	else if (new_born[task_num] == 1) {//IF NEW CREATED TASK the function needs to be newly created but with HIGHEST priority
   819d0:	e0bffa17 	ldw	r2,-24(fp)
   819d4:	00c002b4 	movhi	r3,10
   819d8:	18db5204 	addi	r3,r3,27976
   819dc:	1085883a 	add	r2,r2,r2
   819e0:	1085883a 	add	r2,r2,r2
   819e4:	10c5883a 	add	r2,r2,r3
   819e8:	10800017 	ldw	r2,0(r2)
   819ec:	10800058 	cmpnei	r2,r2,1
   819f0:	10017c1e 	bne	r2,zero,81fe4 <custom_task_handle+0xaf0>

		for (k = 0; k < NUM_TASK; k++) {
   819f4:	e03ff415 	stw	zero,-48(fp)
   819f8:	00001606 	br	81a54 <custom_task_handle+0x560>
			scheduler_info_holder[k] = scheduler_info[k];
   819fc:	e4bff417 	ldw	r18,-48(fp)
   81a00:	e13ff417 	ldw	r4,-48(fp)
   81a04:	01400304 	movi	r5,12
   81a08:	008257c0 	call	8257c <__mulsi3>
   81a0c:	1007883a 	mov	r3,r2
   81a10:	e0bffc17 	ldw	r2,-16(fp)
   81a14:	18a1883a 	add	r16,r3,r2
   81a18:	044002b4 	movhi	r17,10
   81a1c:	8c5b4204 	addi	r17,r17,27912
   81a20:	9009883a 	mov	r4,r18
   81a24:	01400304 	movi	r5,12
   81a28:	008257c0 	call	8257c <__mulsi3>
   81a2c:	1447883a 	add	r3,r2,r17
   81a30:	80800017 	ldw	r2,0(r16)
   81a34:	18800015 	stw	r2,0(r3)
   81a38:	80800117 	ldw	r2,4(r16)
   81a3c:	18800115 	stw	r2,4(r3)
   81a40:	80800217 	ldw	r2,8(r16)
   81a44:	18800215 	stw	r2,8(r3)
	//CREATING TASKS WITH LOWEST PRIORITY
	///////////////////////////////////////////////////////////////////////////////////////////////////
	///////////////////////////////////////////////////////////////////////////////////////////////////
	else if (new_born[task_num] == 1) {//IF NEW CREATED TASK the function needs to be newly created but with HIGHEST priority

		for (k = 0; k < NUM_TASK; k++) {
   81a48:	e0bff417 	ldw	r2,-48(fp)
   81a4c:	10800044 	addi	r2,r2,1
   81a50:	e0bff415 	stw	r2,-48(fp)
   81a54:	e0bff417 	ldw	r2,-48(fp)
   81a58:	10800110 	cmplti	r2,r2,4
   81a5c:	103fe71e 	bne	r2,zero,819fc <custom_task_handle+0x508>
			scheduler_info_holder[k] = scheduler_info[k];
		}
		//////SHIFT ALL OTHER PRIORITIES DOWN
		//printf("\n\nENTER SHIFT algorithm:\n-------------------------------\n");

		for (t = 0; t < num_active_task; t++) {
   81a60:	e03ff515 	stw	zero,-44(fp)
   81a64:	00004d06 	br	81b9c <custom_task_handle+0x6a8>
//			printf(
//					"shifting the priority of Active task( %d ) from ( %d ) to ( %d )\n",
//					t, TASK_START_PRIORITY + t, TASK_START_PRIORITY
//							+ TEMP_SHIFT_OFFSET + t + 1);

			return_code = OSTaskChangePrio(TASK_START_PRIORITY + t,
   81a68:	e0bff517 	ldw	r2,-44(fp)
   81a6c:	10800284 	addi	r2,r2,10
   81a70:	11003fcc 	andi	r4,r2,255
   81a74:	e0bff517 	ldw	r2,-44(fp)
   81a78:	10800404 	addi	r2,r2,16
   81a7c:	11403fcc 	andi	r5,r2,255
   81a80:	00935d80 	call	935d8 <OSTaskChangePrio>
   81a84:	e0bff105 	stb	r2,-60(fp)
					TASK_START_PRIORITY + TEMP_SHIFT_OFFSET + t + 1);
			alt_ucosii_check_return_code(return_code);
   81a88:	e13ff103 	ldbu	r4,-60(fp)
   81a8c:	00805d00 	call	805d0 <alt_ucosii_check_return_code>

//			printf(
//					"\nwe are now shifting scheduler_info data\n----------------------\n");
			//printf("saving scheduler")
			scheduler_info[t + 1].valid = scheduler_info_holder[t].valid;
   81a90:	e13ff517 	ldw	r4,-44(fp)
   81a94:	01400304 	movi	r5,12
   81a98:	008257c0 	call	8257c <__mulsi3>
   81a9c:	1007883a 	mov	r3,r2
   81aa0:	e0bffc17 	ldw	r2,-16(fp)
   81aa4:	1885883a 	add	r2,r3,r2
   81aa8:	14400304 	addi	r17,r2,12
   81aac:	e13ff517 	ldw	r4,-44(fp)
   81ab0:	040002b4 	movhi	r16,10
   81ab4:	841b4204 	addi	r16,r16,27912
   81ab8:	01400304 	movi	r5,12
   81abc:	008257c0 	call	8257c <__mulsi3>
   81ac0:	1405883a 	add	r2,r2,r16
   81ac4:	10800017 	ldw	r2,0(r2)
   81ac8:	88800015 	stw	r2,0(r17)
			scheduler_info[t + 1].id = scheduler_info_holder[t].id;
   81acc:	e13ff517 	ldw	r4,-44(fp)
   81ad0:	01400304 	movi	r5,12
   81ad4:	008257c0 	call	8257c <__mulsi3>
   81ad8:	1007883a 	mov	r3,r2
   81adc:	e0bffc17 	ldw	r2,-16(fp)
   81ae0:	1885883a 	add	r2,r3,r2
   81ae4:	14400304 	addi	r17,r2,12
   81ae8:	e13ff517 	ldw	r4,-44(fp)
   81aec:	040002b4 	movhi	r16,10
   81af0:	841b4204 	addi	r16,r16,27912
   81af4:	01400304 	movi	r5,12
   81af8:	008257c0 	call	8257c <__mulsi3>
   81afc:	1405883a 	add	r2,r2,r16
   81b00:	10800104 	addi	r2,r2,4
   81b04:	10800017 	ldw	r2,0(r2)
   81b08:	88800115 	stw	r2,4(r17)
			scheduler_info[t + 1].period = scheduler_info_holder[t].period;
   81b0c:	e13ff517 	ldw	r4,-44(fp)
   81b10:	01400304 	movi	r5,12
   81b14:	008257c0 	call	8257c <__mulsi3>
   81b18:	1007883a 	mov	r3,r2
   81b1c:	e0bffc17 	ldw	r2,-16(fp)
   81b20:	1885883a 	add	r2,r3,r2
   81b24:	14400304 	addi	r17,r2,12
   81b28:	e13ff517 	ldw	r4,-44(fp)
   81b2c:	040002b4 	movhi	r16,10
   81b30:	841b4204 	addi	r16,r16,27912
   81b34:	01400304 	movi	r5,12
   81b38:	008257c0 	call	8257c <__mulsi3>
   81b3c:	1405883a 	add	r2,r2,r16
   81b40:	10800204 	addi	r2,r2,8
   81b44:	10800017 	ldw	r2,0(r2)
   81b48:	88800215 	stw	r2,8(r17)
			task_info[scheduler_info[t + 1].id].priority = t + 1;
   81b4c:	e13ff517 	ldw	r4,-44(fp)
   81b50:	01400304 	movi	r5,12
   81b54:	008257c0 	call	8257c <__mulsi3>
   81b58:	1007883a 	mov	r3,r2
   81b5c:	e0bffc17 	ldw	r2,-16(fp)
   81b60:	1885883a 	add	r2,r3,r2
   81b64:	10800304 	addi	r2,r2,12
   81b68:	10800117 	ldw	r2,4(r2)
   81b6c:	1009883a 	mov	r4,r2
   81b70:	01400304 	movi	r5,12
   81b74:	008257c0 	call	8257c <__mulsi3>
   81b78:	1007883a 	mov	r3,r2
   81b7c:	e0bffd17 	ldw	r2,-12(fp)
   81b80:	1887883a 	add	r3,r3,r2
   81b84:	e0bff517 	ldw	r2,-44(fp)
   81b88:	10800044 	addi	r2,r2,1
   81b8c:	18800015 	stw	r2,0(r3)
			scheduler_info_holder[k] = scheduler_info[k];
		}
		//////SHIFT ALL OTHER PRIORITIES DOWN
		//printf("\n\nENTER SHIFT algorithm:\n-------------------------------\n");

		for (t = 0; t < num_active_task; t++) {
   81b90:	e0bff517 	ldw	r2,-44(fp)
   81b94:	10800044 	addi	r2,r2,1
   81b98:	e0bff515 	stw	r2,-44(fp)
   81b9c:	e0fff517 	ldw	r3,-44(fp)
   81ba0:	e0bffb17 	ldw	r2,-20(fp)
   81ba4:	18bfb016 	blt	r3,r2,81a68 <custom_task_handle+0x574>
//					"\ndone shifting scheduler_info data\n----------------------\n");
		}
		//printf("\n\EXIT SHIFT algorithm:\n-------------------------------\n");

		//printf("Creating task(s) in the OS ...\n");
		task_info[task_num].execution_time = rand() % (1750-1000)+1000;
   81ba8:	e13ffa17 	ldw	r4,-24(fp)
   81bac:	01400304 	movi	r5,12
   81bb0:	008257c0 	call	8257c <__mulsi3>
   81bb4:	1007883a 	mov	r3,r2
   81bb8:	e0bffd17 	ldw	r2,-12(fp)
   81bbc:	18a1883a 	add	r16,r3,r2
   81bc0:	00828480 	call	82848 <rand>
   81bc4:	1009883a 	mov	r4,r2
   81bc8:	0140bb84 	movi	r5,750
   81bcc:	008250c0 	call	8250c <__modsi3>
   81bd0:	1080fa04 	addi	r2,r2,1000
   81bd4:	80800115 	stw	r2,4(r16)
		task_info[task_num].os_delay = rand() % OS_DELAY_LIMIT + 1;//rand() % (12000-10000)+10000;
   81bd8:	e13ffa17 	ldw	r4,-24(fp)
   81bdc:	01400304 	movi	r5,12
   81be0:	008257c0 	call	8257c <__mulsi3>
   81be4:	1007883a 	mov	r3,r2
   81be8:	e0bffd17 	ldw	r2,-12(fp)
   81bec:	18a1883a 	add	r16,r3,r2
   81bf0:	00828480 	call	82848 <rand>
   81bf4:	1009883a 	mov	r4,r2
   81bf8:	01400144 	movi	r5,5
   81bfc:	008250c0 	call	8250c <__modsi3>
   81c00:	10800044 	addi	r2,r2,1
   81c04:	80800215 	stw	r2,8(r16)
		task_info[task_num].priority = 0;//num_active_task + num_task_created;
   81c08:	e13ffa17 	ldw	r4,-24(fp)
   81c0c:	01400304 	movi	r5,12
   81c10:	008257c0 	call	8257c <__mulsi3>
   81c14:	1007883a 	mov	r3,r2
   81c18:	e0bffd17 	ldw	r2,-12(fp)
   81c1c:	1885883a 	add	r2,r3,r2
   81c20:	10000015 	stw	zero,0(r2)

		scheduler_info[0].valid = 1;
   81c24:	e0fffc17 	ldw	r3,-16(fp)
   81c28:	00800044 	movi	r2,1
   81c2c:	18800015 	stw	r2,0(r3)
		scheduler_info[0].period = rand() % (12000-10000)+10000;
   81c30:	00828480 	call	82848 <rand>
   81c34:	1009883a 	mov	r4,r2
   81c38:	0141f404 	movi	r5,2000
   81c3c:	008250c0 	call	8250c <__modsi3>
   81c40:	10c9c404 	addi	r3,r2,10000
   81c44:	e0bffc17 	ldw	r2,-16(fp)
   81c48:	10c00215 	stw	r3,8(r2)
		scheduler_info[0].id = task_num;
   81c4c:	e0fffc17 	ldw	r3,-16(fp)
   81c50:	e0bffa17 	ldw	r2,-24(fp)
   81c54:	18800115 	stw	r2,4(r3)
//				"-Creating periodic_task%d: execution_time_tick = %d, os_delay_time = %d: priority (%d)\n",
//				task_num, task_info[task_num].execution_time,
//				task_info[task_num].os_delay, 0);

		// Create the task in the OS
		printf("\n--------\nWe are creating task %d with priority %d. It should have the HIGHEST of all current priorities\n--------\n",task_num, TASK_START_PRIORITY);
   81c58:	010002b4 	movhi	r4,10
   81c5c:	21238704 	addi	r4,r4,-29156
   81c60:	e17ffa17 	ldw	r5,-24(fp)
   81c64:	01800284 	movi	r6,10
   81c68:	00827000 	call	82700 <printf>

		switch (task_num) {
   81c6c:	e0bffa17 	ldw	r2,-24(fp)
   81c70:	e0bfff15 	stw	r2,-4(fp)
   81c74:	e0ffff17 	ldw	r3,-4(fp)
   81c78:	18800060 	cmpeqi	r2,r3,1
   81c7c:	1000341e 	bne	r2,zero,81d50 <custom_task_handle+0x85c>
   81c80:	e0ffff17 	ldw	r3,-4(fp)
   81c84:	188000a0 	cmpeqi	r2,r3,2
   81c88:	10005e1e 	bne	r2,zero,81e04 <custom_task_handle+0x910>
   81c8c:	e0ffff17 	ldw	r3,-4(fp)
   81c90:	1805003a 	cmpeq	r2,r3,zero
   81c94:	1000011e 	bne	r2,zero,81c9c <custom_task_handle+0x7a8>
   81c98:	00008706 	br	81eb8 <custom_task_handle+0x9c4>
		case 0:
			return_code = OSTaskCreateExt(periodic_task0, &task_info[task_num],
   81c9c:	e13ffa17 	ldw	r4,-24(fp)
   81ca0:	01400304 	movi	r5,12
   81ca4:	008257c0 	call	8257c <__mulsi3>
   81ca8:	1007883a 	mov	r3,r2
   81cac:	e0bffd17 	ldw	r2,-12(fp)
   81cb0:	18a1883a 	add	r16,r3,r2
   81cb4:	e0bffa17 	ldw	r2,-24(fp)
   81cb8:	1004937a 	slli	r2,r2,13
   81cbc:	1007883a 	mov	r3,r2
   81cc0:	008002b4 	movhi	r2,10
   81cc4:	10baaf04 	addi	r2,r2,-5444
   81cc8:	1087ff04 	addi	r2,r2,8188
   81ccc:	18a3883a 	add	r17,r3,r2
   81cd0:	e0bffa17 	ldw	r2,-24(fp)
   81cd4:	14bfffcc 	andi	r18,r2,65535
   81cd8:	e0bffa17 	ldw	r2,-24(fp)
   81cdc:	1004937a 	slli	r2,r2,13
   81ce0:	1007883a 	mov	r3,r2
   81ce4:	008002b4 	movhi	r2,10
   81ce8:	10baaf04 	addi	r2,r2,-5444
   81cec:	1885883a 	add	r2,r3,r2
   81cf0:	1027883a 	mov	r19,r2
   81cf4:	e13ffa17 	ldw	r4,-24(fp)
   81cf8:	01401b04 	movi	r5,108
   81cfc:	008257c0 	call	8257c <__mulsi3>
   81d00:	1007883a 	mov	r3,r2
   81d04:	008002b4 	movhi	r2,10
   81d08:	109ad204 	addi	r2,r2,27464
   81d0c:	1887883a 	add	r3,r3,r2
   81d10:	dc800015 	stw	r18,0(sp)
   81d14:	dcc00115 	stw	r19,4(sp)
   81d18:	00820004 	movi	r2,2048
   81d1c:	d8800215 	stw	r2,8(sp)
   81d20:	d8c00315 	stw	r3,12(sp)
   81d24:	d8000415 	stw	zero,16(sp)
   81d28:	01000234 	movhi	r4,8
   81d2c:	2103a104 	addi	r4,r4,3716
   81d30:	800b883a 	mov	r5,r16
   81d34:	880d883a 	mov	r6,r17
   81d38:	01c00284 	movi	r7,10
   81d3c:	0093d200 	call	93d20 <OSTaskCreateExt>
   81d40:	e0bff105 	stb	r2,-60(fp)
					(void *) &periodic_task_stk[task_num][TASK_STACKSIZE
							- 1], TASK_START_PRIORITY, task_num,
					&periodic_task_stk[task_num][0], TASK_STACKSIZE,
					&periodic_task_tcb[task_num], 0);
			alt_ucosii_check_return_code(return_code);
   81d44:	e13ff103 	ldbu	r4,-60(fp)
   81d48:	00805d00 	call	805d0 <alt_ucosii_check_return_code>
			break;
   81d4c:	00008606 	br	81f68 <custom_task_handle+0xa74>
		case 1:
			return_code = OSTaskCreateExt(periodic_task1, &task_info[task_num],
   81d50:	e13ffa17 	ldw	r4,-24(fp)
   81d54:	01400304 	movi	r5,12
   81d58:	008257c0 	call	8257c <__mulsi3>
   81d5c:	1007883a 	mov	r3,r2
   81d60:	e0bffd17 	ldw	r2,-12(fp)
   81d64:	18a1883a 	add	r16,r3,r2
   81d68:	e0bffa17 	ldw	r2,-24(fp)
   81d6c:	1004937a 	slli	r2,r2,13
   81d70:	1007883a 	mov	r3,r2
   81d74:	008002b4 	movhi	r2,10
   81d78:	10baaf04 	addi	r2,r2,-5444
   81d7c:	1087ff04 	addi	r2,r2,8188
   81d80:	18a3883a 	add	r17,r3,r2
   81d84:	e0bffa17 	ldw	r2,-24(fp)
   81d88:	14bfffcc 	andi	r18,r2,65535
   81d8c:	e0bffa17 	ldw	r2,-24(fp)
   81d90:	1004937a 	slli	r2,r2,13
   81d94:	1007883a 	mov	r3,r2
   81d98:	008002b4 	movhi	r2,10
   81d9c:	10baaf04 	addi	r2,r2,-5444
   81da0:	1885883a 	add	r2,r3,r2
   81da4:	1027883a 	mov	r19,r2
   81da8:	e13ffa17 	ldw	r4,-24(fp)
   81dac:	01401b04 	movi	r5,108
   81db0:	008257c0 	call	8257c <__mulsi3>
   81db4:	1007883a 	mov	r3,r2
   81db8:	008002b4 	movhi	r2,10
   81dbc:	109ad204 	addi	r2,r2,27464
   81dc0:	1887883a 	add	r3,r3,r2
   81dc4:	dc800015 	stw	r18,0(sp)
   81dc8:	dcc00115 	stw	r19,4(sp)
   81dcc:	00820004 	movi	r2,2048
   81dd0:	d8800215 	stw	r2,8(sp)
   81dd4:	d8c00315 	stw	r3,12(sp)
   81dd8:	d8000415 	stw	zero,16(sp)
   81ddc:	01000234 	movhi	r4,8
   81de0:	2103c504 	addi	r4,r4,3860
   81de4:	800b883a 	mov	r5,r16
   81de8:	880d883a 	mov	r6,r17
   81dec:	01c00284 	movi	r7,10
   81df0:	0093d200 	call	93d20 <OSTaskCreateExt>
   81df4:	e0bff105 	stb	r2,-60(fp)
					(void *) &periodic_task_stk[task_num][TASK_STACKSIZE - 1],
					TASK_START_PRIORITY, task_num,
					&periodic_task_stk[task_num][0], TASK_STACKSIZE,
					&periodic_task_tcb[task_num], 0);
			alt_ucosii_check_return_code(return_code);
   81df8:	e13ff103 	ldbu	r4,-60(fp)
   81dfc:	00805d00 	call	805d0 <alt_ucosii_check_return_code>
			break;
   81e00:	00005906 	br	81f68 <custom_task_handle+0xa74>
		case 2:
			return_code = OSTaskCreateExt(periodic_task2, &task_info[task_num],
   81e04:	e13ffa17 	ldw	r4,-24(fp)
   81e08:	01400304 	movi	r5,12
   81e0c:	008257c0 	call	8257c <__mulsi3>
   81e10:	1007883a 	mov	r3,r2
   81e14:	e0bffd17 	ldw	r2,-12(fp)
   81e18:	18a1883a 	add	r16,r3,r2
   81e1c:	e0bffa17 	ldw	r2,-24(fp)
   81e20:	1004937a 	slli	r2,r2,13
   81e24:	1007883a 	mov	r3,r2
   81e28:	008002b4 	movhi	r2,10
   81e2c:	10baaf04 	addi	r2,r2,-5444
   81e30:	1087ff04 	addi	r2,r2,8188
   81e34:	18a3883a 	add	r17,r3,r2
   81e38:	e0bffa17 	ldw	r2,-24(fp)
   81e3c:	14bfffcc 	andi	r18,r2,65535
   81e40:	e0bffa17 	ldw	r2,-24(fp)
   81e44:	1004937a 	slli	r2,r2,13
   81e48:	1007883a 	mov	r3,r2
   81e4c:	008002b4 	movhi	r2,10
   81e50:	10baaf04 	addi	r2,r2,-5444
   81e54:	1885883a 	add	r2,r3,r2
   81e58:	1027883a 	mov	r19,r2
   81e5c:	e13ffa17 	ldw	r4,-24(fp)
   81e60:	01401b04 	movi	r5,108
   81e64:	008257c0 	call	8257c <__mulsi3>
   81e68:	1007883a 	mov	r3,r2
   81e6c:	008002b4 	movhi	r2,10
   81e70:	109ad204 	addi	r2,r2,27464
   81e74:	1887883a 	add	r3,r3,r2
   81e78:	dc800015 	stw	r18,0(sp)
   81e7c:	dcc00115 	stw	r19,4(sp)
   81e80:	00820004 	movi	r2,2048
   81e84:	d8800215 	stw	r2,8(sp)
   81e88:	d8c00315 	stw	r3,12(sp)
   81e8c:	d8000415 	stw	zero,16(sp)
   81e90:	01000234 	movhi	r4,8
   81e94:	2103e904 	addi	r4,r4,4004
   81e98:	800b883a 	mov	r5,r16
   81e9c:	880d883a 	mov	r6,r17
   81ea0:	01c00284 	movi	r7,10
   81ea4:	0093d200 	call	93d20 <OSTaskCreateExt>
   81ea8:	e0bff105 	stb	r2,-60(fp)
					(void *) &periodic_task_stk[task_num][TASK_STACKSIZE - 1],
					TASK_START_PRIORITY, task_num,
					&periodic_task_stk[task_num][0], TASK_STACKSIZE,
					&periodic_task_tcb[task_num], 0);
			alt_ucosii_check_return_code(return_code);
   81eac:	e13ff103 	ldbu	r4,-60(fp)
   81eb0:	00805d00 	call	805d0 <alt_ucosii_check_return_code>
			break;
   81eb4:	00002c06 	br	81f68 <custom_task_handle+0xa74>
		default:
			return_code = OSTaskCreateExt(periodic_task3, &task_info[task_num],
   81eb8:	e13ffa17 	ldw	r4,-24(fp)
   81ebc:	01400304 	movi	r5,12
   81ec0:	008257c0 	call	8257c <__mulsi3>
   81ec4:	1007883a 	mov	r3,r2
   81ec8:	e0bffd17 	ldw	r2,-12(fp)
   81ecc:	18a1883a 	add	r16,r3,r2
   81ed0:	e0bffa17 	ldw	r2,-24(fp)
   81ed4:	1004937a 	slli	r2,r2,13
   81ed8:	1007883a 	mov	r3,r2
   81edc:	008002b4 	movhi	r2,10
   81ee0:	10baaf04 	addi	r2,r2,-5444
   81ee4:	1087ff04 	addi	r2,r2,8188
   81ee8:	18a3883a 	add	r17,r3,r2
   81eec:	e0bffa17 	ldw	r2,-24(fp)
   81ef0:	14bfffcc 	andi	r18,r2,65535
   81ef4:	e0bffa17 	ldw	r2,-24(fp)
   81ef8:	1004937a 	slli	r2,r2,13
   81efc:	1007883a 	mov	r3,r2
   81f00:	008002b4 	movhi	r2,10
   81f04:	10baaf04 	addi	r2,r2,-5444
   81f08:	1885883a 	add	r2,r3,r2
   81f0c:	1027883a 	mov	r19,r2
   81f10:	e13ffa17 	ldw	r4,-24(fp)
   81f14:	01401b04 	movi	r5,108
   81f18:	008257c0 	call	8257c <__mulsi3>
   81f1c:	1007883a 	mov	r3,r2
   81f20:	008002b4 	movhi	r2,10
   81f24:	109ad204 	addi	r2,r2,27464
   81f28:	1887883a 	add	r3,r3,r2
   81f2c:	dc800015 	stw	r18,0(sp)
   81f30:	dcc00115 	stw	r19,4(sp)
   81f34:	00820004 	movi	r2,2048
   81f38:	d8800215 	stw	r2,8(sp)
   81f3c:	d8c00315 	stw	r3,12(sp)
   81f40:	d8000415 	stw	zero,16(sp)
   81f44:	01000234 	movhi	r4,8
   81f48:	21040d04 	addi	r4,r4,4148
   81f4c:	800b883a 	mov	r5,r16
   81f50:	880d883a 	mov	r6,r17
   81f54:	01c00284 	movi	r7,10
   81f58:	0093d200 	call	93d20 <OSTaskCreateExt>
   81f5c:	e0bff105 	stb	r2,-60(fp)
					(void *) &periodic_task_stk[task_num][TASK_STACKSIZE - 1],
					TASK_START_PRIORITY, task_num,
					&periodic_task_stk[task_num][0], TASK_STACKSIZE,
					&periodic_task_tcb[task_num], 0);
			alt_ucosii_check_return_code(return_code);
   81f60:	e13ff103 	ldbu	r4,-60(fp)
   81f64:	00805d00 	call	805d0 <alt_ucosii_check_return_code>
			break;
		}

		for (t = num_active_task - 1; t >= 0; t--) {
   81f68:	e0bffb17 	ldw	r2,-20(fp)
   81f6c:	10bfffc4 	addi	r2,r2,-1
   81f70:	e0bff515 	stw	r2,-44(fp)
   81f74:	00000d06 	br	81fac <custom_task_handle+0xab8>
//			//printf("\NThe t value is: %d and the num of active tasks is %d\n", t, num_active_task);
//			printf(
//					"\nshifting the priority of Active task( %d ) back from ( %d ) to ( %d )\n",
//					t, TASK_START_PRIORITY + TEMP_SHIFT_OFFSET + t + 1,
//					TASK_START_PRIORITY + t + 1);
			return_code = OSTaskChangePrio(TASK_START_PRIORITY
   81f78:	e0bff517 	ldw	r2,-44(fp)
   81f7c:	10800404 	addi	r2,r2,16
   81f80:	11003fcc 	andi	r4,r2,255
   81f84:	e0bff517 	ldw	r2,-44(fp)
   81f88:	108002c4 	addi	r2,r2,11
   81f8c:	11403fcc 	andi	r5,r2,255
   81f90:	00935d80 	call	935d8 <OSTaskChangePrio>
   81f94:	e0bff105 	stb	r2,-60(fp)
					+ TEMP_SHIFT_OFFSET + t + 1, TASK_START_PRIORITY + t + 1);
			alt_ucosii_check_return_code(return_code);
   81f98:	e13ff103 	ldbu	r4,-60(fp)
   81f9c:	00805d00 	call	805d0 <alt_ucosii_check_return_code>
					&periodic_task_tcb[task_num], 0);
			alt_ucosii_check_return_code(return_code);
			break;
		}

		for (t = num_active_task - 1; t >= 0; t--) {
   81fa0:	e0bff517 	ldw	r2,-44(fp)
   81fa4:	10bfffc4 	addi	r2,r2,-1
   81fa8:	e0bff515 	stw	r2,-44(fp)
   81fac:	e0bff517 	ldw	r2,-44(fp)
   81fb0:	1004403a 	cmpge	r2,r2,zero
   81fb4:	103ff01e 	bne	r2,zero,81f78 <custom_task_handle+0xa84>
			return_code = OSTaskChangePrio(TASK_START_PRIORITY
					+ TEMP_SHIFT_OFFSET + t + 1, TASK_START_PRIORITY + t + 1);
			alt_ucosii_check_return_code(return_code);
		}

		new_born[task_num] = 0;
   81fb8:	e0bffa17 	ldw	r2,-24(fp)
   81fbc:	00c002b4 	movhi	r3,10
   81fc0:	18db5204 	addi	r3,r3,27976
   81fc4:	1085883a 	add	r2,r2,r2
   81fc8:	1085883a 	add	r2,r2,r2
   81fcc:	10c5883a 	add	r2,r2,r3
   81fd0:	10000015 	stw	zero,0(r2)
		num_task_created++;
   81fd4:	e0bff217 	ldw	r2,-56(fp)
   81fd8:	10800044 	addi	r2,r2,1
   81fdc:	e0bff215 	stw	r2,-56(fp)
   81fe0:	0000ed06 	br	82398 <custom_task_handle+0xea4>
	else {//task is already created, it must be shifted to lowest priority
//		printf(
//				"Task #%d is not a newborn aka this is a SUBSEQUENT PRESS!!\n\n",
//				task_num);

		kick_this_prio = task_info[task_num].priority + 10;
   81fe4:	e13ffa17 	ldw	r4,-24(fp)
   81fe8:	01400304 	movi	r5,12
   81fec:	008257c0 	call	8257c <__mulsi3>
   81ff0:	1007883a 	mov	r3,r2
   81ff4:	e0bffd17 	ldw	r2,-12(fp)
   81ff8:	1885883a 	add	r2,r3,r2
   81ffc:	10800017 	ldw	r2,0(r2)
   82000:	10800284 	addi	r2,r2,10
   82004:	e0bff315 	stw	r2,-52(fp)

		if(kick_this_prio-10==num_active_task-1){
   82008:	e0bff317 	ldw	r2,-52(fp)
   8200c:	10fffd84 	addi	r3,r2,-10
   82010:	e0bffb17 	ldw	r2,-20(fp)
   82014:	10bfffc4 	addi	r2,r2,-1
   82018:	1880041e 	bne	r3,r2,8202c <custom_task_handle+0xb38>
			printf("This task is ALREADY the lowest priority, dont do anything\n");
   8201c:	010002b4 	movhi	r4,10
   82020:	2123a404 	addi	r4,r4,-29040
   82024:	00828180 	call	82818 <puts>
			return;//do nothing
   82028:	0000db06 	br	82398 <custom_task_handle+0xea4>
		}else{


		//printf("We are kicking the task with priority %d to the bottom\n", kick_this_prio);
			printf("\n--------\nWe are kicking task %d with priority %d. It should have the lowest of all current priorities aka %d\n--------\n",task_num, kick_this_prio,  num_active_task+10-1);
   8202c:	e0bffb17 	ldw	r2,-20(fp)
   82030:	11c00244 	addi	r7,r2,9
   82034:	010002b4 	movhi	r4,10
   82038:	2123b304 	addi	r4,r4,-28980
   8203c:	e17ffa17 	ldw	r5,-24(fp)
   82040:	e1bff317 	ldw	r6,-52(fp)
   82044:	00827000 	call	82700 <printf>

		//need to find the priority of the task that we need to shift lowest

		//	if multiple buttons were pressed between 2 runs of the scheduler, we need to find most recent presses and assign those highest priority

		for (k = 0; k < NUM_TASK; k++) {
   82048:	e03ff415 	stw	zero,-48(fp)
   8204c:	00001606 	br	820a8 <custom_task_handle+0xbb4>
			scheduler_info_holder[k] = scheduler_info[k];
   82050:	e4bff417 	ldw	r18,-48(fp)
   82054:	e13ff417 	ldw	r4,-48(fp)
   82058:	01400304 	movi	r5,12
   8205c:	008257c0 	call	8257c <__mulsi3>
   82060:	1007883a 	mov	r3,r2
   82064:	e0bffc17 	ldw	r2,-16(fp)
   82068:	18a1883a 	add	r16,r3,r2
   8206c:	044002b4 	movhi	r17,10
   82070:	8c5b4204 	addi	r17,r17,27912
   82074:	9009883a 	mov	r4,r18
   82078:	01400304 	movi	r5,12
   8207c:	008257c0 	call	8257c <__mulsi3>
   82080:	1447883a 	add	r3,r2,r17
   82084:	80800017 	ldw	r2,0(r16)
   82088:	18800015 	stw	r2,0(r3)
   8208c:	80800117 	ldw	r2,4(r16)
   82090:	18800115 	stw	r2,4(r3)
   82094:	80800217 	ldw	r2,8(r16)
   82098:	18800215 	stw	r2,8(r3)

		//need to find the priority of the task that we need to shift lowest

		//	if multiple buttons were pressed between 2 runs of the scheduler, we need to find most recent presses and assign those highest priority

		for (k = 0; k < NUM_TASK; k++) {
   8209c:	e0bff417 	ldw	r2,-48(fp)
   820a0:	10800044 	addi	r2,r2,1
   820a4:	e0bff415 	stw	r2,-48(fp)
   820a8:	e0bff417 	ldw	r2,-48(fp)
   820ac:	10800110 	cmplti	r2,r2,4
   820b0:	103fe71e 	bne	r2,zero,82050 <custom_task_handle+0xb5c>
//		return_code = OSTaskChangePrio(kick_this_prio ,15);
//		alt_ucosii_check_return_code(return_code);

		//printf("\nwe are now shifting scheduler_info data for prio to kick\n----------------------\n");
		//printf("saving scheduler")
		scheduler_info[num_active_task-1].valid = scheduler_info_holder[kick_this_prio-10].valid;
   820b4:	e13ffb17 	ldw	r4,-20(fp)
   820b8:	01400304 	movi	r5,12
   820bc:	008257c0 	call	8257c <__mulsi3>
   820c0:	1007883a 	mov	r3,r2
   820c4:	e0bffc17 	ldw	r2,-16(fp)
   820c8:	1885883a 	add	r2,r3,r2
   820cc:	147ffd04 	addi	r17,r2,-12
   820d0:	e0bff317 	ldw	r2,-52(fp)
   820d4:	113ffd84 	addi	r4,r2,-10
   820d8:	040002b4 	movhi	r16,10
   820dc:	841b4204 	addi	r16,r16,27912
   820e0:	01400304 	movi	r5,12
   820e4:	008257c0 	call	8257c <__mulsi3>
   820e8:	1405883a 	add	r2,r2,r16
   820ec:	10800017 	ldw	r2,0(r2)
   820f0:	88800015 	stw	r2,0(r17)
		scheduler_info[num_active_task-1].id = scheduler_info_holder[kick_this_prio-10].id;
   820f4:	e13ffb17 	ldw	r4,-20(fp)
   820f8:	01400304 	movi	r5,12
   820fc:	008257c0 	call	8257c <__mulsi3>
   82100:	1007883a 	mov	r3,r2
   82104:	e0bffc17 	ldw	r2,-16(fp)
   82108:	1885883a 	add	r2,r3,r2
   8210c:	147ffd04 	addi	r17,r2,-12
   82110:	e0bff317 	ldw	r2,-52(fp)
   82114:	113ffd84 	addi	r4,r2,-10
   82118:	040002b4 	movhi	r16,10
   8211c:	841b4204 	addi	r16,r16,27912
   82120:	01400304 	movi	r5,12
   82124:	008257c0 	call	8257c <__mulsi3>
   82128:	1405883a 	add	r2,r2,r16
   8212c:	10800104 	addi	r2,r2,4
   82130:	10800017 	ldw	r2,0(r2)
   82134:	88800115 	stw	r2,4(r17)
		scheduler_info[num_active_task-1].period = scheduler_info_holder[kick_this_prio-10].period;
   82138:	e13ffb17 	ldw	r4,-20(fp)
   8213c:	01400304 	movi	r5,12
   82140:	008257c0 	call	8257c <__mulsi3>
   82144:	1007883a 	mov	r3,r2
   82148:	e0bffc17 	ldw	r2,-16(fp)
   8214c:	1885883a 	add	r2,r3,r2
   82150:	147ffd04 	addi	r17,r2,-12
   82154:	e0bff317 	ldw	r2,-52(fp)
   82158:	113ffd84 	addi	r4,r2,-10
   8215c:	040002b4 	movhi	r16,10
   82160:	841b4204 	addi	r16,r16,27912
   82164:	01400304 	movi	r5,12
   82168:	008257c0 	call	8257c <__mulsi3>
   8216c:	1405883a 	add	r2,r2,r16
   82170:	10800204 	addi	r2,r2,8
   82174:	10800017 	ldw	r2,0(r2)
   82178:	88800215 	stw	r2,8(r17)
		task_info[scheduler_info[num_active_task-1].id].priority = num_active_task-1;
   8217c:	e13ffb17 	ldw	r4,-20(fp)
   82180:	01400304 	movi	r5,12
   82184:	008257c0 	call	8257c <__mulsi3>
   82188:	1007883a 	mov	r3,r2
   8218c:	e0bffc17 	ldw	r2,-16(fp)
   82190:	1885883a 	add	r2,r3,r2
   82194:	10bffd04 	addi	r2,r2,-12
   82198:	10800117 	ldw	r2,4(r2)
   8219c:	1009883a 	mov	r4,r2
   821a0:	01400304 	movi	r5,12
   821a4:	008257c0 	call	8257c <__mulsi3>
   821a8:	1007883a 	mov	r3,r2
   821ac:	e0bffd17 	ldw	r2,-12(fp)
   821b0:	1887883a 	add	r3,r3,r2
   821b4:	e0bffb17 	ldw	r2,-20(fp)
   821b8:	10bfffc4 	addi	r2,r2,-1
   821bc:	18800015 	stw	r2,0(r3)
		//printf("\ndone shifting scheduler_info data for prio to kick\n----------------------\n");
		//////SHIFT ALL OTHER PRIORITIES DOWN
		//printf("\nENTER SHIFT algorithm:\n-------------------------------\n");


				for (t = kick_this_prio-10; t < num_active_task; t++) {
   821c0:	e0bff317 	ldw	r2,-52(fp)
   821c4:	10bffd84 	addi	r2,r2,-10
   821c8:	e0bff515 	stw	r2,-44(fp)
   821cc:	00005106 	br	82314 <custom_task_handle+0xe20>

						//printf("shifting active task: %d out of %d\n", t,num_active_task - 1);
						//printf("shifting the priority of Active task( %d ) from ( %d ) to ( %d )\n",t, TASK_START_PRIORITY + t, TASK_START_PRIORITY+TEMP_SHIFT_OFFSET+t);

						return_code = OSTaskChangePrio(TASK_START_PRIORITY + t,TASK_START_PRIORITY+TEMP_SHIFT_OFFSET+t);
   821d0:	e0bff517 	ldw	r2,-44(fp)
   821d4:	10800284 	addi	r2,r2,10
   821d8:	11003fcc 	andi	r4,r2,255
   821dc:	e0bff517 	ldw	r2,-44(fp)
   821e0:	108003c4 	addi	r2,r2,15
   821e4:	11403fcc 	andi	r5,r2,255
   821e8:	00935d80 	call	935d8 <OSTaskChangePrio>
   821ec:	e0bff105 	stb	r2,-60(fp)
						alt_ucosii_check_return_code(return_code);
   821f0:	e13ff103 	ldbu	r4,-60(fp)
   821f4:	00805d00 	call	805d0 <alt_ucosii_check_return_code>

										//printf("\nwe are now shifting scheduler_info data\n----------------------\n");
										//printf("saving scheduler")
						if(t != kick_this_prio-10){
   821f8:	e0bff317 	ldw	r2,-52(fp)
   821fc:	10fffd84 	addi	r3,r2,-10
   82200:	e0bff517 	ldw	r2,-44(fp)
   82204:	18804026 	beq	r3,r2,82308 <custom_task_handle+0xe14>
										scheduler_info[t - 1].valid = scheduler_info_holder[t].valid;
   82208:	e13ff517 	ldw	r4,-44(fp)
   8220c:	01400304 	movi	r5,12
   82210:	008257c0 	call	8257c <__mulsi3>
   82214:	1007883a 	mov	r3,r2
   82218:	e0bffc17 	ldw	r2,-16(fp)
   8221c:	1885883a 	add	r2,r3,r2
   82220:	147ffd04 	addi	r17,r2,-12
   82224:	e13ff517 	ldw	r4,-44(fp)
   82228:	040002b4 	movhi	r16,10
   8222c:	841b4204 	addi	r16,r16,27912
   82230:	01400304 	movi	r5,12
   82234:	008257c0 	call	8257c <__mulsi3>
   82238:	1405883a 	add	r2,r2,r16
   8223c:	10800017 	ldw	r2,0(r2)
   82240:	88800015 	stw	r2,0(r17)
										scheduler_info[t - 1].id = scheduler_info_holder[t].id;
   82244:	e13ff517 	ldw	r4,-44(fp)
   82248:	01400304 	movi	r5,12
   8224c:	008257c0 	call	8257c <__mulsi3>
   82250:	1007883a 	mov	r3,r2
   82254:	e0bffc17 	ldw	r2,-16(fp)
   82258:	1885883a 	add	r2,r3,r2
   8225c:	147ffd04 	addi	r17,r2,-12
   82260:	e13ff517 	ldw	r4,-44(fp)
   82264:	040002b4 	movhi	r16,10
   82268:	841b4204 	addi	r16,r16,27912
   8226c:	01400304 	movi	r5,12
   82270:	008257c0 	call	8257c <__mulsi3>
   82274:	1405883a 	add	r2,r2,r16
   82278:	10800104 	addi	r2,r2,4
   8227c:	10800017 	ldw	r2,0(r2)
   82280:	88800115 	stw	r2,4(r17)
										scheduler_info[t - 1].period = scheduler_info_holder[t].period;
   82284:	e13ff517 	ldw	r4,-44(fp)
   82288:	01400304 	movi	r5,12
   8228c:	008257c0 	call	8257c <__mulsi3>
   82290:	1007883a 	mov	r3,r2
   82294:	e0bffc17 	ldw	r2,-16(fp)
   82298:	1885883a 	add	r2,r3,r2
   8229c:	147ffd04 	addi	r17,r2,-12
   822a0:	e13ff517 	ldw	r4,-44(fp)
   822a4:	040002b4 	movhi	r16,10
   822a8:	841b4204 	addi	r16,r16,27912
   822ac:	01400304 	movi	r5,12
   822b0:	008257c0 	call	8257c <__mulsi3>
   822b4:	1405883a 	add	r2,r2,r16
   822b8:	10800204 	addi	r2,r2,8
   822bc:	10800017 	ldw	r2,0(r2)
   822c0:	88800215 	stw	r2,8(r17)
										task_info[scheduler_info[t - 1].id].priority = t-1 ;
   822c4:	e13ff517 	ldw	r4,-44(fp)
   822c8:	01400304 	movi	r5,12
   822cc:	008257c0 	call	8257c <__mulsi3>
   822d0:	1007883a 	mov	r3,r2
   822d4:	e0bffc17 	ldw	r2,-16(fp)
   822d8:	1885883a 	add	r2,r3,r2
   822dc:	10bffd04 	addi	r2,r2,-12
   822e0:	10800117 	ldw	r2,4(r2)
   822e4:	1009883a 	mov	r4,r2
   822e8:	01400304 	movi	r5,12
   822ec:	008257c0 	call	8257c <__mulsi3>
   822f0:	1007883a 	mov	r3,r2
   822f4:	e0bffd17 	ldw	r2,-12(fp)
   822f8:	1887883a 	add	r3,r3,r2
   822fc:	e0bff517 	ldw	r2,-44(fp)
   82300:	10bfffc4 	addi	r2,r2,-1
   82304:	18800015 	stw	r2,0(r3)
		//printf("\ndone shifting scheduler_info data for prio to kick\n----------------------\n");
		//////SHIFT ALL OTHER PRIORITIES DOWN
		//printf("\nENTER SHIFT algorithm:\n-------------------------------\n");


				for (t = kick_this_prio-10; t < num_active_task; t++) {
   82308:	e0bff517 	ldw	r2,-44(fp)
   8230c:	10800044 	addi	r2,r2,1
   82310:	e0bff515 	stw	r2,-44(fp)
   82314:	e0fff517 	ldw	r3,-44(fp)
   82318:	e0bffb17 	ldw	r2,-20(fp)
   8231c:	18bfac16 	blt	r3,r2,821d0 <custom_task_handle+0xcdc>
										//printf("\ndone shifting scheduler_info data\n----------------------\n");
										//printf("\n\EXIT SHIFT algorithm:\n-------------------------------\n");
						}
				}
				//printf("shifting the priority of kicked Active task( %d ) back from ( %d ) to ( %d )\n",kick_this_prio,kick_this_prio+TEMP_SHIFT_OFFSET,num_active_task-1);
				return_code = OSTaskChangePrio(kick_this_prio+TEMP_SHIFT_OFFSET,TASK_START_PRIORITY+num_active_task-1);
   82320:	e0bff317 	ldw	r2,-52(fp)
   82324:	10800144 	addi	r2,r2,5
   82328:	11003fcc 	andi	r4,r2,255
   8232c:	e0bffb17 	ldw	r2,-20(fp)
   82330:	10800244 	addi	r2,r2,9
   82334:	11403fcc 	andi	r5,r2,255
   82338:	00935d80 	call	935d8 <OSTaskChangePrio>
   8233c:	e0bff105 	stb	r2,-60(fp)
				alt_ucosii_check_return_code(return_code);
   82340:	e13ff103 	ldbu	r4,-60(fp)
   82344:	00805d00 	call	805d0 <alt_ucosii_check_return_code>
				for (t = kick_this_prio-10+1; t < num_active_task; t++) {
   82348:	e0bff317 	ldw	r2,-52(fp)
   8234c:	10bffdc4 	addi	r2,r2,-9
   82350:	e0bff515 	stw	r2,-44(fp)
   82354:	00000d06 	br	8238c <custom_task_handle+0xe98>

						//printf("shifting active task: %d out of %d\n", t,num_active_task - 1);
						//printf("shifting the priority of Active task( %d ) back from ( %d ) to ( %d )\n",t, TASK_START_PRIORITY+TEMP_SHIFT_OFFSET+t,TASK_START_PRIORITY + t-1);

						return_code = OSTaskChangePrio(TASK_START_PRIORITY+TEMP_SHIFT_OFFSET+t,TASK_START_PRIORITY + t-1);
   82358:	e0bff517 	ldw	r2,-44(fp)
   8235c:	108003c4 	addi	r2,r2,15
   82360:	11003fcc 	andi	r4,r2,255
   82364:	e0bff517 	ldw	r2,-44(fp)
   82368:	10800244 	addi	r2,r2,9
   8236c:	11403fcc 	andi	r5,r2,255
   82370:	00935d80 	call	935d8 <OSTaskChangePrio>
   82374:	e0bff105 	stb	r2,-60(fp)
						alt_ucosii_check_return_code(return_code);
   82378:	e13ff103 	ldbu	r4,-60(fp)
   8237c:	00805d00 	call	805d0 <alt_ucosii_check_return_code>
						}
				}
				//printf("shifting the priority of kicked Active task( %d ) back from ( %d ) to ( %d )\n",kick_this_prio,kick_this_prio+TEMP_SHIFT_OFFSET,num_active_task-1);
				return_code = OSTaskChangePrio(kick_this_prio+TEMP_SHIFT_OFFSET,TASK_START_PRIORITY+num_active_task-1);
				alt_ucosii_check_return_code(return_code);
				for (t = kick_this_prio-10+1; t < num_active_task; t++) {
   82380:	e0bff517 	ldw	r2,-44(fp)
   82384:	10800044 	addi	r2,r2,1
   82388:	e0bff515 	stw	r2,-44(fp)
   8238c:	e0fff517 	ldw	r3,-44(fp)
   82390:	e0bffb17 	ldw	r2,-20(fp)
   82394:	18bff016 	blt	r3,r2,82358 <custom_task_handle+0xe64>


	}
	}

}
   82398:	e037883a 	mov	sp,fp
   8239c:	dfc00617 	ldw	ra,24(sp)
   823a0:	df000517 	ldw	fp,20(sp)
   823a4:	dd000417 	ldw	r20,16(sp)
   823a8:	dcc00317 	ldw	r19,12(sp)
   823ac:	dc800217 	ldw	r18,8(sp)
   823b0:	dc400117 	ldw	r17,4(sp)
   823b4:	dc000017 	ldw	r16,0(sp)
   823b8:	dec00704 	addi	sp,sp,28
   823bc:	f800283a 	ret

000823c0 <custom_delay>:

// Function for occupying the processor for the specified number of clock ticks
// to simulate custom delay while keeping the task in the processor
void custom_delay(int ticks) {
   823c0:	defffc04 	addi	sp,sp,-16
   823c4:	dfc00315 	stw	ra,12(sp)
   823c8:	df000215 	stw	fp,8(sp)
   823cc:	df000204 	addi	fp,sp,8
   823d0:	e13fff15 	stw	r4,-4(fp)
	INT32U cur_tick;
	ticks--;
   823d4:	e0bfff17 	ldw	r2,-4(fp)
   823d8:	10bfffc4 	addi	r2,r2,-1
   823dc:	e0bfff15 	stw	r2,-4(fp)
	cur_tick = OSTimeGet();
   823e0:	00955040 	call	95504 <OSTimeGet>
   823e4:	e0bffe15 	stw	r2,-8(fp)
	while (ticks > 0) {
   823e8:	00000906 	br	82410 <custom_delay+0x50>
		if (OSTimeGet() > cur_tick) {
   823ec:	00955040 	call	95504 <OSTimeGet>
   823f0:	1007883a 	mov	r3,r2
   823f4:	e0bffe17 	ldw	r2,-8(fp)
   823f8:	10c0052e 	bgeu	r2,r3,82410 <custom_delay+0x50>
			ticks--;
   823fc:	e0bfff17 	ldw	r2,-4(fp)
   82400:	10bfffc4 	addi	r2,r2,-1
   82404:	e0bfff15 	stw	r2,-4(fp)
			cur_tick = OSTimeGet();
   82408:	00955040 	call	95504 <OSTimeGet>
   8240c:	e0bffe15 	stw	r2,-8(fp)
// to simulate custom delay while keeping the task in the processor
void custom_delay(int ticks) {
	INT32U cur_tick;
	ticks--;
	cur_tick = OSTimeGet();
	while (ticks > 0) {
   82410:	e0bfff17 	ldw	r2,-4(fp)
   82414:	10800048 	cmpgei	r2,r2,1
   82418:	103ff41e 	bne	r2,zero,823ec <custom_delay+0x2c>
		if (OSTimeGet() > cur_tick) {
			ticks--;
			cur_tick = OSTimeGet();
		}
	}
}
   8241c:	e037883a 	mov	sp,fp
   82420:	dfc00117 	ldw	ra,4(sp)
   82424:	df000017 	ldw	fp,0(sp)
   82428:	dec00204 	addi	sp,sp,8
   8242c:	f800283a 	ret

00082430 <udivmodsi4>:
   82430:	29001b2e 	bgeu	r5,r4,824a0 <udivmodsi4+0x70>
   82434:	28001a16 	blt	r5,zero,824a0 <udivmodsi4+0x70>
   82438:	00800044 	movi	r2,1
   8243c:	0007883a 	mov	r3,zero
   82440:	01c007c4 	movi	r7,31
   82444:	00000306 	br	82454 <udivmodsi4+0x24>
   82448:	19c01326 	beq	r3,r7,82498 <udivmodsi4+0x68>
   8244c:	18c00044 	addi	r3,r3,1
   82450:	28000416 	blt	r5,zero,82464 <udivmodsi4+0x34>
   82454:	294b883a 	add	r5,r5,r5
   82458:	1085883a 	add	r2,r2,r2
   8245c:	293ffa36 	bltu	r5,r4,82448 <udivmodsi4+0x18>
   82460:	10000d26 	beq	r2,zero,82498 <udivmodsi4+0x68>
   82464:	0007883a 	mov	r3,zero
   82468:	21400236 	bltu	r4,r5,82474 <udivmodsi4+0x44>
   8246c:	2149c83a 	sub	r4,r4,r5
   82470:	1886b03a 	or	r3,r3,r2
   82474:	1004d07a 	srli	r2,r2,1
   82478:	280ad07a 	srli	r5,r5,1
   8247c:	103ffa1e 	bne	r2,zero,82468 <udivmodsi4+0x38>
   82480:	30000226 	beq	r6,zero,8248c <udivmodsi4+0x5c>
   82484:	2005883a 	mov	r2,r4
   82488:	f800283a 	ret
   8248c:	1809883a 	mov	r4,r3
   82490:	2005883a 	mov	r2,r4
   82494:	f800283a 	ret
   82498:	0007883a 	mov	r3,zero
   8249c:	003ff806 	br	82480 <udivmodsi4+0x50>
   824a0:	00800044 	movi	r2,1
   824a4:	0007883a 	mov	r3,zero
   824a8:	003fef06 	br	82468 <udivmodsi4+0x38>

000824ac <__divsi3>:
   824ac:	defffe04 	addi	sp,sp,-8
   824b0:	dc000015 	stw	r16,0(sp)
   824b4:	dfc00115 	stw	ra,4(sp)
   824b8:	0021883a 	mov	r16,zero
   824bc:	20000c16 	blt	r4,zero,824f0 <__divsi3+0x44>
   824c0:	000d883a 	mov	r6,zero
   824c4:	28000e16 	blt	r5,zero,82500 <__divsi3+0x54>
   824c8:	00824300 	call	82430 <udivmodsi4>
   824cc:	1007883a 	mov	r3,r2
   824d0:	8005003a 	cmpeq	r2,r16,zero
   824d4:	1000011e 	bne	r2,zero,824dc <__divsi3+0x30>
   824d8:	00c7c83a 	sub	r3,zero,r3
   824dc:	1805883a 	mov	r2,r3
   824e0:	dfc00117 	ldw	ra,4(sp)
   824e4:	dc000017 	ldw	r16,0(sp)
   824e8:	dec00204 	addi	sp,sp,8
   824ec:	f800283a 	ret
   824f0:	0109c83a 	sub	r4,zero,r4
   824f4:	04000044 	movi	r16,1
   824f8:	000d883a 	mov	r6,zero
   824fc:	283ff20e 	bge	r5,zero,824c8 <__divsi3+0x1c>
   82500:	014bc83a 	sub	r5,zero,r5
   82504:	8021003a 	cmpeq	r16,r16,zero
   82508:	003fef06 	br	824c8 <__divsi3+0x1c>

0008250c <__modsi3>:
   8250c:	deffff04 	addi	sp,sp,-4
   82510:	dfc00015 	stw	ra,0(sp)
   82514:	01800044 	movi	r6,1
   82518:	2807883a 	mov	r3,r5
   8251c:	20000416 	blt	r4,zero,82530 <__modsi3+0x24>
   82520:	28000c16 	blt	r5,zero,82554 <__modsi3+0x48>
   82524:	dfc00017 	ldw	ra,0(sp)
   82528:	dec00104 	addi	sp,sp,4
   8252c:	00824301 	jmpi	82430 <udivmodsi4>
   82530:	0109c83a 	sub	r4,zero,r4
   82534:	28000b16 	blt	r5,zero,82564 <__modsi3+0x58>
   82538:	180b883a 	mov	r5,r3
   8253c:	01800044 	movi	r6,1
   82540:	00824300 	call	82430 <udivmodsi4>
   82544:	0085c83a 	sub	r2,zero,r2
   82548:	dfc00017 	ldw	ra,0(sp)
   8254c:	dec00104 	addi	sp,sp,4
   82550:	f800283a 	ret
   82554:	014bc83a 	sub	r5,zero,r5
   82558:	dfc00017 	ldw	ra,0(sp)
   8255c:	dec00104 	addi	sp,sp,4
   82560:	00824301 	jmpi	82430 <udivmodsi4>
   82564:	0147c83a 	sub	r3,zero,r5
   82568:	003ff306 	br	82538 <__modsi3+0x2c>

0008256c <__udivsi3>:
   8256c:	000d883a 	mov	r6,zero
   82570:	00824301 	jmpi	82430 <udivmodsi4>

00082574 <__umodsi3>:
   82574:	01800044 	movi	r6,1
   82578:	00824301 	jmpi	82430 <udivmodsi4>

0008257c <__mulsi3>:
   8257c:	20000a26 	beq	r4,zero,825a8 <__mulsi3+0x2c>
   82580:	0007883a 	mov	r3,zero
   82584:	2080004c 	andi	r2,r4,1
   82588:	1005003a 	cmpeq	r2,r2,zero
   8258c:	2008d07a 	srli	r4,r4,1
   82590:	1000011e 	bne	r2,zero,82598 <__mulsi3+0x1c>
   82594:	1947883a 	add	r3,r3,r5
   82598:	294b883a 	add	r5,r5,r5
   8259c:	203ff91e 	bne	r4,zero,82584 <__mulsi3+0x8>
   825a0:	1805883a 	mov	r2,r3
   825a4:	f800283a 	ret
   825a8:	0007883a 	mov	r3,zero
   825ac:	1805883a 	mov	r2,r3
   825b0:	f800283a 	ret

000825b4 <fprintf>:
   825b4:	defffc04 	addi	sp,sp,-16
   825b8:	dfc00115 	stw	ra,4(sp)
   825bc:	d9800215 	stw	r6,8(sp)
   825c0:	d9c00315 	stw	r7,12(sp)
   825c4:	d8800204 	addi	r2,sp,8
   825c8:	100d883a 	mov	r6,r2
   825cc:	d8800015 	stw	r2,0(sp)
   825d0:	00848500 	call	84850 <__vfprintf_internal>
   825d4:	dfc00117 	ldw	ra,4(sp)
   825d8:	dec00404 	addi	sp,sp,16
   825dc:	f800283a 	ret

000825e0 <_fprintf_r>:
   825e0:	defffd04 	addi	sp,sp,-12
   825e4:	2807883a 	mov	r3,r5
   825e8:	dfc00115 	stw	ra,4(sp)
   825ec:	d9c00215 	stw	r7,8(sp)
   825f0:	d8800204 	addi	r2,sp,8
   825f4:	300b883a 	mov	r5,r6
   825f8:	1809883a 	mov	r4,r3
   825fc:	100d883a 	mov	r6,r2
   82600:	d8800015 	stw	r2,0(sp)
   82604:	00848500 	call	84850 <__vfprintf_internal>
   82608:	dfc00117 	ldw	ra,4(sp)
   8260c:	dec00304 	addi	sp,sp,12
   82610:	f800283a 	ret

00082614 <_fwrite_r>:
   82614:	defff604 	addi	sp,sp,-40
   82618:	dc000515 	stw	r16,20(sp)
   8261c:	d9400015 	stw	r5,0(sp)
   82620:	2021883a 	mov	r16,r4
   82624:	300b883a 	mov	r5,r6
   82628:	3809883a 	mov	r4,r7
   8262c:	dcc00815 	stw	r19,32(sp)
   82630:	dc800715 	stw	r18,28(sp)
   82634:	dc400615 	stw	r17,24(sp)
   82638:	dfc00915 	stw	ra,36(sp)
   8263c:	3825883a 	mov	r18,r7
   82640:	3027883a 	mov	r19,r6
   82644:	008257c0 	call	8257c <__mulsi3>
   82648:	1023883a 	mov	r17,r2
   8264c:	00800044 	movi	r2,1
   82650:	d8800315 	stw	r2,12(sp)
   82654:	dc400115 	stw	r17,4(sp)
   82658:	dc400415 	stw	r17,16(sp)
   8265c:	dec00215 	stw	sp,8(sp)
   82660:	80000326 	beq	r16,zero,82670 <_fwrite_r+0x5c>
   82664:	80800e17 	ldw	r2,56(r16)
   82668:	8009883a 	mov	r4,r16
   8266c:	10001226 	beq	r2,zero,826b8 <_fwrite_r+0xa4>
   82670:	d9400a17 	ldw	r5,40(sp)
   82674:	8009883a 	mov	r4,r16
   82678:	d9800204 	addi	r6,sp,8
   8267c:	0086b0c0 	call	86b0c <__sfvwrite_r>
   82680:	980b883a 	mov	r5,r19
   82684:	10000426 	beq	r2,zero,82698 <_fwrite_r+0x84>
   82688:	d9000417 	ldw	r4,16(sp)
   8268c:	8909c83a 	sub	r4,r17,r4
   82690:	008256c0 	call	8256c <__udivsi3>
   82694:	1025883a 	mov	r18,r2
   82698:	9005883a 	mov	r2,r18
   8269c:	dfc00917 	ldw	ra,36(sp)
   826a0:	dcc00817 	ldw	r19,32(sp)
   826a4:	dc800717 	ldw	r18,28(sp)
   826a8:	dc400617 	ldw	r17,24(sp)
   826ac:	dc000517 	ldw	r16,20(sp)
   826b0:	dec00a04 	addi	sp,sp,40
   826b4:	f800283a 	ret
   826b8:	00864400 	call	86440 <__sinit>
   826bc:	003fec06 	br	82670 <_fwrite_r+0x5c>

000826c0 <fwrite>:
   826c0:	008002b4 	movhi	r2,10
   826c4:	10ab8704 	addi	r2,r2,-20964
   826c8:	2017883a 	mov	r11,r4
   826cc:	11000017 	ldw	r4,0(r2)
   826d0:	defffe04 	addi	sp,sp,-8
   826d4:	3013883a 	mov	r9,r6
   826d8:	2805883a 	mov	r2,r5
   826dc:	d9c00015 	stw	r7,0(sp)
   826e0:	580b883a 	mov	r5,r11
   826e4:	100d883a 	mov	r6,r2
   826e8:	480f883a 	mov	r7,r9
   826ec:	dfc00115 	stw	ra,4(sp)
   826f0:	00826140 	call	82614 <_fwrite_r>
   826f4:	dfc00117 	ldw	ra,4(sp)
   826f8:	dec00204 	addi	sp,sp,8
   826fc:	f800283a 	ret

00082700 <printf>:
   82700:	defffb04 	addi	sp,sp,-20
   82704:	dfc00115 	stw	ra,4(sp)
   82708:	d9400215 	stw	r5,8(sp)
   8270c:	d9800315 	stw	r6,12(sp)
   82710:	d9c00415 	stw	r7,16(sp)
   82714:	008002b4 	movhi	r2,10
   82718:	10ab8704 	addi	r2,r2,-20964
   8271c:	10c00017 	ldw	r3,0(r2)
   82720:	200b883a 	mov	r5,r4
   82724:	d8800204 	addi	r2,sp,8
   82728:	19000217 	ldw	r4,8(r3)
   8272c:	100d883a 	mov	r6,r2
   82730:	d8800015 	stw	r2,0(sp)
   82734:	00848500 	call	84850 <__vfprintf_internal>
   82738:	dfc00117 	ldw	ra,4(sp)
   8273c:	dec00504 	addi	sp,sp,20
   82740:	f800283a 	ret

00082744 <_printf_r>:
   82744:	defffc04 	addi	sp,sp,-16
   82748:	dfc00115 	stw	ra,4(sp)
   8274c:	d9800215 	stw	r6,8(sp)
   82750:	d9c00315 	stw	r7,12(sp)
   82754:	280d883a 	mov	r6,r5
   82758:	21400217 	ldw	r5,8(r4)
   8275c:	d8c00204 	addi	r3,sp,8
   82760:	180f883a 	mov	r7,r3
   82764:	d8c00015 	stw	r3,0(sp)
   82768:	008298c0 	call	8298c <___vfprintf_internal_r>
   8276c:	dfc00117 	ldw	ra,4(sp)
   82770:	dec00404 	addi	sp,sp,16
   82774:	f800283a 	ret

00082778 <_puts_r>:
   82778:	defff604 	addi	sp,sp,-40
   8277c:	dc400715 	stw	r17,28(sp)
   82780:	2023883a 	mov	r17,r4
   82784:	2809883a 	mov	r4,r5
   82788:	dfc00915 	stw	ra,36(sp)
   8278c:	dcc00815 	stw	r19,32(sp)
   82790:	2827883a 	mov	r19,r5
   82794:	00828c00 	call	828c0 <strlen>
   82798:	89400217 	ldw	r5,8(r17)
   8279c:	00c002b4 	movhi	r3,10
   827a0:	18e3d204 	addi	r3,r3,-28856
   827a4:	01c00044 	movi	r7,1
   827a8:	12000044 	addi	r8,r2,1
   827ac:	d8c00515 	stw	r3,20(sp)
   827b0:	d9c00615 	stw	r7,24(sp)
   827b4:	d8c00304 	addi	r3,sp,12
   827b8:	01c00084 	movi	r7,2
   827bc:	8809883a 	mov	r4,r17
   827c0:	d80d883a 	mov	r6,sp
   827c4:	d8c00015 	stw	r3,0(sp)
   827c8:	dcc00315 	stw	r19,12(sp)
   827cc:	da000215 	stw	r8,8(sp)
   827d0:	d9c00115 	stw	r7,4(sp)
   827d4:	d8800415 	stw	r2,16(sp)
   827d8:	0086b0c0 	call	86b0c <__sfvwrite_r>
   827dc:	00ffffc4 	movi	r3,-1
   827e0:	10000626 	beq	r2,zero,827fc <_puts_r+0x84>
   827e4:	1805883a 	mov	r2,r3
   827e8:	dfc00917 	ldw	ra,36(sp)
   827ec:	dcc00817 	ldw	r19,32(sp)
   827f0:	dc400717 	ldw	r17,28(sp)
   827f4:	dec00a04 	addi	sp,sp,40
   827f8:	f800283a 	ret
   827fc:	00c00284 	movi	r3,10
   82800:	1805883a 	mov	r2,r3
   82804:	dfc00917 	ldw	ra,36(sp)
   82808:	dcc00817 	ldw	r19,32(sp)
   8280c:	dc400717 	ldw	r17,28(sp)
   82810:	dec00a04 	addi	sp,sp,40
   82814:	f800283a 	ret

00082818 <puts>:
   82818:	008002b4 	movhi	r2,10
   8281c:	10ab8704 	addi	r2,r2,-20964
   82820:	200b883a 	mov	r5,r4
   82824:	11000017 	ldw	r4,0(r2)
   82828:	00827781 	jmpi	82778 <_puts_r>

0008282c <srand>:
   8282c:	008002b4 	movhi	r2,10
   82830:	10ab8704 	addi	r2,r2,-20964
   82834:	11400017 	ldw	r5,0(r2)
   82838:	0007883a 	mov	r3,zero
   8283c:	28c02a15 	stw	r3,168(r5)
   82840:	29002915 	stw	r4,164(r5)
   82844:	f800283a 	ret

00082848 <rand>:
   82848:	defffe04 	addi	sp,sp,-8
   8284c:	008002b4 	movhi	r2,10
   82850:	10ab8704 	addi	r2,r2,-20964
   82854:	dc000015 	stw	r16,0(sp)
   82858:	14000017 	ldw	r16,0(r2)
   8285c:	dfc00115 	stw	ra,4(sp)
   82860:	00932574 	movhi	r2,19605
   82864:	109fcb44 	addi	r2,r2,32557
   82868:	82002917 	ldw	r8,164(r16)
   8286c:	82402a17 	ldw	r9,168(r16)
   82870:	00d614b4 	movhi	r3,22610
   82874:	18fd0b44 	addi	r3,r3,-3027
   82878:	4009883a 	mov	r4,r8
   8287c:	180f883a 	mov	r7,r3
   82880:	100d883a 	mov	r6,r2
   82884:	480b883a 	mov	r5,r9
   82888:	0089bcc0 	call	89bcc <__muldi3>
   8288c:	02000044 	movi	r8,1
   82890:	1209883a 	add	r4,r2,r8
   82894:	2095803a 	cmpltu	r10,r4,r2
   82898:	50d5883a 	add	r10,r10,r3
   8289c:	81002915 	stw	r4,164(r16)
   828a0:	01200034 	movhi	r4,32768
   828a4:	213fffc4 	addi	r4,r4,-1
   828a8:	2284703a 	and	r2,r4,r10
   828ac:	82802a15 	stw	r10,168(r16)
   828b0:	dfc00117 	ldw	ra,4(sp)
   828b4:	dc000017 	ldw	r16,0(sp)
   828b8:	dec00204 	addi	sp,sp,8
   828bc:	f800283a 	ret

000828c0 <strlen>:
   828c0:	208000cc 	andi	r2,r4,3
   828c4:	2011883a 	mov	r8,r4
   828c8:	1000161e 	bne	r2,zero,82924 <strlen+0x64>
   828cc:	20c00017 	ldw	r3,0(r4)
   828d0:	017fbff4 	movhi	r5,65279
   828d4:	297fbfc4 	addi	r5,r5,-257
   828d8:	01e02074 	movhi	r7,32897
   828dc:	39e02004 	addi	r7,r7,-32640
   828e0:	1945883a 	add	r2,r3,r5
   828e4:	11c4703a 	and	r2,r2,r7
   828e8:	00c6303a 	nor	r3,zero,r3
   828ec:	1886703a 	and	r3,r3,r2
   828f0:	18000c1e 	bne	r3,zero,82924 <strlen+0x64>
   828f4:	280d883a 	mov	r6,r5
   828f8:	380b883a 	mov	r5,r7
   828fc:	21000104 	addi	r4,r4,4
   82900:	20800017 	ldw	r2,0(r4)
   82904:	1187883a 	add	r3,r2,r6
   82908:	1946703a 	and	r3,r3,r5
   8290c:	0084303a 	nor	r2,zero,r2
   82910:	10c4703a 	and	r2,r2,r3
   82914:	103ff926 	beq	r2,zero,828fc <strlen+0x3c>
   82918:	20800007 	ldb	r2,0(r4)
   8291c:	10000326 	beq	r2,zero,8292c <strlen+0x6c>
   82920:	21000044 	addi	r4,r4,1
   82924:	20800007 	ldb	r2,0(r4)
   82928:	103ffd1e 	bne	r2,zero,82920 <strlen+0x60>
   8292c:	2205c83a 	sub	r2,r4,r8
   82930:	f800283a 	ret

00082934 <__sprint_r>:
   82934:	30800217 	ldw	r2,8(r6)
   82938:	defffe04 	addi	sp,sp,-8
   8293c:	dc000015 	stw	r16,0(sp)
   82940:	dfc00115 	stw	ra,4(sp)
   82944:	3021883a 	mov	r16,r6
   82948:	0007883a 	mov	r3,zero
   8294c:	1000061e 	bne	r2,zero,82968 <__sprint_r+0x34>
   82950:	1805883a 	mov	r2,r3
   82954:	30000115 	stw	zero,4(r6)
   82958:	dfc00117 	ldw	ra,4(sp)
   8295c:	dc000017 	ldw	r16,0(sp)
   82960:	dec00204 	addi	sp,sp,8
   82964:	f800283a 	ret
   82968:	0086b0c0 	call	86b0c <__sfvwrite_r>
   8296c:	1007883a 	mov	r3,r2
   82970:	1805883a 	mov	r2,r3
   82974:	80000115 	stw	zero,4(r16)
   82978:	80000215 	stw	zero,8(r16)
   8297c:	dfc00117 	ldw	ra,4(sp)
   82980:	dc000017 	ldw	r16,0(sp)
   82984:	dec00204 	addi	sp,sp,8
   82988:	f800283a 	ret

0008298c <___vfprintf_internal_r>:
   8298c:	defea404 	addi	sp,sp,-1392
   82990:	dd815815 	stw	r22,1376(sp)
   82994:	dc015215 	stw	r16,1352(sp)
   82998:	d9c15115 	stw	r7,1348(sp)
   8299c:	dfc15b15 	stw	ra,1388(sp)
   829a0:	df015a15 	stw	fp,1384(sp)
   829a4:	ddc15915 	stw	r23,1380(sp)
   829a8:	dd415715 	stw	r21,1372(sp)
   829ac:	dd015615 	stw	r20,1368(sp)
   829b0:	dcc15515 	stw	r19,1364(sp)
   829b4:	dc815415 	stw	r18,1360(sp)
   829b8:	dc415315 	stw	r17,1356(sp)
   829bc:	282d883a 	mov	r22,r5
   829c0:	3021883a 	mov	r16,r6
   829c4:	d9014f15 	stw	r4,1340(sp)
   829c8:	00871300 	call	87130 <_localeconv_r>
   829cc:	10800017 	ldw	r2,0(r2)
   829d0:	d9c15117 	ldw	r7,1348(sp)
   829d4:	d8814915 	stw	r2,1316(sp)
   829d8:	d8814f17 	ldw	r2,1340(sp)
   829dc:	10000226 	beq	r2,zero,829e8 <___vfprintf_internal_r+0x5c>
   829e0:	10800e17 	ldw	r2,56(r2)
   829e4:	10020d26 	beq	r2,zero,8321c <___vfprintf_internal_r+0x890>
   829e8:	b080030b 	ldhu	r2,12(r22)
   829ec:	1080020c 	andi	r2,r2,8
   829f0:	10020e26 	beq	r2,zero,8322c <___vfprintf_internal_r+0x8a0>
   829f4:	b0800417 	ldw	r2,16(r22)
   829f8:	10020c26 	beq	r2,zero,8322c <___vfprintf_internal_r+0x8a0>
   829fc:	b200030b 	ldhu	r8,12(r22)
   82a00:	00800284 	movi	r2,10
   82a04:	40c0068c 	andi	r3,r8,26
   82a08:	18802f1e 	bne	r3,r2,82ac8 <___vfprintf_internal_r+0x13c>
   82a0c:	b080038f 	ldh	r2,14(r22)
   82a10:	10002d16 	blt	r2,zero,82ac8 <___vfprintf_internal_r+0x13c>
   82a14:	b240038b 	ldhu	r9,14(r22)
   82a18:	b2800717 	ldw	r10,28(r22)
   82a1c:	b2c00917 	ldw	r11,36(r22)
   82a20:	d9014f17 	ldw	r4,1340(sp)
   82a24:	dc402904 	addi	r17,sp,164
   82a28:	d8804004 	addi	r2,sp,256
   82a2c:	00c10004 	movi	r3,1024
   82a30:	423fff4c 	andi	r8,r8,65533
   82a34:	800d883a 	mov	r6,r16
   82a38:	880b883a 	mov	r5,r17
   82a3c:	da002c0d 	sth	r8,176(sp)
   82a40:	da402c8d 	sth	r9,178(sp)
   82a44:	da803015 	stw	r10,192(sp)
   82a48:	dac03215 	stw	r11,200(sp)
   82a4c:	d8802d15 	stw	r2,180(sp)
   82a50:	d8c02e15 	stw	r3,184(sp)
   82a54:	d8802915 	stw	r2,164(sp)
   82a58:	d8c02b15 	stw	r3,172(sp)
   82a5c:	d8002f15 	stw	zero,188(sp)
   82a60:	008298c0 	call	8298c <___vfprintf_internal_r>
   82a64:	d8814b15 	stw	r2,1324(sp)
   82a68:	10000416 	blt	r2,zero,82a7c <___vfprintf_internal_r+0xf0>
   82a6c:	d9014f17 	ldw	r4,1340(sp)
   82a70:	880b883a 	mov	r5,r17
   82a74:	00861a80 	call	861a8 <_fflush_r>
   82a78:	1002321e 	bne	r2,zero,83344 <___vfprintf_internal_r+0x9b8>
   82a7c:	d8802c0b 	ldhu	r2,176(sp)
   82a80:	1080100c 	andi	r2,r2,64
   82a84:	10000326 	beq	r2,zero,82a94 <___vfprintf_internal_r+0x108>
   82a88:	b080030b 	ldhu	r2,12(r22)
   82a8c:	10801014 	ori	r2,r2,64
   82a90:	b080030d 	sth	r2,12(r22)
   82a94:	d8814b17 	ldw	r2,1324(sp)
   82a98:	dfc15b17 	ldw	ra,1388(sp)
   82a9c:	df015a17 	ldw	fp,1384(sp)
   82aa0:	ddc15917 	ldw	r23,1380(sp)
   82aa4:	dd815817 	ldw	r22,1376(sp)
   82aa8:	dd415717 	ldw	r21,1372(sp)
   82aac:	dd015617 	ldw	r20,1368(sp)
   82ab0:	dcc15517 	ldw	r19,1364(sp)
   82ab4:	dc815417 	ldw	r18,1360(sp)
   82ab8:	dc415317 	ldw	r17,1356(sp)
   82abc:	dc015217 	ldw	r16,1352(sp)
   82ac0:	dec15c04 	addi	sp,sp,1392
   82ac4:	f800283a 	ret
   82ac8:	0005883a 	mov	r2,zero
   82acc:	0007883a 	mov	r3,zero
   82ad0:	dd401904 	addi	r21,sp,100
   82ad4:	d8814215 	stw	r2,1288(sp)
   82ad8:	802f883a 	mov	r23,r16
   82adc:	d8c14315 	stw	r3,1292(sp)
   82ae0:	d8014b15 	stw	zero,1324(sp)
   82ae4:	d8014815 	stw	zero,1312(sp)
   82ae8:	d8014415 	stw	zero,1296(sp)
   82aec:	d8014715 	stw	zero,1308(sp)
   82af0:	dd400c15 	stw	r21,48(sp)
   82af4:	d8000e15 	stw	zero,56(sp)
   82af8:	d8000d15 	stw	zero,52(sp)
   82afc:	b8800007 	ldb	r2,0(r23)
   82b00:	10001926 	beq	r2,zero,82b68 <___vfprintf_internal_r+0x1dc>
   82b04:	00c00944 	movi	r3,37
   82b08:	10c01726 	beq	r2,r3,82b68 <___vfprintf_internal_r+0x1dc>
   82b0c:	b821883a 	mov	r16,r23
   82b10:	00000106 	br	82b18 <___vfprintf_internal_r+0x18c>
   82b14:	10c00326 	beq	r2,r3,82b24 <___vfprintf_internal_r+0x198>
   82b18:	84000044 	addi	r16,r16,1
   82b1c:	80800007 	ldb	r2,0(r16)
   82b20:	103ffc1e 	bne	r2,zero,82b14 <___vfprintf_internal_r+0x188>
   82b24:	85e7c83a 	sub	r19,r16,r23
   82b28:	98000e26 	beq	r19,zero,82b64 <___vfprintf_internal_r+0x1d8>
   82b2c:	dc800e17 	ldw	r18,56(sp)
   82b30:	dc400d17 	ldw	r17,52(sp)
   82b34:	008001c4 	movi	r2,7
   82b38:	94e5883a 	add	r18,r18,r19
   82b3c:	8c400044 	addi	r17,r17,1
   82b40:	adc00015 	stw	r23,0(r21)
   82b44:	dc800e15 	stw	r18,56(sp)
   82b48:	acc00115 	stw	r19,4(r21)
   82b4c:	dc400d15 	stw	r17,52(sp)
   82b50:	14428b16 	blt	r2,r17,83580 <___vfprintf_internal_r+0xbf4>
   82b54:	ad400204 	addi	r21,r21,8
   82b58:	d9014b17 	ldw	r4,1324(sp)
   82b5c:	24c9883a 	add	r4,r4,r19
   82b60:	d9014b15 	stw	r4,1324(sp)
   82b64:	802f883a 	mov	r23,r16
   82b68:	b8800007 	ldb	r2,0(r23)
   82b6c:	10013c26 	beq	r2,zero,83060 <___vfprintf_internal_r+0x6d4>
   82b70:	bdc00044 	addi	r23,r23,1
   82b74:	d8000405 	stb	zero,16(sp)
   82b78:	b8c00007 	ldb	r3,0(r23)
   82b7c:	04ffffc4 	movi	r19,-1
   82b80:	d8014c15 	stw	zero,1328(sp)
   82b84:	d8014a15 	stw	zero,1320(sp)
   82b88:	d8c14d15 	stw	r3,1332(sp)
   82b8c:	bdc00044 	addi	r23,r23,1
   82b90:	d9414d17 	ldw	r5,1332(sp)
   82b94:	00801604 	movi	r2,88
   82b98:	28fff804 	addi	r3,r5,-32
   82b9c:	10c06036 	bltu	r2,r3,82d20 <___vfprintf_internal_r+0x394>
   82ba0:	18c5883a 	add	r2,r3,r3
   82ba4:	1085883a 	add	r2,r2,r2
   82ba8:	00c00234 	movhi	r3,8
   82bac:	18caef04 	addi	r3,r3,11196
   82bb0:	10c5883a 	add	r2,r2,r3
   82bb4:	11000017 	ldw	r4,0(r2)
   82bb8:	2000683a 	jmp	r4
   82bbc:	00083b30 	cmpltui	zero,zero,8428
   82bc0:	00082d20 	cmpeqi	zero,zero,8372
   82bc4:	00082d20 	cmpeqi	zero,zero,8372
   82bc8:	00083b1c 	xori	zero,zero,8428
   82bcc:	00082d20 	cmpeqi	zero,zero,8372
   82bd0:	00082d20 	cmpeqi	zero,zero,8372
   82bd4:	00082d20 	cmpeqi	zero,zero,8372
   82bd8:	00082d20 	cmpeqi	zero,zero,8372
   82bdc:	00082d20 	cmpeqi	zero,zero,8372
   82be0:	00082d20 	cmpeqi	zero,zero,8372
   82be4:	000838fc 	xorhi	zero,zero,8419
   82be8:	00083b0c 	andi	zero,zero,8428
   82bec:	00082d20 	cmpeqi	zero,zero,8372
   82bf0:	00083914 	movui	zero,8420
   82bf4:	00083bb4 	movhi	zero,8430
   82bf8:	00082d20 	cmpeqi	zero,zero,8372
   82bfc:	00083ba0 	cmpeqi	zero,zero,8430
   82c00:	00083b5c 	xori	zero,zero,8429
   82c04:	00083b5c 	xori	zero,zero,8429
   82c08:	00083b5c 	xori	zero,zero,8429
   82c0c:	00083b5c 	xori	zero,zero,8429
   82c10:	00083b5c 	xori	zero,zero,8429
   82c14:	00083b5c 	xori	zero,zero,8429
   82c18:	00083b5c 	xori	zero,zero,8429
   82c1c:	00083b5c 	xori	zero,zero,8429
   82c20:	00083b5c 	xori	zero,zero,8429
   82c24:	00082d20 	cmpeqi	zero,zero,8372
   82c28:	00082d20 	cmpeqi	zero,zero,8372
   82c2c:	00082d20 	cmpeqi	zero,zero,8372
   82c30:	00082d20 	cmpeqi	zero,zero,8372
   82c34:	00082d20 	cmpeqi	zero,zero,8372
   82c38:	00082d20 	cmpeqi	zero,zero,8372
   82c3c:	00082d20 	cmpeqi	zero,zero,8372
   82c40:	00082d20 	cmpeqi	zero,zero,8372
   82c44:	00082d20 	cmpeqi	zero,zero,8372
   82c48:	00082d20 	cmpeqi	zero,zero,8372
   82c4c:	00083378 	rdprs	zero,zero,8397
   82c50:	000839e4 	muli	zero,zero,8423
   82c54:	00082d20 	cmpeqi	zero,zero,8372
   82c58:	000839e4 	muli	zero,zero,8423
   82c5c:	00082d20 	cmpeqi	zero,zero,8372
   82c60:	00082d20 	cmpeqi	zero,zero,8372
   82c64:	00082d20 	cmpeqi	zero,zero,8372
   82c68:	00082d20 	cmpeqi	zero,zero,8372
   82c6c:	00083b48 	cmpgei	zero,zero,8429
   82c70:	00082d20 	cmpeqi	zero,zero,8372
   82c74:	00082d20 	cmpeqi	zero,zero,8372
   82c78:	0008342c 	andhi	zero,zero,8400
   82c7c:	00082d20 	cmpeqi	zero,zero,8372
   82c80:	00082d20 	cmpeqi	zero,zero,8372
   82c84:	00082d20 	cmpeqi	zero,zero,8372
   82c88:	00082d20 	cmpeqi	zero,zero,8372
   82c8c:	00082d20 	cmpeqi	zero,zero,8372
   82c90:	00083478 	rdprs	zero,zero,8401
   82c94:	00082d20 	cmpeqi	zero,zero,8372
   82c98:	00082d20 	cmpeqi	zero,zero,8372
   82c9c:	00083a98 	cmpnei	zero,zero,8426
   82ca0:	00082d20 	cmpeqi	zero,zero,8372
   82ca4:	00082d20 	cmpeqi	zero,zero,8372
   82ca8:	00082d20 	cmpeqi	zero,zero,8372
   82cac:	00082d20 	cmpeqi	zero,zero,8372
   82cb0:	00082d20 	cmpeqi	zero,zero,8372
   82cb4:	00082d20 	cmpeqi	zero,zero,8372
   82cb8:	00082d20 	cmpeqi	zero,zero,8372
   82cbc:	00082d20 	cmpeqi	zero,zero,8372
   82cc0:	00082d20 	cmpeqi	zero,zero,8372
   82cc4:	00082d20 	cmpeqi	zero,zero,8372
   82cc8:	00083a6c 	andhi	zero,zero,8425
   82ccc:	00083384 	movi	zero,8398
   82cd0:	000839e4 	muli	zero,zero,8423
   82cd4:	000839e4 	muli	zero,zero,8423
   82cd8:	000839e4 	muli	zero,zero,8423
   82cdc:	000839d0 	cmplti	zero,zero,8423
   82ce0:	00083384 	movi	zero,8398
   82ce4:	00082d20 	cmpeqi	zero,zero,8372
   82ce8:	00082d20 	cmpeqi	zero,zero,8372
   82cec:	00083958 	cmpnei	zero,zero,8421
   82cf0:	00082d20 	cmpeqi	zero,zero,8372
   82cf4:	00083928 	cmpgeui	zero,zero,8420
   82cf8:	00083438 	rdprs	zero,zero,8400
   82cfc:	00083988 	cmpgei	zero,zero,8422
   82d00:	00083974 	movhi	zero,8421
   82d04:	00082d20 	cmpeqi	zero,zero,8372
   82d08:	00083c1c 	xori	zero,zero,8432
   82d0c:	00082d20 	cmpeqi	zero,zero,8372
   82d10:	00083484 	movi	zero,8402
   82d14:	00082d20 	cmpeqi	zero,zero,8372
   82d18:	00082d20 	cmpeqi	zero,zero,8372
   82d1c:	00083afc 	xorhi	zero,zero,8427
   82d20:	d9014d17 	ldw	r4,1332(sp)
   82d24:	2000ce26 	beq	r4,zero,83060 <___vfprintf_internal_r+0x6d4>
   82d28:	01400044 	movi	r5,1
   82d2c:	d9800f04 	addi	r6,sp,60
   82d30:	d9c14015 	stw	r7,1280(sp)
   82d34:	d9414515 	stw	r5,1300(sp)
   82d38:	d9814115 	stw	r6,1284(sp)
   82d3c:	280f883a 	mov	r7,r5
   82d40:	d9000f05 	stb	r4,60(sp)
   82d44:	d8000405 	stb	zero,16(sp)
   82d48:	d8014615 	stw	zero,1304(sp)
   82d4c:	d8c14c17 	ldw	r3,1328(sp)
   82d50:	1880008c 	andi	r2,r3,2
   82d54:	1005003a 	cmpeq	r2,r2,zero
   82d58:	d8815015 	stw	r2,1344(sp)
   82d5c:	1000031e 	bne	r2,zero,82d6c <___vfprintf_internal_r+0x3e0>
   82d60:	d9014517 	ldw	r4,1300(sp)
   82d64:	21000084 	addi	r4,r4,2
   82d68:	d9014515 	stw	r4,1300(sp)
   82d6c:	d9414c17 	ldw	r5,1328(sp)
   82d70:	2940210c 	andi	r5,r5,132
   82d74:	d9414e15 	stw	r5,1336(sp)
   82d78:	28002d1e 	bne	r5,zero,82e30 <___vfprintf_internal_r+0x4a4>
   82d7c:	d9814a17 	ldw	r6,1320(sp)
   82d80:	d8814517 	ldw	r2,1300(sp)
   82d84:	30a1c83a 	sub	r16,r6,r2
   82d88:	0400290e 	bge	zero,r16,82e30 <___vfprintf_internal_r+0x4a4>
   82d8c:	00800404 	movi	r2,16
   82d90:	14045e0e 	bge	r2,r16,83f0c <___vfprintf_internal_r+0x1580>
   82d94:	dc800e17 	ldw	r18,56(sp)
   82d98:	dc400d17 	ldw	r17,52(sp)
   82d9c:	1027883a 	mov	r19,r2
   82da0:	070002b4 	movhi	fp,10
   82da4:	e723ee84 	addi	fp,fp,-28742
   82da8:	050001c4 	movi	r20,7
   82dac:	00000306 	br	82dbc <___vfprintf_internal_r+0x430>
   82db0:	843ffc04 	addi	r16,r16,-16
   82db4:	ad400204 	addi	r21,r21,8
   82db8:	9c00130e 	bge	r19,r16,82e08 <___vfprintf_internal_r+0x47c>
   82dbc:	94800404 	addi	r18,r18,16
   82dc0:	8c400044 	addi	r17,r17,1
   82dc4:	af000015 	stw	fp,0(r21)
   82dc8:	acc00115 	stw	r19,4(r21)
   82dcc:	dc800e15 	stw	r18,56(sp)
   82dd0:	dc400d15 	stw	r17,52(sp)
   82dd4:	a47ff60e 	bge	r20,r17,82db0 <___vfprintf_internal_r+0x424>
   82dd8:	d9014f17 	ldw	r4,1340(sp)
   82ddc:	b00b883a 	mov	r5,r22
   82de0:	d9800c04 	addi	r6,sp,48
   82de4:	d9c15115 	stw	r7,1348(sp)
   82de8:	00829340 	call	82934 <__sprint_r>
   82dec:	d9c15117 	ldw	r7,1348(sp)
   82df0:	10009e1e 	bne	r2,zero,8306c <___vfprintf_internal_r+0x6e0>
   82df4:	843ffc04 	addi	r16,r16,-16
   82df8:	dc800e17 	ldw	r18,56(sp)
   82dfc:	dc400d17 	ldw	r17,52(sp)
   82e00:	dd401904 	addi	r21,sp,100
   82e04:	9c3fed16 	blt	r19,r16,82dbc <___vfprintf_internal_r+0x430>
   82e08:	9425883a 	add	r18,r18,r16
   82e0c:	8c400044 	addi	r17,r17,1
   82e10:	008001c4 	movi	r2,7
   82e14:	af000015 	stw	fp,0(r21)
   82e18:	ac000115 	stw	r16,4(r21)
   82e1c:	dc800e15 	stw	r18,56(sp)
   82e20:	dc400d15 	stw	r17,52(sp)
   82e24:	1441f516 	blt	r2,r17,835fc <___vfprintf_internal_r+0xc70>
   82e28:	ad400204 	addi	r21,r21,8
   82e2c:	00000206 	br	82e38 <___vfprintf_internal_r+0x4ac>
   82e30:	dc800e17 	ldw	r18,56(sp)
   82e34:	dc400d17 	ldw	r17,52(sp)
   82e38:	d8800407 	ldb	r2,16(sp)
   82e3c:	10000b26 	beq	r2,zero,82e6c <___vfprintf_internal_r+0x4e0>
   82e40:	00800044 	movi	r2,1
   82e44:	94800044 	addi	r18,r18,1
   82e48:	8c400044 	addi	r17,r17,1
   82e4c:	a8800115 	stw	r2,4(r21)
   82e50:	d8c00404 	addi	r3,sp,16
   82e54:	008001c4 	movi	r2,7
   82e58:	a8c00015 	stw	r3,0(r21)
   82e5c:	dc800e15 	stw	r18,56(sp)
   82e60:	dc400d15 	stw	r17,52(sp)
   82e64:	1441da16 	blt	r2,r17,835d0 <___vfprintf_internal_r+0xc44>
   82e68:	ad400204 	addi	r21,r21,8
   82e6c:	d9015017 	ldw	r4,1344(sp)
   82e70:	20000b1e 	bne	r4,zero,82ea0 <___vfprintf_internal_r+0x514>
   82e74:	d8800444 	addi	r2,sp,17
   82e78:	94800084 	addi	r18,r18,2
   82e7c:	8c400044 	addi	r17,r17,1
   82e80:	a8800015 	stw	r2,0(r21)
   82e84:	00c00084 	movi	r3,2
   82e88:	008001c4 	movi	r2,7
   82e8c:	a8c00115 	stw	r3,4(r21)
   82e90:	dc800e15 	stw	r18,56(sp)
   82e94:	dc400d15 	stw	r17,52(sp)
   82e98:	1441c216 	blt	r2,r17,835a4 <___vfprintf_internal_r+0xc18>
   82e9c:	ad400204 	addi	r21,r21,8
   82ea0:	d9414e17 	ldw	r5,1336(sp)
   82ea4:	00802004 	movi	r2,128
   82ea8:	2880b126 	beq	r5,r2,83170 <___vfprintf_internal_r+0x7e4>
   82eac:	d8c14617 	ldw	r3,1304(sp)
   82eb0:	19e1c83a 	sub	r16,r3,r7
   82eb4:	0400260e 	bge	zero,r16,82f50 <___vfprintf_internal_r+0x5c4>
   82eb8:	00800404 	movi	r2,16
   82ebc:	1403cf0e 	bge	r2,r16,83dfc <___vfprintf_internal_r+0x1470>
   82ec0:	1027883a 	mov	r19,r2
   82ec4:	070002b4 	movhi	fp,10
   82ec8:	e723ea84 	addi	fp,fp,-28758
   82ecc:	050001c4 	movi	r20,7
   82ed0:	00000306 	br	82ee0 <___vfprintf_internal_r+0x554>
   82ed4:	843ffc04 	addi	r16,r16,-16
   82ed8:	ad400204 	addi	r21,r21,8
   82edc:	9c00130e 	bge	r19,r16,82f2c <___vfprintf_internal_r+0x5a0>
   82ee0:	94800404 	addi	r18,r18,16
   82ee4:	8c400044 	addi	r17,r17,1
   82ee8:	af000015 	stw	fp,0(r21)
   82eec:	acc00115 	stw	r19,4(r21)
   82ef0:	dc800e15 	stw	r18,56(sp)
   82ef4:	dc400d15 	stw	r17,52(sp)
   82ef8:	a47ff60e 	bge	r20,r17,82ed4 <___vfprintf_internal_r+0x548>
   82efc:	d9014f17 	ldw	r4,1340(sp)
   82f00:	b00b883a 	mov	r5,r22
   82f04:	d9800c04 	addi	r6,sp,48
   82f08:	d9c15115 	stw	r7,1348(sp)
   82f0c:	00829340 	call	82934 <__sprint_r>
   82f10:	d9c15117 	ldw	r7,1348(sp)
   82f14:	1000551e 	bne	r2,zero,8306c <___vfprintf_internal_r+0x6e0>
   82f18:	843ffc04 	addi	r16,r16,-16
   82f1c:	dc800e17 	ldw	r18,56(sp)
   82f20:	dc400d17 	ldw	r17,52(sp)
   82f24:	dd401904 	addi	r21,sp,100
   82f28:	9c3fed16 	blt	r19,r16,82ee0 <___vfprintf_internal_r+0x554>
   82f2c:	9425883a 	add	r18,r18,r16
   82f30:	8c400044 	addi	r17,r17,1
   82f34:	008001c4 	movi	r2,7
   82f38:	af000015 	stw	fp,0(r21)
   82f3c:	ac000115 	stw	r16,4(r21)
   82f40:	dc800e15 	stw	r18,56(sp)
   82f44:	dc400d15 	stw	r17,52(sp)
   82f48:	14418216 	blt	r2,r17,83554 <___vfprintf_internal_r+0xbc8>
   82f4c:	ad400204 	addi	r21,r21,8
   82f50:	d9014c17 	ldw	r4,1328(sp)
   82f54:	2080400c 	andi	r2,r4,256
   82f58:	10004a1e 	bne	r2,zero,83084 <___vfprintf_internal_r+0x6f8>
   82f5c:	d9414117 	ldw	r5,1284(sp)
   82f60:	91e5883a 	add	r18,r18,r7
   82f64:	8c400044 	addi	r17,r17,1
   82f68:	008001c4 	movi	r2,7
   82f6c:	a9400015 	stw	r5,0(r21)
   82f70:	a9c00115 	stw	r7,4(r21)
   82f74:	dc800e15 	stw	r18,56(sp)
   82f78:	dc400d15 	stw	r17,52(sp)
   82f7c:	14416716 	blt	r2,r17,8351c <___vfprintf_internal_r+0xb90>
   82f80:	a8c00204 	addi	r3,r21,8
   82f84:	d9814c17 	ldw	r6,1328(sp)
   82f88:	3080010c 	andi	r2,r6,4
   82f8c:	10002826 	beq	r2,zero,83030 <___vfprintf_internal_r+0x6a4>
   82f90:	d8814a17 	ldw	r2,1320(sp)
   82f94:	d9014517 	ldw	r4,1300(sp)
   82f98:	1121c83a 	sub	r16,r2,r4
   82f9c:	0400240e 	bge	zero,r16,83030 <___vfprintf_internal_r+0x6a4>
   82fa0:	00800404 	movi	r2,16
   82fa4:	1404550e 	bge	r2,r16,840fc <___vfprintf_internal_r+0x1770>
   82fa8:	dc400d17 	ldw	r17,52(sp)
   82fac:	1027883a 	mov	r19,r2
   82fb0:	070002b4 	movhi	fp,10
   82fb4:	e723ee84 	addi	fp,fp,-28742
   82fb8:	050001c4 	movi	r20,7
   82fbc:	00000306 	br	82fcc <___vfprintf_internal_r+0x640>
   82fc0:	843ffc04 	addi	r16,r16,-16
   82fc4:	18c00204 	addi	r3,r3,8
   82fc8:	9c00110e 	bge	r19,r16,83010 <___vfprintf_internal_r+0x684>
   82fcc:	94800404 	addi	r18,r18,16
   82fd0:	8c400044 	addi	r17,r17,1
   82fd4:	1f000015 	stw	fp,0(r3)
   82fd8:	1cc00115 	stw	r19,4(r3)
   82fdc:	dc800e15 	stw	r18,56(sp)
   82fe0:	dc400d15 	stw	r17,52(sp)
   82fe4:	a47ff60e 	bge	r20,r17,82fc0 <___vfprintf_internal_r+0x634>
   82fe8:	d9014f17 	ldw	r4,1340(sp)
   82fec:	b00b883a 	mov	r5,r22
   82ff0:	d9800c04 	addi	r6,sp,48
   82ff4:	00829340 	call	82934 <__sprint_r>
   82ff8:	10001c1e 	bne	r2,zero,8306c <___vfprintf_internal_r+0x6e0>
   82ffc:	843ffc04 	addi	r16,r16,-16
   83000:	dc800e17 	ldw	r18,56(sp)
   83004:	dc400d17 	ldw	r17,52(sp)
   83008:	d8c01904 	addi	r3,sp,100
   8300c:	9c3fef16 	blt	r19,r16,82fcc <___vfprintf_internal_r+0x640>
   83010:	9425883a 	add	r18,r18,r16
   83014:	8c400044 	addi	r17,r17,1
   83018:	008001c4 	movi	r2,7
   8301c:	1f000015 	stw	fp,0(r3)
   83020:	1c000115 	stw	r16,4(r3)
   83024:	dc800e15 	stw	r18,56(sp)
   83028:	dc400d15 	stw	r17,52(sp)
   8302c:	1440cb16 	blt	r2,r17,8335c <___vfprintf_internal_r+0x9d0>
   83030:	d8814a17 	ldw	r2,1320(sp)
   83034:	d9414517 	ldw	r5,1300(sp)
   83038:	1140010e 	bge	r2,r5,83040 <___vfprintf_internal_r+0x6b4>
   8303c:	2805883a 	mov	r2,r5
   83040:	d9814b17 	ldw	r6,1324(sp)
   83044:	308d883a 	add	r6,r6,r2
   83048:	d9814b15 	stw	r6,1324(sp)
   8304c:	90013b1e 	bne	r18,zero,8353c <___vfprintf_internal_r+0xbb0>
   83050:	d9c14017 	ldw	r7,1280(sp)
   83054:	dd401904 	addi	r21,sp,100
   83058:	d8000d15 	stw	zero,52(sp)
   8305c:	003ea706 	br	82afc <___vfprintf_internal_r+0x170>
   83060:	d8800e17 	ldw	r2,56(sp)
   83064:	1005451e 	bne	r2,zero,8457c <___vfprintf_internal_r+0x1bf0>
   83068:	d8000d15 	stw	zero,52(sp)
   8306c:	b080030b 	ldhu	r2,12(r22)
   83070:	1080100c 	andi	r2,r2,64
   83074:	103e8726 	beq	r2,zero,82a94 <___vfprintf_internal_r+0x108>
   83078:	00bfffc4 	movi	r2,-1
   8307c:	d8814b15 	stw	r2,1324(sp)
   83080:	003e8406 	br	82a94 <___vfprintf_internal_r+0x108>
   83084:	d9814d17 	ldw	r6,1332(sp)
   83088:	00801944 	movi	r2,101
   8308c:	11806e16 	blt	r2,r6,83248 <___vfprintf_internal_r+0x8bc>
   83090:	d9414717 	ldw	r5,1308(sp)
   83094:	00c00044 	movi	r3,1
   83098:	1943490e 	bge	r3,r5,83dc0 <___vfprintf_internal_r+0x1434>
   8309c:	d8814117 	ldw	r2,1284(sp)
   830a0:	94800044 	addi	r18,r18,1
   830a4:	8c400044 	addi	r17,r17,1
   830a8:	a8800015 	stw	r2,0(r21)
   830ac:	008001c4 	movi	r2,7
   830b0:	a8c00115 	stw	r3,4(r21)
   830b4:	dc800e15 	stw	r18,56(sp)
   830b8:	dc400d15 	stw	r17,52(sp)
   830bc:	1441ca16 	blt	r2,r17,837e8 <___vfprintf_internal_r+0xe5c>
   830c0:	a8c00204 	addi	r3,r21,8
   830c4:	d9014917 	ldw	r4,1316(sp)
   830c8:	00800044 	movi	r2,1
   830cc:	94800044 	addi	r18,r18,1
   830d0:	8c400044 	addi	r17,r17,1
   830d4:	18800115 	stw	r2,4(r3)
   830d8:	008001c4 	movi	r2,7
   830dc:	19000015 	stw	r4,0(r3)
   830e0:	dc800e15 	stw	r18,56(sp)
   830e4:	dc400d15 	stw	r17,52(sp)
   830e8:	1441b616 	blt	r2,r17,837c4 <___vfprintf_internal_r+0xe38>
   830ec:	1cc00204 	addi	r19,r3,8
   830f0:	d9014217 	ldw	r4,1288(sp)
   830f4:	d9414317 	ldw	r5,1292(sp)
   830f8:	000d883a 	mov	r6,zero
   830fc:	000f883a 	mov	r7,zero
   83100:	008b5640 	call	8b564 <__nedf2>
   83104:	10017426 	beq	r2,zero,836d8 <___vfprintf_internal_r+0xd4c>
   83108:	d9414717 	ldw	r5,1308(sp)
   8310c:	d9814117 	ldw	r6,1284(sp)
   83110:	8c400044 	addi	r17,r17,1
   83114:	2c85883a 	add	r2,r5,r18
   83118:	14bfffc4 	addi	r18,r2,-1
   8311c:	28bfffc4 	addi	r2,r5,-1
   83120:	30c00044 	addi	r3,r6,1
   83124:	98800115 	stw	r2,4(r19)
   83128:	008001c4 	movi	r2,7
   8312c:	98c00015 	stw	r3,0(r19)
   83130:	dc800e15 	stw	r18,56(sp)
   83134:	dc400d15 	stw	r17,52(sp)
   83138:	14418e16 	blt	r2,r17,83774 <___vfprintf_internal_r+0xde8>
   8313c:	9cc00204 	addi	r19,r19,8
   83140:	d9414817 	ldw	r5,1312(sp)
   83144:	d8800804 	addi	r2,sp,32
   83148:	8c400044 	addi	r17,r17,1
   8314c:	9165883a 	add	r18,r18,r5
   83150:	98800015 	stw	r2,0(r19)
   83154:	008001c4 	movi	r2,7
   83158:	99400115 	stw	r5,4(r19)
   8315c:	dc800e15 	stw	r18,56(sp)
   83160:	dc400d15 	stw	r17,52(sp)
   83164:	1440ed16 	blt	r2,r17,8351c <___vfprintf_internal_r+0xb90>
   83168:	98c00204 	addi	r3,r19,8
   8316c:	003f8506 	br	82f84 <___vfprintf_internal_r+0x5f8>
   83170:	d9814a17 	ldw	r6,1320(sp)
   83174:	d8814517 	ldw	r2,1300(sp)
   83178:	30a1c83a 	sub	r16,r6,r2
   8317c:	043f4b0e 	bge	zero,r16,82eac <___vfprintf_internal_r+0x520>
   83180:	00800404 	movi	r2,16
   83184:	14043a0e 	bge	r2,r16,84270 <___vfprintf_internal_r+0x18e4>
   83188:	1027883a 	mov	r19,r2
   8318c:	070002b4 	movhi	fp,10
   83190:	e723ea84 	addi	fp,fp,-28758
   83194:	050001c4 	movi	r20,7
   83198:	00000306 	br	831a8 <___vfprintf_internal_r+0x81c>
   8319c:	843ffc04 	addi	r16,r16,-16
   831a0:	ad400204 	addi	r21,r21,8
   831a4:	9c00130e 	bge	r19,r16,831f4 <___vfprintf_internal_r+0x868>
   831a8:	94800404 	addi	r18,r18,16
   831ac:	8c400044 	addi	r17,r17,1
   831b0:	af000015 	stw	fp,0(r21)
   831b4:	acc00115 	stw	r19,4(r21)
   831b8:	dc800e15 	stw	r18,56(sp)
   831bc:	dc400d15 	stw	r17,52(sp)
   831c0:	a47ff60e 	bge	r20,r17,8319c <___vfprintf_internal_r+0x810>
   831c4:	d9014f17 	ldw	r4,1340(sp)
   831c8:	b00b883a 	mov	r5,r22
   831cc:	d9800c04 	addi	r6,sp,48
   831d0:	d9c15115 	stw	r7,1348(sp)
   831d4:	00829340 	call	82934 <__sprint_r>
   831d8:	d9c15117 	ldw	r7,1348(sp)
   831dc:	103fa31e 	bne	r2,zero,8306c <___vfprintf_internal_r+0x6e0>
   831e0:	843ffc04 	addi	r16,r16,-16
   831e4:	dc800e17 	ldw	r18,56(sp)
   831e8:	dc400d17 	ldw	r17,52(sp)
   831ec:	dd401904 	addi	r21,sp,100
   831f0:	9c3fed16 	blt	r19,r16,831a8 <___vfprintf_internal_r+0x81c>
   831f4:	9425883a 	add	r18,r18,r16
   831f8:	8c400044 	addi	r17,r17,1
   831fc:	008001c4 	movi	r2,7
   83200:	af000015 	stw	fp,0(r21)
   83204:	ac000115 	stw	r16,4(r21)
   83208:	dc800e15 	stw	r18,56(sp)
   8320c:	dc400d15 	stw	r17,52(sp)
   83210:	14416116 	blt	r2,r17,83798 <___vfprintf_internal_r+0xe0c>
   83214:	ad400204 	addi	r21,r21,8
   83218:	003f2406 	br	82eac <___vfprintf_internal_r+0x520>
   8321c:	d9014f17 	ldw	r4,1340(sp)
   83220:	00864400 	call	86440 <__sinit>
   83224:	d9c15117 	ldw	r7,1348(sp)
   83228:	003def06 	br	829e8 <___vfprintf_internal_r+0x5c>
   8322c:	d9014f17 	ldw	r4,1340(sp)
   83230:	b00b883a 	mov	r5,r22
   83234:	d9c15115 	stw	r7,1348(sp)
   83238:	00848740 	call	84874 <__swsetup_r>
   8323c:	d9c15117 	ldw	r7,1348(sp)
   83240:	103dee26 	beq	r2,zero,829fc <___vfprintf_internal_r+0x70>
   83244:	003f8c06 	br	83078 <___vfprintf_internal_r+0x6ec>
   83248:	d9014217 	ldw	r4,1288(sp)
   8324c:	d9414317 	ldw	r5,1292(sp)
   83250:	000d883a 	mov	r6,zero
   83254:	000f883a 	mov	r7,zero
   83258:	008b4dc0 	call	8b4dc <__eqdf2>
   8325c:	1000f21e 	bne	r2,zero,83628 <___vfprintf_internal_r+0xc9c>
   83260:	008002b4 	movhi	r2,10
   83264:	10a3ea04 	addi	r2,r2,-28760
   83268:	94800044 	addi	r18,r18,1
   8326c:	8c400044 	addi	r17,r17,1
   83270:	a8800015 	stw	r2,0(r21)
   83274:	00c00044 	movi	r3,1
   83278:	008001c4 	movi	r2,7
   8327c:	a8c00115 	stw	r3,4(r21)
   83280:	dc800e15 	stw	r18,56(sp)
   83284:	dc400d15 	stw	r17,52(sp)
   83288:	14430016 	blt	r2,r17,83e8c <___vfprintf_internal_r+0x1500>
   8328c:	a8c00204 	addi	r3,r21,8
   83290:	d8800517 	ldw	r2,20(sp)
   83294:	d9014717 	ldw	r4,1308(sp)
   83298:	11015c0e 	bge	r2,r4,8380c <___vfprintf_internal_r+0xe80>
   8329c:	dc400d17 	ldw	r17,52(sp)
   832a0:	d9814917 	ldw	r6,1316(sp)
   832a4:	00800044 	movi	r2,1
   832a8:	94800044 	addi	r18,r18,1
   832ac:	8c400044 	addi	r17,r17,1
   832b0:	18800115 	stw	r2,4(r3)
   832b4:	008001c4 	movi	r2,7
   832b8:	19800015 	stw	r6,0(r3)
   832bc:	dc800e15 	stw	r18,56(sp)
   832c0:	dc400d15 	stw	r17,52(sp)
   832c4:	14431616 	blt	r2,r17,83f20 <___vfprintf_internal_r+0x1594>
   832c8:	18c00204 	addi	r3,r3,8
   832cc:	d8814717 	ldw	r2,1308(sp)
   832d0:	143fffc4 	addi	r16,r2,-1
   832d4:	043f2b0e 	bge	zero,r16,82f84 <___vfprintf_internal_r+0x5f8>
   832d8:	00800404 	movi	r2,16
   832dc:	1402a80e 	bge	r2,r16,83d80 <___vfprintf_internal_r+0x13f4>
   832e0:	dc400d17 	ldw	r17,52(sp)
   832e4:	1027883a 	mov	r19,r2
   832e8:	070002b4 	movhi	fp,10
   832ec:	e723ea84 	addi	fp,fp,-28758
   832f0:	050001c4 	movi	r20,7
   832f4:	00000306 	br	83304 <___vfprintf_internal_r+0x978>
   832f8:	18c00204 	addi	r3,r3,8
   832fc:	843ffc04 	addi	r16,r16,-16
   83300:	9c02a20e 	bge	r19,r16,83d8c <___vfprintf_internal_r+0x1400>
   83304:	94800404 	addi	r18,r18,16
   83308:	8c400044 	addi	r17,r17,1
   8330c:	1f000015 	stw	fp,0(r3)
   83310:	1cc00115 	stw	r19,4(r3)
   83314:	dc800e15 	stw	r18,56(sp)
   83318:	dc400d15 	stw	r17,52(sp)
   8331c:	a47ff60e 	bge	r20,r17,832f8 <___vfprintf_internal_r+0x96c>
   83320:	d9014f17 	ldw	r4,1340(sp)
   83324:	b00b883a 	mov	r5,r22
   83328:	d9800c04 	addi	r6,sp,48
   8332c:	00829340 	call	82934 <__sprint_r>
   83330:	103f4e1e 	bne	r2,zero,8306c <___vfprintf_internal_r+0x6e0>
   83334:	dc800e17 	ldw	r18,56(sp)
   83338:	dc400d17 	ldw	r17,52(sp)
   8333c:	d8c01904 	addi	r3,sp,100
   83340:	003fee06 	br	832fc <___vfprintf_internal_r+0x970>
   83344:	d8802c0b 	ldhu	r2,176(sp)
   83348:	00ffffc4 	movi	r3,-1
   8334c:	d8c14b15 	stw	r3,1324(sp)
   83350:	1080100c 	andi	r2,r2,64
   83354:	103dcc1e 	bne	r2,zero,82a88 <___vfprintf_internal_r+0xfc>
   83358:	003dce06 	br	82a94 <___vfprintf_internal_r+0x108>
   8335c:	d9014f17 	ldw	r4,1340(sp)
   83360:	b00b883a 	mov	r5,r22
   83364:	d9800c04 	addi	r6,sp,48
   83368:	00829340 	call	82934 <__sprint_r>
   8336c:	103f3f1e 	bne	r2,zero,8306c <___vfprintf_internal_r+0x6e0>
   83370:	dc800e17 	ldw	r18,56(sp)
   83374:	003f2e06 	br	83030 <___vfprintf_internal_r+0x6a4>
   83378:	d9414c17 	ldw	r5,1328(sp)
   8337c:	29400414 	ori	r5,r5,16
   83380:	d9414c15 	stw	r5,1328(sp)
   83384:	d9814c17 	ldw	r6,1328(sp)
   83388:	3080080c 	andi	r2,r6,32
   8338c:	10014f1e 	bne	r2,zero,838cc <___vfprintf_internal_r+0xf40>
   83390:	d8c14c17 	ldw	r3,1328(sp)
   83394:	1880040c 	andi	r2,r3,16
   83398:	1002f01e 	bne	r2,zero,83f5c <___vfprintf_internal_r+0x15d0>
   8339c:	d9014c17 	ldw	r4,1328(sp)
   833a0:	2080100c 	andi	r2,r4,64
   833a4:	1002ed26 	beq	r2,zero,83f5c <___vfprintf_internal_r+0x15d0>
   833a8:	3880000f 	ldh	r2,0(r7)
   833ac:	39c00104 	addi	r7,r7,4
   833b0:	d9c14015 	stw	r7,1280(sp)
   833b4:	1023d7fa 	srai	r17,r2,31
   833b8:	1021883a 	mov	r16,r2
   833bc:	88037816 	blt	r17,zero,841a0 <___vfprintf_internal_r+0x1814>
   833c0:	01000044 	movi	r4,1
   833c4:	98000416 	blt	r19,zero,833d8 <___vfprintf_internal_r+0xa4c>
   833c8:	d8c14c17 	ldw	r3,1328(sp)
   833cc:	00bfdfc4 	movi	r2,-129
   833d0:	1886703a 	and	r3,r3,r2
   833d4:	d8c14c15 	stw	r3,1328(sp)
   833d8:	8444b03a 	or	r2,r16,r17
   833dc:	10022c1e 	bne	r2,zero,83c90 <___vfprintf_internal_r+0x1304>
   833e0:	98022b1e 	bne	r19,zero,83c90 <___vfprintf_internal_r+0x1304>
   833e4:	20803fcc 	andi	r2,r4,255
   833e8:	1002a126 	beq	r2,zero,83e70 <___vfprintf_internal_r+0x14e4>
   833ec:	d8c01904 	addi	r3,sp,100
   833f0:	dd000f04 	addi	r20,sp,60
   833f4:	d8c14115 	stw	r3,1284(sp)
   833f8:	d8c14117 	ldw	r3,1284(sp)
   833fc:	dcc14515 	stw	r19,1300(sp)
   83400:	a0c5c83a 	sub	r2,r20,r3
   83404:	11c00a04 	addi	r7,r2,40
   83408:	99c0010e 	bge	r19,r7,83410 <___vfprintf_internal_r+0xa84>
   8340c:	d9c14515 	stw	r7,1300(sp)
   83410:	dcc14615 	stw	r19,1304(sp)
   83414:	d8800407 	ldb	r2,16(sp)
   83418:	103e4c26 	beq	r2,zero,82d4c <___vfprintf_internal_r+0x3c0>
   8341c:	d8814517 	ldw	r2,1300(sp)
   83420:	10800044 	addi	r2,r2,1
   83424:	d8814515 	stw	r2,1300(sp)
   83428:	003e4806 	br	82d4c <___vfprintf_internal_r+0x3c0>
   8342c:	d9814c17 	ldw	r6,1328(sp)
   83430:	31800414 	ori	r6,r6,16
   83434:	d9814c15 	stw	r6,1328(sp)
   83438:	d8c14c17 	ldw	r3,1328(sp)
   8343c:	1880080c 	andi	r2,r3,32
   83440:	1001271e 	bne	r2,zero,838e0 <___vfprintf_internal_r+0xf54>
   83444:	d9414c17 	ldw	r5,1328(sp)
   83448:	2880040c 	andi	r2,r5,16
   8344c:	1002bc1e 	bne	r2,zero,83f40 <___vfprintf_internal_r+0x15b4>
   83450:	d9814c17 	ldw	r6,1328(sp)
   83454:	3080100c 	andi	r2,r6,64
   83458:	1002b926 	beq	r2,zero,83f40 <___vfprintf_internal_r+0x15b4>
   8345c:	3c00000b 	ldhu	r16,0(r7)
   83460:	0009883a 	mov	r4,zero
   83464:	39c00104 	addi	r7,r7,4
   83468:	0023883a 	mov	r17,zero
   8346c:	d9c14015 	stw	r7,1280(sp)
   83470:	d8000405 	stb	zero,16(sp)
   83474:	003fd306 	br	833c4 <___vfprintf_internal_r+0xa38>
   83478:	d9014c17 	ldw	r4,1328(sp)
   8347c:	21000414 	ori	r4,r4,16
   83480:	d9014c15 	stw	r4,1328(sp)
   83484:	d9414c17 	ldw	r5,1328(sp)
   83488:	2880080c 	andi	r2,r5,32
   8348c:	1001081e 	bne	r2,zero,838b0 <___vfprintf_internal_r+0xf24>
   83490:	d8c14c17 	ldw	r3,1328(sp)
   83494:	1880040c 	andi	r2,r3,16
   83498:	1002b61e 	bne	r2,zero,83f74 <___vfprintf_internal_r+0x15e8>
   8349c:	d9014c17 	ldw	r4,1328(sp)
   834a0:	2080100c 	andi	r2,r4,64
   834a4:	1002b326 	beq	r2,zero,83f74 <___vfprintf_internal_r+0x15e8>
   834a8:	3c00000b 	ldhu	r16,0(r7)
   834ac:	01000044 	movi	r4,1
   834b0:	39c00104 	addi	r7,r7,4
   834b4:	0023883a 	mov	r17,zero
   834b8:	d9c14015 	stw	r7,1280(sp)
   834bc:	d8000405 	stb	zero,16(sp)
   834c0:	003fc006 	br	833c4 <___vfprintf_internal_r+0xa38>
   834c4:	d9014f17 	ldw	r4,1340(sp)
   834c8:	b00b883a 	mov	r5,r22
   834cc:	d9800c04 	addi	r6,sp,48
   834d0:	00829340 	call	82934 <__sprint_r>
   834d4:	103ee51e 	bne	r2,zero,8306c <___vfprintf_internal_r+0x6e0>
   834d8:	dc800e17 	ldw	r18,56(sp)
   834dc:	d8c01904 	addi	r3,sp,100
   834e0:	d9814c17 	ldw	r6,1328(sp)
   834e4:	3080004c 	andi	r2,r6,1
   834e8:	1005003a 	cmpeq	r2,r2,zero
   834ec:	103ea51e 	bne	r2,zero,82f84 <___vfprintf_internal_r+0x5f8>
   834f0:	00800044 	movi	r2,1
   834f4:	dc400d17 	ldw	r17,52(sp)
   834f8:	18800115 	stw	r2,4(r3)
   834fc:	d8814917 	ldw	r2,1316(sp)
   83500:	94800044 	addi	r18,r18,1
   83504:	8c400044 	addi	r17,r17,1
   83508:	18800015 	stw	r2,0(r3)
   8350c:	008001c4 	movi	r2,7
   83510:	dc800e15 	stw	r18,56(sp)
   83514:	dc400d15 	stw	r17,52(sp)
   83518:	1442240e 	bge	r2,r17,83dac <___vfprintf_internal_r+0x1420>
   8351c:	d9014f17 	ldw	r4,1340(sp)
   83520:	b00b883a 	mov	r5,r22
   83524:	d9800c04 	addi	r6,sp,48
   83528:	00829340 	call	82934 <__sprint_r>
   8352c:	103ecf1e 	bne	r2,zero,8306c <___vfprintf_internal_r+0x6e0>
   83530:	dc800e17 	ldw	r18,56(sp)
   83534:	d8c01904 	addi	r3,sp,100
   83538:	003e9206 	br	82f84 <___vfprintf_internal_r+0x5f8>
   8353c:	d9014f17 	ldw	r4,1340(sp)
   83540:	b00b883a 	mov	r5,r22
   83544:	d9800c04 	addi	r6,sp,48
   83548:	00829340 	call	82934 <__sprint_r>
   8354c:	103ec026 	beq	r2,zero,83050 <___vfprintf_internal_r+0x6c4>
   83550:	003ec606 	br	8306c <___vfprintf_internal_r+0x6e0>
   83554:	d9014f17 	ldw	r4,1340(sp)
   83558:	b00b883a 	mov	r5,r22
   8355c:	d9800c04 	addi	r6,sp,48
   83560:	d9c15115 	stw	r7,1348(sp)
   83564:	00829340 	call	82934 <__sprint_r>
   83568:	d9c15117 	ldw	r7,1348(sp)
   8356c:	103ebf1e 	bne	r2,zero,8306c <___vfprintf_internal_r+0x6e0>
   83570:	dc800e17 	ldw	r18,56(sp)
   83574:	dc400d17 	ldw	r17,52(sp)
   83578:	dd401904 	addi	r21,sp,100
   8357c:	003e7406 	br	82f50 <___vfprintf_internal_r+0x5c4>
   83580:	d9014f17 	ldw	r4,1340(sp)
   83584:	b00b883a 	mov	r5,r22
   83588:	d9800c04 	addi	r6,sp,48
   8358c:	d9c15115 	stw	r7,1348(sp)
   83590:	00829340 	call	82934 <__sprint_r>
   83594:	d9c15117 	ldw	r7,1348(sp)
   83598:	103eb41e 	bne	r2,zero,8306c <___vfprintf_internal_r+0x6e0>
   8359c:	dd401904 	addi	r21,sp,100
   835a0:	003d6d06 	br	82b58 <___vfprintf_internal_r+0x1cc>
   835a4:	d9014f17 	ldw	r4,1340(sp)
   835a8:	b00b883a 	mov	r5,r22
   835ac:	d9800c04 	addi	r6,sp,48
   835b0:	d9c15115 	stw	r7,1348(sp)
   835b4:	00829340 	call	82934 <__sprint_r>
   835b8:	d9c15117 	ldw	r7,1348(sp)
   835bc:	103eab1e 	bne	r2,zero,8306c <___vfprintf_internal_r+0x6e0>
   835c0:	dc800e17 	ldw	r18,56(sp)
   835c4:	dc400d17 	ldw	r17,52(sp)
   835c8:	dd401904 	addi	r21,sp,100
   835cc:	003e3406 	br	82ea0 <___vfprintf_internal_r+0x514>
   835d0:	d9014f17 	ldw	r4,1340(sp)
   835d4:	b00b883a 	mov	r5,r22
   835d8:	d9800c04 	addi	r6,sp,48
   835dc:	d9c15115 	stw	r7,1348(sp)
   835e0:	00829340 	call	82934 <__sprint_r>
   835e4:	d9c15117 	ldw	r7,1348(sp)
   835e8:	103ea01e 	bne	r2,zero,8306c <___vfprintf_internal_r+0x6e0>
   835ec:	dc800e17 	ldw	r18,56(sp)
   835f0:	dc400d17 	ldw	r17,52(sp)
   835f4:	dd401904 	addi	r21,sp,100
   835f8:	003e1c06 	br	82e6c <___vfprintf_internal_r+0x4e0>
   835fc:	d9014f17 	ldw	r4,1340(sp)
   83600:	b00b883a 	mov	r5,r22
   83604:	d9800c04 	addi	r6,sp,48
   83608:	d9c15115 	stw	r7,1348(sp)
   8360c:	00829340 	call	82934 <__sprint_r>
   83610:	d9c15117 	ldw	r7,1348(sp)
   83614:	103e951e 	bne	r2,zero,8306c <___vfprintf_internal_r+0x6e0>
   83618:	dc800e17 	ldw	r18,56(sp)
   8361c:	dc400d17 	ldw	r17,52(sp)
   83620:	dd401904 	addi	r21,sp,100
   83624:	003e0406 	br	82e38 <___vfprintf_internal_r+0x4ac>
   83628:	d9000517 	ldw	r4,20(sp)
   8362c:	0102580e 	bge	zero,r4,83f90 <___vfprintf_internal_r+0x1604>
   83630:	d9814717 	ldw	r6,1308(sp)
   83634:	21807a16 	blt	r4,r6,83820 <___vfprintf_internal_r+0xe94>
   83638:	d8814117 	ldw	r2,1284(sp)
   8363c:	91a5883a 	add	r18,r18,r6
   83640:	8c400044 	addi	r17,r17,1
   83644:	a8800015 	stw	r2,0(r21)
   83648:	008001c4 	movi	r2,7
   8364c:	a9800115 	stw	r6,4(r21)
   83650:	dc800e15 	stw	r18,56(sp)
   83654:	dc400d15 	stw	r17,52(sp)
   83658:	1442fc16 	blt	r2,r17,8424c <___vfprintf_internal_r+0x18c0>
   8365c:	a8c00204 	addi	r3,r21,8
   83660:	d9414717 	ldw	r5,1308(sp)
   83664:	2161c83a 	sub	r16,r4,r5
   83668:	043f9d0e 	bge	zero,r16,834e0 <___vfprintf_internal_r+0xb54>
   8366c:	00800404 	movi	r2,16
   83670:	1402190e 	bge	r2,r16,83ed8 <___vfprintf_internal_r+0x154c>
   83674:	dc400d17 	ldw	r17,52(sp)
   83678:	1027883a 	mov	r19,r2
   8367c:	070002b4 	movhi	fp,10
   83680:	e723ea84 	addi	fp,fp,-28758
   83684:	050001c4 	movi	r20,7
   83688:	00000306 	br	83698 <___vfprintf_internal_r+0xd0c>
   8368c:	18c00204 	addi	r3,r3,8
   83690:	843ffc04 	addi	r16,r16,-16
   83694:	9c02130e 	bge	r19,r16,83ee4 <___vfprintf_internal_r+0x1558>
   83698:	94800404 	addi	r18,r18,16
   8369c:	8c400044 	addi	r17,r17,1
   836a0:	1f000015 	stw	fp,0(r3)
   836a4:	1cc00115 	stw	r19,4(r3)
   836a8:	dc800e15 	stw	r18,56(sp)
   836ac:	dc400d15 	stw	r17,52(sp)
   836b0:	a47ff60e 	bge	r20,r17,8368c <___vfprintf_internal_r+0xd00>
   836b4:	d9014f17 	ldw	r4,1340(sp)
   836b8:	b00b883a 	mov	r5,r22
   836bc:	d9800c04 	addi	r6,sp,48
   836c0:	00829340 	call	82934 <__sprint_r>
   836c4:	103e691e 	bne	r2,zero,8306c <___vfprintf_internal_r+0x6e0>
   836c8:	dc800e17 	ldw	r18,56(sp)
   836cc:	dc400d17 	ldw	r17,52(sp)
   836d0:	d8c01904 	addi	r3,sp,100
   836d4:	003fee06 	br	83690 <___vfprintf_internal_r+0xd04>
   836d8:	d8814717 	ldw	r2,1308(sp)
   836dc:	143fffc4 	addi	r16,r2,-1
   836e0:	043e970e 	bge	zero,r16,83140 <___vfprintf_internal_r+0x7b4>
   836e4:	00800404 	movi	r2,16
   836e8:	1400180e 	bge	r2,r16,8374c <___vfprintf_internal_r+0xdc0>
   836ec:	1029883a 	mov	r20,r2
   836f0:	070002b4 	movhi	fp,10
   836f4:	e723ea84 	addi	fp,fp,-28758
   836f8:	054001c4 	movi	r21,7
   836fc:	00000306 	br	8370c <___vfprintf_internal_r+0xd80>
   83700:	9cc00204 	addi	r19,r19,8
   83704:	843ffc04 	addi	r16,r16,-16
   83708:	a400120e 	bge	r20,r16,83754 <___vfprintf_internal_r+0xdc8>
   8370c:	94800404 	addi	r18,r18,16
   83710:	8c400044 	addi	r17,r17,1
   83714:	9f000015 	stw	fp,0(r19)
   83718:	9d000115 	stw	r20,4(r19)
   8371c:	dc800e15 	stw	r18,56(sp)
   83720:	dc400d15 	stw	r17,52(sp)
   83724:	ac7ff60e 	bge	r21,r17,83700 <___vfprintf_internal_r+0xd74>
   83728:	d9014f17 	ldw	r4,1340(sp)
   8372c:	b00b883a 	mov	r5,r22
   83730:	d9800c04 	addi	r6,sp,48
   83734:	00829340 	call	82934 <__sprint_r>
   83738:	103e4c1e 	bne	r2,zero,8306c <___vfprintf_internal_r+0x6e0>
   8373c:	dc800e17 	ldw	r18,56(sp)
   83740:	dc400d17 	ldw	r17,52(sp)
   83744:	dcc01904 	addi	r19,sp,100
   83748:	003fee06 	br	83704 <___vfprintf_internal_r+0xd78>
   8374c:	070002b4 	movhi	fp,10
   83750:	e723ea84 	addi	fp,fp,-28758
   83754:	9425883a 	add	r18,r18,r16
   83758:	8c400044 	addi	r17,r17,1
   8375c:	008001c4 	movi	r2,7
   83760:	9f000015 	stw	fp,0(r19)
   83764:	9c000115 	stw	r16,4(r19)
   83768:	dc800e15 	stw	r18,56(sp)
   8376c:	dc400d15 	stw	r17,52(sp)
   83770:	147e720e 	bge	r2,r17,8313c <___vfprintf_internal_r+0x7b0>
   83774:	d9014f17 	ldw	r4,1340(sp)
   83778:	b00b883a 	mov	r5,r22
   8377c:	d9800c04 	addi	r6,sp,48
   83780:	00829340 	call	82934 <__sprint_r>
   83784:	103e391e 	bne	r2,zero,8306c <___vfprintf_internal_r+0x6e0>
   83788:	dc800e17 	ldw	r18,56(sp)
   8378c:	dc400d17 	ldw	r17,52(sp)
   83790:	dcc01904 	addi	r19,sp,100
   83794:	003e6a06 	br	83140 <___vfprintf_internal_r+0x7b4>
   83798:	d9014f17 	ldw	r4,1340(sp)
   8379c:	b00b883a 	mov	r5,r22
   837a0:	d9800c04 	addi	r6,sp,48
   837a4:	d9c15115 	stw	r7,1348(sp)
   837a8:	00829340 	call	82934 <__sprint_r>
   837ac:	d9c15117 	ldw	r7,1348(sp)
   837b0:	103e2e1e 	bne	r2,zero,8306c <___vfprintf_internal_r+0x6e0>
   837b4:	dc800e17 	ldw	r18,56(sp)
   837b8:	dc400d17 	ldw	r17,52(sp)
   837bc:	dd401904 	addi	r21,sp,100
   837c0:	003dba06 	br	82eac <___vfprintf_internal_r+0x520>
   837c4:	d9014f17 	ldw	r4,1340(sp)
   837c8:	b00b883a 	mov	r5,r22
   837cc:	d9800c04 	addi	r6,sp,48
   837d0:	00829340 	call	82934 <__sprint_r>
   837d4:	103e251e 	bne	r2,zero,8306c <___vfprintf_internal_r+0x6e0>
   837d8:	dc800e17 	ldw	r18,56(sp)
   837dc:	dc400d17 	ldw	r17,52(sp)
   837e0:	dcc01904 	addi	r19,sp,100
   837e4:	003e4206 	br	830f0 <___vfprintf_internal_r+0x764>
   837e8:	d9014f17 	ldw	r4,1340(sp)
   837ec:	b00b883a 	mov	r5,r22
   837f0:	d9800c04 	addi	r6,sp,48
   837f4:	00829340 	call	82934 <__sprint_r>
   837f8:	103e1c1e 	bne	r2,zero,8306c <___vfprintf_internal_r+0x6e0>
   837fc:	dc800e17 	ldw	r18,56(sp)
   83800:	dc400d17 	ldw	r17,52(sp)
   83804:	d8c01904 	addi	r3,sp,100
   83808:	003e2e06 	br	830c4 <___vfprintf_internal_r+0x738>
   8380c:	d9414c17 	ldw	r5,1328(sp)
   83810:	2880004c 	andi	r2,r5,1
   83814:	1005003a 	cmpeq	r2,r2,zero
   83818:	103dda1e 	bne	r2,zero,82f84 <___vfprintf_internal_r+0x5f8>
   8381c:	003e9f06 	br	8329c <___vfprintf_internal_r+0x910>
   83820:	d8c14117 	ldw	r3,1284(sp)
   83824:	9125883a 	add	r18,r18,r4
   83828:	8c400044 	addi	r17,r17,1
   8382c:	008001c4 	movi	r2,7
   83830:	a8c00015 	stw	r3,0(r21)
   83834:	a9000115 	stw	r4,4(r21)
   83838:	dc800e15 	stw	r18,56(sp)
   8383c:	dc400d15 	stw	r17,52(sp)
   83840:	14426c16 	blt	r2,r17,841f4 <___vfprintf_internal_r+0x1868>
   83844:	a8c00204 	addi	r3,r21,8
   83848:	d9414917 	ldw	r5,1316(sp)
   8384c:	00800044 	movi	r2,1
   83850:	94800044 	addi	r18,r18,1
   83854:	8c400044 	addi	r17,r17,1
   83858:	18800115 	stw	r2,4(r3)
   8385c:	008001c4 	movi	r2,7
   83860:	19400015 	stw	r5,0(r3)
   83864:	dc800e15 	stw	r18,56(sp)
   83868:	dc400d15 	stw	r17,52(sp)
   8386c:	2021883a 	mov	r16,r4
   83870:	14425616 	blt	r2,r17,841cc <___vfprintf_internal_r+0x1840>
   83874:	19400204 	addi	r5,r3,8
   83878:	d9814717 	ldw	r6,1308(sp)
   8387c:	8c400044 	addi	r17,r17,1
   83880:	dc400d15 	stw	r17,52(sp)
   83884:	3107c83a 	sub	r3,r6,r4
   83888:	d9014117 	ldw	r4,1284(sp)
   8388c:	90e5883a 	add	r18,r18,r3
   83890:	28c00115 	stw	r3,4(r5)
   83894:	8105883a 	add	r2,r16,r4
   83898:	28800015 	stw	r2,0(r5)
   8389c:	008001c4 	movi	r2,7
   838a0:	dc800e15 	stw	r18,56(sp)
   838a4:	147f1d16 	blt	r2,r17,8351c <___vfprintf_internal_r+0xb90>
   838a8:	28c00204 	addi	r3,r5,8
   838ac:	003db506 	br	82f84 <___vfprintf_internal_r+0x5f8>
   838b0:	3c000017 	ldw	r16,0(r7)
   838b4:	3c400117 	ldw	r17,4(r7)
   838b8:	39800204 	addi	r6,r7,8
   838bc:	01000044 	movi	r4,1
   838c0:	d9814015 	stw	r6,1280(sp)
   838c4:	d8000405 	stb	zero,16(sp)
   838c8:	003ebe06 	br	833c4 <___vfprintf_internal_r+0xa38>
   838cc:	3c000017 	ldw	r16,0(r7)
   838d0:	3c400117 	ldw	r17,4(r7)
   838d4:	38800204 	addi	r2,r7,8
   838d8:	d8814015 	stw	r2,1280(sp)
   838dc:	003eb706 	br	833bc <___vfprintf_internal_r+0xa30>
   838e0:	3c000017 	ldw	r16,0(r7)
   838e4:	3c400117 	ldw	r17,4(r7)
   838e8:	39000204 	addi	r4,r7,8
   838ec:	d9014015 	stw	r4,1280(sp)
   838f0:	0009883a 	mov	r4,zero
   838f4:	d8000405 	stb	zero,16(sp)
   838f8:	003eb206 	br	833c4 <___vfprintf_internal_r+0xa38>
   838fc:	38c00017 	ldw	r3,0(r7)
   83900:	39c00104 	addi	r7,r7,4
   83904:	d8c14a15 	stw	r3,1320(sp)
   83908:	1800d70e 	bge	r3,zero,83c68 <___vfprintf_internal_r+0x12dc>
   8390c:	00c7c83a 	sub	r3,zero,r3
   83910:	d8c14a15 	stw	r3,1320(sp)
   83914:	d9014c17 	ldw	r4,1328(sp)
   83918:	b8c00007 	ldb	r3,0(r23)
   8391c:	21000114 	ori	r4,r4,4
   83920:	d9014c15 	stw	r4,1328(sp)
   83924:	003c9806 	br	82b88 <___vfprintf_internal_r+0x1fc>
   83928:	d9814c17 	ldw	r6,1328(sp)
   8392c:	3080080c 	andi	r2,r6,32
   83930:	1001f626 	beq	r2,zero,8410c <___vfprintf_internal_r+0x1780>
   83934:	d9014b17 	ldw	r4,1324(sp)
   83938:	38800017 	ldw	r2,0(r7)
   8393c:	39c00104 	addi	r7,r7,4
   83940:	d9c14015 	stw	r7,1280(sp)
   83944:	2007d7fa 	srai	r3,r4,31
   83948:	d9c14017 	ldw	r7,1280(sp)
   8394c:	11000015 	stw	r4,0(r2)
   83950:	10c00115 	stw	r3,4(r2)
   83954:	003c6906 	br	82afc <___vfprintf_internal_r+0x170>
   83958:	b8c00007 	ldb	r3,0(r23)
   8395c:	00801b04 	movi	r2,108
   83960:	18825526 	beq	r3,r2,842b8 <___vfprintf_internal_r+0x192c>
   83964:	d9414c17 	ldw	r5,1328(sp)
   83968:	29400414 	ori	r5,r5,16
   8396c:	d9414c15 	stw	r5,1328(sp)
   83970:	003c8506 	br	82b88 <___vfprintf_internal_r+0x1fc>
   83974:	d9814c17 	ldw	r6,1328(sp)
   83978:	b8c00007 	ldb	r3,0(r23)
   8397c:	31800814 	ori	r6,r6,32
   83980:	d9814c15 	stw	r6,1328(sp)
   83984:	003c8006 	br	82b88 <___vfprintf_internal_r+0x1fc>
   83988:	d8814c17 	ldw	r2,1328(sp)
   8398c:	3c000017 	ldw	r16,0(r7)
   83990:	00c01e04 	movi	r3,120
   83994:	10800094 	ori	r2,r2,2
   83998:	d8814c15 	stw	r2,1328(sp)
   8399c:	39c00104 	addi	r7,r7,4
   839a0:	014002b4 	movhi	r5,10
   839a4:	2963d304 	addi	r5,r5,-28852
   839a8:	00800c04 	movi	r2,48
   839ac:	0023883a 	mov	r17,zero
   839b0:	01000084 	movi	r4,2
   839b4:	d9c14015 	stw	r7,1280(sp)
   839b8:	d8c14d15 	stw	r3,1332(sp)
   839bc:	d9414415 	stw	r5,1296(sp)
   839c0:	d8800445 	stb	r2,17(sp)
   839c4:	d8c00485 	stb	r3,18(sp)
   839c8:	d8000405 	stb	zero,16(sp)
   839cc:	003e7d06 	br	833c4 <___vfprintf_internal_r+0xa38>
   839d0:	d8814c17 	ldw	r2,1328(sp)
   839d4:	b8c00007 	ldb	r3,0(r23)
   839d8:	10801014 	ori	r2,r2,64
   839dc:	d8814c15 	stw	r2,1328(sp)
   839e0:	003c6906 	br	82b88 <___vfprintf_internal_r+0x1fc>
   839e4:	d9414c17 	ldw	r5,1328(sp)
   839e8:	2880020c 	andi	r2,r5,8
   839ec:	1001e526 	beq	r2,zero,84184 <___vfprintf_internal_r+0x17f8>
   839f0:	39800017 	ldw	r6,0(r7)
   839f4:	38800204 	addi	r2,r7,8
   839f8:	d8814015 	stw	r2,1280(sp)
   839fc:	d9814215 	stw	r6,1288(sp)
   83a00:	39c00117 	ldw	r7,4(r7)
   83a04:	d9c14315 	stw	r7,1292(sp)
   83a08:	d9014217 	ldw	r4,1288(sp)
   83a0c:	d9414317 	ldw	r5,1292(sp)
   83a10:	008943c0 	call	8943c <__isinfd>
   83a14:	10021d26 	beq	r2,zero,8428c <___vfprintf_internal_r+0x1900>
   83a18:	d9014217 	ldw	r4,1288(sp)
   83a1c:	d9414317 	ldw	r5,1292(sp)
   83a20:	000d883a 	mov	r6,zero
   83a24:	000f883a 	mov	r7,zero
   83a28:	008b6fc0 	call	8b6fc <__ltdf2>
   83a2c:	1002d016 	blt	r2,zero,84570 <___vfprintf_internal_r+0x1be4>
   83a30:	d9414d17 	ldw	r5,1332(sp)
   83a34:	008011c4 	movi	r2,71
   83a38:	11421016 	blt	r2,r5,8427c <___vfprintf_internal_r+0x18f0>
   83a3c:	018002b4 	movhi	r6,10
   83a40:	31a3d804 	addi	r6,r6,-28832
   83a44:	d9814115 	stw	r6,1284(sp)
   83a48:	d9014c17 	ldw	r4,1328(sp)
   83a4c:	00c000c4 	movi	r3,3
   83a50:	00bfdfc4 	movi	r2,-129
   83a54:	2088703a 	and	r4,r4,r2
   83a58:	180f883a 	mov	r7,r3
   83a5c:	d8c14515 	stw	r3,1300(sp)
   83a60:	d9014c15 	stw	r4,1328(sp)
   83a64:	d8014615 	stw	zero,1304(sp)
   83a68:	003e6a06 	br	83414 <___vfprintf_internal_r+0xa88>
   83a6c:	38800017 	ldw	r2,0(r7)
   83a70:	00c00044 	movi	r3,1
   83a74:	39c00104 	addi	r7,r7,4
   83a78:	d9c14015 	stw	r7,1280(sp)
   83a7c:	d9000f04 	addi	r4,sp,60
   83a80:	180f883a 	mov	r7,r3
   83a84:	d8c14515 	stw	r3,1300(sp)
   83a88:	d9014115 	stw	r4,1284(sp)
   83a8c:	d8800f05 	stb	r2,60(sp)
   83a90:	d8000405 	stb	zero,16(sp)
   83a94:	003cac06 	br	82d48 <___vfprintf_internal_r+0x3bc>
   83a98:	014002b4 	movhi	r5,10
   83a9c:	2963de04 	addi	r5,r5,-28808
   83aa0:	d9414415 	stw	r5,1296(sp)
   83aa4:	d9814c17 	ldw	r6,1328(sp)
   83aa8:	3080080c 	andi	r2,r6,32
   83aac:	1000ff26 	beq	r2,zero,83eac <___vfprintf_internal_r+0x1520>
   83ab0:	3c000017 	ldw	r16,0(r7)
   83ab4:	3c400117 	ldw	r17,4(r7)
   83ab8:	38800204 	addi	r2,r7,8
   83abc:	d8814015 	stw	r2,1280(sp)
   83ac0:	d9414c17 	ldw	r5,1328(sp)
   83ac4:	2880004c 	andi	r2,r5,1
   83ac8:	1005003a 	cmpeq	r2,r2,zero
   83acc:	1000b91e 	bne	r2,zero,83db4 <___vfprintf_internal_r+0x1428>
   83ad0:	8444b03a 	or	r2,r16,r17
   83ad4:	1000b726 	beq	r2,zero,83db4 <___vfprintf_internal_r+0x1428>
   83ad8:	d9814d17 	ldw	r6,1332(sp)
   83adc:	29400094 	ori	r5,r5,2
   83ae0:	00800c04 	movi	r2,48
   83ae4:	01000084 	movi	r4,2
   83ae8:	d9414c15 	stw	r5,1328(sp)
   83aec:	d8800445 	stb	r2,17(sp)
   83af0:	d9800485 	stb	r6,18(sp)
   83af4:	d8000405 	stb	zero,16(sp)
   83af8:	003e3206 	br	833c4 <___vfprintf_internal_r+0xa38>
   83afc:	018002b4 	movhi	r6,10
   83b00:	31a3d304 	addi	r6,r6,-28852
   83b04:	d9814415 	stw	r6,1296(sp)
   83b08:	003fe606 	br	83aa4 <___vfprintf_internal_r+0x1118>
   83b0c:	00800ac4 	movi	r2,43
   83b10:	d8800405 	stb	r2,16(sp)
   83b14:	b8c00007 	ldb	r3,0(r23)
   83b18:	003c1b06 	br	82b88 <___vfprintf_internal_r+0x1fc>
   83b1c:	d8814c17 	ldw	r2,1328(sp)
   83b20:	b8c00007 	ldb	r3,0(r23)
   83b24:	10800054 	ori	r2,r2,1
   83b28:	d8814c15 	stw	r2,1328(sp)
   83b2c:	003c1606 	br	82b88 <___vfprintf_internal_r+0x1fc>
   83b30:	d8800407 	ldb	r2,16(sp)
   83b34:	10004c1e 	bne	r2,zero,83c68 <___vfprintf_internal_r+0x12dc>
   83b38:	00800804 	movi	r2,32
   83b3c:	d8800405 	stb	r2,16(sp)
   83b40:	b8c00007 	ldb	r3,0(r23)
   83b44:	003c1006 	br	82b88 <___vfprintf_internal_r+0x1fc>
   83b48:	d9814c17 	ldw	r6,1328(sp)
   83b4c:	b8c00007 	ldb	r3,0(r23)
   83b50:	31800214 	ori	r6,r6,8
   83b54:	d9814c15 	stw	r6,1328(sp)
   83b58:	003c0b06 	br	82b88 <___vfprintf_internal_r+0x1fc>
   83b5c:	0009883a 	mov	r4,zero
   83b60:	04000244 	movi	r16,9
   83b64:	01400284 	movi	r5,10
   83b68:	d9c15115 	stw	r7,1348(sp)
   83b6c:	008257c0 	call	8257c <__mulsi3>
   83b70:	b9000007 	ldb	r4,0(r23)
   83b74:	d8c14d17 	ldw	r3,1332(sp)
   83b78:	bdc00044 	addi	r23,r23,1
   83b7c:	d9014d15 	stw	r4,1332(sp)
   83b80:	d9414d17 	ldw	r5,1332(sp)
   83b84:	1885883a 	add	r2,r3,r2
   83b88:	113ff404 	addi	r4,r2,-48
   83b8c:	28bff404 	addi	r2,r5,-48
   83b90:	d9c15117 	ldw	r7,1348(sp)
   83b94:	80bff32e 	bgeu	r16,r2,83b64 <___vfprintf_internal_r+0x11d8>
   83b98:	d9014a15 	stw	r4,1320(sp)
   83b9c:	003bfc06 	br	82b90 <___vfprintf_internal_r+0x204>
   83ba0:	d8814c17 	ldw	r2,1328(sp)
   83ba4:	b8c00007 	ldb	r3,0(r23)
   83ba8:	10802014 	ori	r2,r2,128
   83bac:	d8814c15 	stw	r2,1328(sp)
   83bb0:	003bf506 	br	82b88 <___vfprintf_internal_r+0x1fc>
   83bb4:	b8c00007 	ldb	r3,0(r23)
   83bb8:	00800a84 	movi	r2,42
   83bbc:	bdc00044 	addi	r23,r23,1
   83bc0:	18831826 	beq	r3,r2,84824 <___vfprintf_internal_r+0x1e98>
   83bc4:	d8c14d15 	stw	r3,1332(sp)
   83bc8:	18bff404 	addi	r2,r3,-48
   83bcc:	00c00244 	movi	r3,9
   83bd0:	18827b36 	bltu	r3,r2,845c0 <___vfprintf_internal_r+0x1c34>
   83bd4:	1821883a 	mov	r16,r3
   83bd8:	0009883a 	mov	r4,zero
   83bdc:	01400284 	movi	r5,10
   83be0:	d9c15115 	stw	r7,1348(sp)
   83be4:	008257c0 	call	8257c <__mulsi3>
   83be8:	d9414d17 	ldw	r5,1332(sp)
   83bec:	b9800007 	ldb	r6,0(r23)
   83bf0:	d9c15117 	ldw	r7,1348(sp)
   83bf4:	1145883a 	add	r2,r2,r5
   83bf8:	113ff404 	addi	r4,r2,-48
   83bfc:	30bff404 	addi	r2,r6,-48
   83c00:	d9814d15 	stw	r6,1332(sp)
   83c04:	bdc00044 	addi	r23,r23,1
   83c08:	80bff42e 	bgeu	r16,r2,83bdc <___vfprintf_internal_r+0x1250>
   83c0c:	2027883a 	mov	r19,r4
   83c10:	203bdf0e 	bge	r4,zero,82b90 <___vfprintf_internal_r+0x204>
   83c14:	04ffffc4 	movi	r19,-1
   83c18:	003bdd06 	br	82b90 <___vfprintf_internal_r+0x204>
   83c1c:	d8000405 	stb	zero,16(sp)
   83c20:	39800017 	ldw	r6,0(r7)
   83c24:	39c00104 	addi	r7,r7,4
   83c28:	d9c14015 	stw	r7,1280(sp)
   83c2c:	d9814115 	stw	r6,1284(sp)
   83c30:	3001c926 	beq	r6,zero,84358 <___vfprintf_internal_r+0x19cc>
   83c34:	98000e16 	blt	r19,zero,83c70 <___vfprintf_internal_r+0x12e4>
   83c38:	d9014117 	ldw	r4,1284(sp)
   83c3c:	000b883a 	mov	r5,zero
   83c40:	980d883a 	mov	r6,r19
   83c44:	0087ac00 	call	87ac0 <memchr>
   83c48:	10025926 	beq	r2,zero,845b0 <___vfprintf_internal_r+0x1c24>
   83c4c:	d8c14117 	ldw	r3,1284(sp)
   83c50:	10cfc83a 	sub	r7,r2,r3
   83c54:	99c19e16 	blt	r19,r7,842d0 <___vfprintf_internal_r+0x1944>
   83c58:	d9c14515 	stw	r7,1300(sp)
   83c5c:	38000916 	blt	r7,zero,83c84 <___vfprintf_internal_r+0x12f8>
   83c60:	d8014615 	stw	zero,1304(sp)
   83c64:	003deb06 	br	83414 <___vfprintf_internal_r+0xa88>
   83c68:	b8c00007 	ldb	r3,0(r23)
   83c6c:	003bc606 	br	82b88 <___vfprintf_internal_r+0x1fc>
   83c70:	d9014117 	ldw	r4,1284(sp)
   83c74:	00828c00 	call	828c0 <strlen>
   83c78:	d8814515 	stw	r2,1300(sp)
   83c7c:	100f883a 	mov	r7,r2
   83c80:	103ff70e 	bge	r2,zero,83c60 <___vfprintf_internal_r+0x12d4>
   83c84:	d8014515 	stw	zero,1300(sp)
   83c88:	d8014615 	stw	zero,1304(sp)
   83c8c:	003de106 	br	83414 <___vfprintf_internal_r+0xa88>
   83c90:	20c03fcc 	andi	r3,r4,255
   83c94:	00800044 	movi	r2,1
   83c98:	18802d26 	beq	r3,r2,83d50 <___vfprintf_internal_r+0x13c4>
   83c9c:	18800e36 	bltu	r3,r2,83cd8 <___vfprintf_internal_r+0x134c>
   83ca0:	00800084 	movi	r2,2
   83ca4:	1880fa26 	beq	r3,r2,84090 <___vfprintf_internal_r+0x1704>
   83ca8:	010002b4 	movhi	r4,10
   83cac:	2123e304 	addi	r4,r4,-28788
   83cb0:	00828c00 	call	828c0 <strlen>
   83cb4:	100f883a 	mov	r7,r2
   83cb8:	dcc14515 	stw	r19,1300(sp)
   83cbc:	9880010e 	bge	r19,r2,83cc4 <___vfprintf_internal_r+0x1338>
   83cc0:	d8814515 	stw	r2,1300(sp)
   83cc4:	008002b4 	movhi	r2,10
   83cc8:	10a3e304 	addi	r2,r2,-28788
   83ccc:	dcc14615 	stw	r19,1304(sp)
   83cd0:	d8814115 	stw	r2,1284(sp)
   83cd4:	003dcf06 	br	83414 <___vfprintf_internal_r+0xa88>
   83cd8:	d9401904 	addi	r5,sp,100
   83cdc:	dd000f04 	addi	r20,sp,60
   83ce0:	d9414115 	stw	r5,1284(sp)
   83ce4:	880a977a 	slli	r5,r17,29
   83ce8:	d9814117 	ldw	r6,1284(sp)
   83cec:	8004d0fa 	srli	r2,r16,3
   83cf0:	8806d0fa 	srli	r3,r17,3
   83cf4:	810001cc 	andi	r4,r16,7
   83cf8:	2884b03a 	or	r2,r5,r2
   83cfc:	31bfffc4 	addi	r6,r6,-1
   83d00:	21000c04 	addi	r4,r4,48
   83d04:	d9814115 	stw	r6,1284(sp)
   83d08:	10cab03a 	or	r5,r2,r3
   83d0c:	31000005 	stb	r4,0(r6)
   83d10:	1021883a 	mov	r16,r2
   83d14:	1823883a 	mov	r17,r3
   83d18:	283ff21e 	bne	r5,zero,83ce4 <___vfprintf_internal_r+0x1358>
   83d1c:	d8c14c17 	ldw	r3,1328(sp)
   83d20:	1880004c 	andi	r2,r3,1
   83d24:	1005003a 	cmpeq	r2,r2,zero
   83d28:	103db31e 	bne	r2,zero,833f8 <___vfprintf_internal_r+0xa6c>
   83d2c:	20803fcc 	andi	r2,r4,255
   83d30:	1080201c 	xori	r2,r2,128
   83d34:	10bfe004 	addi	r2,r2,-128
   83d38:	00c00c04 	movi	r3,48
   83d3c:	10fdae26 	beq	r2,r3,833f8 <___vfprintf_internal_r+0xa6c>
   83d40:	31bfffc4 	addi	r6,r6,-1
   83d44:	d9814115 	stw	r6,1284(sp)
   83d48:	30c00005 	stb	r3,0(r6)
   83d4c:	003daa06 	br	833f8 <___vfprintf_internal_r+0xa6c>
   83d50:	88800068 	cmpgeui	r2,r17,1
   83d54:	10002c1e 	bne	r2,zero,83e08 <___vfprintf_internal_r+0x147c>
   83d58:	8800021e 	bne	r17,zero,83d64 <___vfprintf_internal_r+0x13d8>
   83d5c:	00800244 	movi	r2,9
   83d60:	14002936 	bltu	r2,r16,83e08 <___vfprintf_internal_r+0x147c>
   83d64:	d90018c4 	addi	r4,sp,99
   83d68:	dd000f04 	addi	r20,sp,60
   83d6c:	d9014115 	stw	r4,1284(sp)
   83d70:	d9014117 	ldw	r4,1284(sp)
   83d74:	80800c04 	addi	r2,r16,48
   83d78:	20800005 	stb	r2,0(r4)
   83d7c:	003d9e06 	br	833f8 <___vfprintf_internal_r+0xa6c>
   83d80:	dc400d17 	ldw	r17,52(sp)
   83d84:	070002b4 	movhi	fp,10
   83d88:	e723ea84 	addi	fp,fp,-28758
   83d8c:	9425883a 	add	r18,r18,r16
   83d90:	8c400044 	addi	r17,r17,1
   83d94:	008001c4 	movi	r2,7
   83d98:	1f000015 	stw	fp,0(r3)
   83d9c:	1c000115 	stw	r16,4(r3)
   83da0:	dc800e15 	stw	r18,56(sp)
   83da4:	dc400d15 	stw	r17,52(sp)
   83da8:	147ddc16 	blt	r2,r17,8351c <___vfprintf_internal_r+0xb90>
   83dac:	18c00204 	addi	r3,r3,8
   83db0:	003c7406 	br	82f84 <___vfprintf_internal_r+0x5f8>
   83db4:	01000084 	movi	r4,2
   83db8:	d8000405 	stb	zero,16(sp)
   83dbc:	003d8106 	br	833c4 <___vfprintf_internal_r+0xa38>
   83dc0:	d9814c17 	ldw	r6,1328(sp)
   83dc4:	30c4703a 	and	r2,r6,r3
   83dc8:	1005003a 	cmpeq	r2,r2,zero
   83dcc:	103cb326 	beq	r2,zero,8309c <___vfprintf_internal_r+0x710>
   83dd0:	d9014117 	ldw	r4,1284(sp)
   83dd4:	94800044 	addi	r18,r18,1
   83dd8:	8c400044 	addi	r17,r17,1
   83ddc:	008001c4 	movi	r2,7
   83de0:	a9000015 	stw	r4,0(r21)
   83de4:	a8c00115 	stw	r3,4(r21)
   83de8:	dc800e15 	stw	r18,56(sp)
   83dec:	dc400d15 	stw	r17,52(sp)
   83df0:	147e6016 	blt	r2,r17,83774 <___vfprintf_internal_r+0xde8>
   83df4:	acc00204 	addi	r19,r21,8
   83df8:	003cd106 	br	83140 <___vfprintf_internal_r+0x7b4>
   83dfc:	070002b4 	movhi	fp,10
   83e00:	e723ea84 	addi	fp,fp,-28758
   83e04:	003c4906 	br	82f2c <___vfprintf_internal_r+0x5a0>
   83e08:	dd000f04 	addi	r20,sp,60
   83e0c:	dc801904 	addi	r18,sp,100
   83e10:	8009883a 	mov	r4,r16
   83e14:	880b883a 	mov	r5,r17
   83e18:	01800284 	movi	r6,10
   83e1c:	000f883a 	mov	r7,zero
   83e20:	008a35c0 	call	8a35c <__umoddi3>
   83e24:	12000c04 	addi	r8,r2,48
   83e28:	94bfffc4 	addi	r18,r18,-1
   83e2c:	8009883a 	mov	r4,r16
   83e30:	880b883a 	mov	r5,r17
   83e34:	01800284 	movi	r6,10
   83e38:	000f883a 	mov	r7,zero
   83e3c:	92000005 	stb	r8,0(r18)
   83e40:	0089cf00 	call	89cf0 <__udivdi3>
   83e44:	1009883a 	mov	r4,r2
   83e48:	1021883a 	mov	r16,r2
   83e4c:	18800068 	cmpgeui	r2,r3,1
   83e50:	1823883a 	mov	r17,r3
   83e54:	103fee1e 	bne	r2,zero,83e10 <___vfprintf_internal_r+0x1484>
   83e58:	1800021e 	bne	r3,zero,83e64 <___vfprintf_internal_r+0x14d8>
   83e5c:	00800244 	movi	r2,9
   83e60:	113feb36 	bltu	r2,r4,83e10 <___vfprintf_internal_r+0x1484>
   83e64:	94bfffc4 	addi	r18,r18,-1
   83e68:	dc814115 	stw	r18,1284(sp)
   83e6c:	003fc006 	br	83d70 <___vfprintf_internal_r+0x13e4>
   83e70:	d9014c17 	ldw	r4,1328(sp)
   83e74:	2080004c 	andi	r2,r4,1
   83e78:	10009a1e 	bne	r2,zero,840e4 <___vfprintf_internal_r+0x1758>
   83e7c:	d9401904 	addi	r5,sp,100
   83e80:	dd000f04 	addi	r20,sp,60
   83e84:	d9414115 	stw	r5,1284(sp)
   83e88:	003d5b06 	br	833f8 <___vfprintf_internal_r+0xa6c>
   83e8c:	d9014f17 	ldw	r4,1340(sp)
   83e90:	b00b883a 	mov	r5,r22
   83e94:	d9800c04 	addi	r6,sp,48
   83e98:	00829340 	call	82934 <__sprint_r>
   83e9c:	103c731e 	bne	r2,zero,8306c <___vfprintf_internal_r+0x6e0>
   83ea0:	dc800e17 	ldw	r18,56(sp)
   83ea4:	d8c01904 	addi	r3,sp,100
   83ea8:	003cf906 	br	83290 <___vfprintf_internal_r+0x904>
   83eac:	d8c14c17 	ldw	r3,1328(sp)
   83eb0:	1880040c 	andi	r2,r3,16
   83eb4:	1000711e 	bne	r2,zero,8407c <___vfprintf_internal_r+0x16f0>
   83eb8:	d9014c17 	ldw	r4,1328(sp)
   83ebc:	2080100c 	andi	r2,r4,64
   83ec0:	10006e26 	beq	r2,zero,8407c <___vfprintf_internal_r+0x16f0>
   83ec4:	3c00000b 	ldhu	r16,0(r7)
   83ec8:	0023883a 	mov	r17,zero
   83ecc:	39c00104 	addi	r7,r7,4
   83ed0:	d9c14015 	stw	r7,1280(sp)
   83ed4:	003efa06 	br	83ac0 <___vfprintf_internal_r+0x1134>
   83ed8:	dc400d17 	ldw	r17,52(sp)
   83edc:	070002b4 	movhi	fp,10
   83ee0:	e723ea84 	addi	fp,fp,-28758
   83ee4:	9425883a 	add	r18,r18,r16
   83ee8:	8c400044 	addi	r17,r17,1
   83eec:	008001c4 	movi	r2,7
   83ef0:	1f000015 	stw	fp,0(r3)
   83ef4:	1c000115 	stw	r16,4(r3)
   83ef8:	dc800e15 	stw	r18,56(sp)
   83efc:	dc400d15 	stw	r17,52(sp)
   83f00:	147d7016 	blt	r2,r17,834c4 <___vfprintf_internal_r+0xb38>
   83f04:	18c00204 	addi	r3,r3,8
   83f08:	003d7506 	br	834e0 <___vfprintf_internal_r+0xb54>
   83f0c:	dc800e17 	ldw	r18,56(sp)
   83f10:	dc400d17 	ldw	r17,52(sp)
   83f14:	070002b4 	movhi	fp,10
   83f18:	e723ee84 	addi	fp,fp,-28742
   83f1c:	003bba06 	br	82e08 <___vfprintf_internal_r+0x47c>
   83f20:	d9014f17 	ldw	r4,1340(sp)
   83f24:	b00b883a 	mov	r5,r22
   83f28:	d9800c04 	addi	r6,sp,48
   83f2c:	00829340 	call	82934 <__sprint_r>
   83f30:	103c4e1e 	bne	r2,zero,8306c <___vfprintf_internal_r+0x6e0>
   83f34:	dc800e17 	ldw	r18,56(sp)
   83f38:	d8c01904 	addi	r3,sp,100
   83f3c:	003ce306 	br	832cc <___vfprintf_internal_r+0x940>
   83f40:	3c000017 	ldw	r16,0(r7)
   83f44:	0009883a 	mov	r4,zero
   83f48:	39c00104 	addi	r7,r7,4
   83f4c:	0023883a 	mov	r17,zero
   83f50:	d9c14015 	stw	r7,1280(sp)
   83f54:	d8000405 	stb	zero,16(sp)
   83f58:	003d1a06 	br	833c4 <___vfprintf_internal_r+0xa38>
   83f5c:	38800017 	ldw	r2,0(r7)
   83f60:	39c00104 	addi	r7,r7,4
   83f64:	d9c14015 	stw	r7,1280(sp)
   83f68:	1023d7fa 	srai	r17,r2,31
   83f6c:	1021883a 	mov	r16,r2
   83f70:	003d1206 	br	833bc <___vfprintf_internal_r+0xa30>
   83f74:	3c000017 	ldw	r16,0(r7)
   83f78:	01000044 	movi	r4,1
   83f7c:	39c00104 	addi	r7,r7,4
   83f80:	0023883a 	mov	r17,zero
   83f84:	d9c14015 	stw	r7,1280(sp)
   83f88:	d8000405 	stb	zero,16(sp)
   83f8c:	003d0d06 	br	833c4 <___vfprintf_internal_r+0xa38>
   83f90:	008002b4 	movhi	r2,10
   83f94:	10a3ea04 	addi	r2,r2,-28760
   83f98:	94800044 	addi	r18,r18,1
   83f9c:	8c400044 	addi	r17,r17,1
   83fa0:	a8800015 	stw	r2,0(r21)
   83fa4:	00c00044 	movi	r3,1
   83fa8:	008001c4 	movi	r2,7
   83fac:	a8c00115 	stw	r3,4(r21)
   83fb0:	dc800e15 	stw	r18,56(sp)
   83fb4:	dc400d15 	stw	r17,52(sp)
   83fb8:	1440ca16 	blt	r2,r17,842e4 <___vfprintf_internal_r+0x1958>
   83fbc:	a8c00204 	addi	r3,r21,8
   83fc0:	2000061e 	bne	r4,zero,83fdc <___vfprintf_internal_r+0x1650>
   83fc4:	d9414717 	ldw	r5,1308(sp)
   83fc8:	2800041e 	bne	r5,zero,83fdc <___vfprintf_internal_r+0x1650>
   83fcc:	d9814c17 	ldw	r6,1328(sp)
   83fd0:	3080004c 	andi	r2,r6,1
   83fd4:	1005003a 	cmpeq	r2,r2,zero
   83fd8:	103bea1e 	bne	r2,zero,82f84 <___vfprintf_internal_r+0x5f8>
   83fdc:	00800044 	movi	r2,1
   83fe0:	dc400d17 	ldw	r17,52(sp)
   83fe4:	18800115 	stw	r2,4(r3)
   83fe8:	d8814917 	ldw	r2,1316(sp)
   83fec:	94800044 	addi	r18,r18,1
   83ff0:	8c400044 	addi	r17,r17,1
   83ff4:	18800015 	stw	r2,0(r3)
   83ff8:	008001c4 	movi	r2,7
   83ffc:	dc800e15 	stw	r18,56(sp)
   84000:	dc400d15 	stw	r17,52(sp)
   84004:	1440ca16 	blt	r2,r17,84330 <___vfprintf_internal_r+0x19a4>
   84008:	18c00204 	addi	r3,r3,8
   8400c:	0121c83a 	sub	r16,zero,r4
   84010:	0400500e 	bge	zero,r16,84154 <___vfprintf_internal_r+0x17c8>
   84014:	00800404 	movi	r2,16
   84018:	1400800e 	bge	r2,r16,8421c <___vfprintf_internal_r+0x1890>
   8401c:	1027883a 	mov	r19,r2
   84020:	070002b4 	movhi	fp,10
   84024:	e723ea84 	addi	fp,fp,-28758
   84028:	050001c4 	movi	r20,7
   8402c:	00000306 	br	8403c <___vfprintf_internal_r+0x16b0>
   84030:	18c00204 	addi	r3,r3,8
   84034:	843ffc04 	addi	r16,r16,-16
   84038:	9c007a0e 	bge	r19,r16,84224 <___vfprintf_internal_r+0x1898>
   8403c:	94800404 	addi	r18,r18,16
   84040:	8c400044 	addi	r17,r17,1
   84044:	1f000015 	stw	fp,0(r3)
   84048:	1cc00115 	stw	r19,4(r3)
   8404c:	dc800e15 	stw	r18,56(sp)
   84050:	dc400d15 	stw	r17,52(sp)
   84054:	a47ff60e 	bge	r20,r17,84030 <___vfprintf_internal_r+0x16a4>
   84058:	d9014f17 	ldw	r4,1340(sp)
   8405c:	b00b883a 	mov	r5,r22
   84060:	d9800c04 	addi	r6,sp,48
   84064:	00829340 	call	82934 <__sprint_r>
   84068:	103c001e 	bne	r2,zero,8306c <___vfprintf_internal_r+0x6e0>
   8406c:	dc800e17 	ldw	r18,56(sp)
   84070:	dc400d17 	ldw	r17,52(sp)
   84074:	d8c01904 	addi	r3,sp,100
   84078:	003fee06 	br	84034 <___vfprintf_internal_r+0x16a8>
   8407c:	3c000017 	ldw	r16,0(r7)
   84080:	0023883a 	mov	r17,zero
   84084:	39c00104 	addi	r7,r7,4
   84088:	d9c14015 	stw	r7,1280(sp)
   8408c:	003e8c06 	br	83ac0 <___vfprintf_internal_r+0x1134>
   84090:	d9401904 	addi	r5,sp,100
   84094:	dd000f04 	addi	r20,sp,60
   84098:	d9414115 	stw	r5,1284(sp)
   8409c:	d9814417 	ldw	r6,1296(sp)
   840a0:	880a973a 	slli	r5,r17,28
   840a4:	8004d13a 	srli	r2,r16,4
   840a8:	810003cc 	andi	r4,r16,15
   840ac:	3109883a 	add	r4,r6,r4
   840b0:	2884b03a 	or	r2,r5,r2
   840b4:	21400003 	ldbu	r5,0(r4)
   840b8:	d9014117 	ldw	r4,1284(sp)
   840bc:	8806d13a 	srli	r3,r17,4
   840c0:	1021883a 	mov	r16,r2
   840c4:	213fffc4 	addi	r4,r4,-1
   840c8:	d9014115 	stw	r4,1284(sp)
   840cc:	d9814117 	ldw	r6,1284(sp)
   840d0:	10c8b03a 	or	r4,r2,r3
   840d4:	1823883a 	mov	r17,r3
   840d8:	31400005 	stb	r5,0(r6)
   840dc:	203fef1e 	bne	r4,zero,8409c <___vfprintf_internal_r+0x1710>
   840e0:	003cc506 	br	833f8 <___vfprintf_internal_r+0xa6c>
   840e4:	00800c04 	movi	r2,48
   840e8:	d98018c4 	addi	r6,sp,99
   840ec:	dd000f04 	addi	r20,sp,60
   840f0:	d88018c5 	stb	r2,99(sp)
   840f4:	d9814115 	stw	r6,1284(sp)
   840f8:	003cbf06 	br	833f8 <___vfprintf_internal_r+0xa6c>
   840fc:	dc400d17 	ldw	r17,52(sp)
   84100:	070002b4 	movhi	fp,10
   84104:	e723ee84 	addi	fp,fp,-28742
   84108:	003bc106 	br	83010 <___vfprintf_internal_r+0x684>
   8410c:	d9414c17 	ldw	r5,1328(sp)
   84110:	2880040c 	andi	r2,r5,16
   84114:	10007c26 	beq	r2,zero,84308 <___vfprintf_internal_r+0x197c>
   84118:	38800017 	ldw	r2,0(r7)
   8411c:	39c00104 	addi	r7,r7,4
   84120:	d9c14015 	stw	r7,1280(sp)
   84124:	d9814b17 	ldw	r6,1324(sp)
   84128:	d9c14017 	ldw	r7,1280(sp)
   8412c:	11800015 	stw	r6,0(r2)
   84130:	003a7206 	br	82afc <___vfprintf_internal_r+0x170>
   84134:	d9014f17 	ldw	r4,1340(sp)
   84138:	b00b883a 	mov	r5,r22
   8413c:	d9800c04 	addi	r6,sp,48
   84140:	00829340 	call	82934 <__sprint_r>
   84144:	103bc91e 	bne	r2,zero,8306c <___vfprintf_internal_r+0x6e0>
   84148:	dc800e17 	ldw	r18,56(sp)
   8414c:	dc400d17 	ldw	r17,52(sp)
   84150:	d8c01904 	addi	r3,sp,100
   84154:	d9014717 	ldw	r4,1308(sp)
   84158:	d9414117 	ldw	r5,1284(sp)
   8415c:	8c400044 	addi	r17,r17,1
   84160:	9125883a 	add	r18,r18,r4
   84164:	008001c4 	movi	r2,7
   84168:	19400015 	stw	r5,0(r3)
   8416c:	19000115 	stw	r4,4(r3)
   84170:	dc800e15 	stw	r18,56(sp)
   84174:	dc400d15 	stw	r17,52(sp)
   84178:	147ce816 	blt	r2,r17,8351c <___vfprintf_internal_r+0xb90>
   8417c:	18c00204 	addi	r3,r3,8
   84180:	003b8006 	br	82f84 <___vfprintf_internal_r+0x5f8>
   84184:	38c00017 	ldw	r3,0(r7)
   84188:	39000204 	addi	r4,r7,8
   8418c:	d9014015 	stw	r4,1280(sp)
   84190:	d8c14215 	stw	r3,1288(sp)
   84194:	39c00117 	ldw	r7,4(r7)
   84198:	d9c14315 	stw	r7,1292(sp)
   8419c:	003e1a06 	br	83a08 <___vfprintf_internal_r+0x107c>
   841a0:	0005883a 	mov	r2,zero
   841a4:	1409c83a 	sub	r4,r2,r16
   841a8:	1105803a 	cmpltu	r2,r2,r4
   841ac:	044bc83a 	sub	r5,zero,r17
   841b0:	2885c83a 	sub	r2,r5,r2
   841b4:	2021883a 	mov	r16,r4
   841b8:	1023883a 	mov	r17,r2
   841bc:	01000044 	movi	r4,1
   841c0:	00800b44 	movi	r2,45
   841c4:	d8800405 	stb	r2,16(sp)
   841c8:	003c7e06 	br	833c4 <___vfprintf_internal_r+0xa38>
   841cc:	d9014f17 	ldw	r4,1340(sp)
   841d0:	b00b883a 	mov	r5,r22
   841d4:	d9800c04 	addi	r6,sp,48
   841d8:	00829340 	call	82934 <__sprint_r>
   841dc:	103ba31e 	bne	r2,zero,8306c <___vfprintf_internal_r+0x6e0>
   841e0:	dc800e17 	ldw	r18,56(sp)
   841e4:	dc400d17 	ldw	r17,52(sp)
   841e8:	d9000517 	ldw	r4,20(sp)
   841ec:	d9401904 	addi	r5,sp,100
   841f0:	003da106 	br	83878 <___vfprintf_internal_r+0xeec>
   841f4:	d9014f17 	ldw	r4,1340(sp)
   841f8:	b00b883a 	mov	r5,r22
   841fc:	d9800c04 	addi	r6,sp,48
   84200:	00829340 	call	82934 <__sprint_r>
   84204:	103b991e 	bne	r2,zero,8306c <___vfprintf_internal_r+0x6e0>
   84208:	dc800e17 	ldw	r18,56(sp)
   8420c:	dc400d17 	ldw	r17,52(sp)
   84210:	d9000517 	ldw	r4,20(sp)
   84214:	d8c01904 	addi	r3,sp,100
   84218:	003d8b06 	br	83848 <___vfprintf_internal_r+0xebc>
   8421c:	070002b4 	movhi	fp,10
   84220:	e723ea84 	addi	fp,fp,-28758
   84224:	9425883a 	add	r18,r18,r16
   84228:	8c400044 	addi	r17,r17,1
   8422c:	008001c4 	movi	r2,7
   84230:	1f000015 	stw	fp,0(r3)
   84234:	1c000115 	stw	r16,4(r3)
   84238:	dc800e15 	stw	r18,56(sp)
   8423c:	dc400d15 	stw	r17,52(sp)
   84240:	147fbc16 	blt	r2,r17,84134 <___vfprintf_internal_r+0x17a8>
   84244:	18c00204 	addi	r3,r3,8
   84248:	003fc206 	br	84154 <___vfprintf_internal_r+0x17c8>
   8424c:	d9014f17 	ldw	r4,1340(sp)
   84250:	b00b883a 	mov	r5,r22
   84254:	d9800c04 	addi	r6,sp,48
   84258:	00829340 	call	82934 <__sprint_r>
   8425c:	103b831e 	bne	r2,zero,8306c <___vfprintf_internal_r+0x6e0>
   84260:	dc800e17 	ldw	r18,56(sp)
   84264:	d9000517 	ldw	r4,20(sp)
   84268:	d8c01904 	addi	r3,sp,100
   8426c:	003cfc06 	br	83660 <___vfprintf_internal_r+0xcd4>
   84270:	070002b4 	movhi	fp,10
   84274:	e723ea84 	addi	fp,fp,-28758
   84278:	003bde06 	br	831f4 <___vfprintf_internal_r+0x868>
   8427c:	008002b4 	movhi	r2,10
   84280:	10a3d904 	addi	r2,r2,-28828
   84284:	d8814115 	stw	r2,1284(sp)
   84288:	003def06 	br	83a48 <___vfprintf_internal_r+0x10bc>
   8428c:	d9014217 	ldw	r4,1288(sp)
   84290:	d9414317 	ldw	r5,1292(sp)
   84294:	008947c0 	call	8947c <__isnand>
   84298:	10003926 	beq	r2,zero,84380 <___vfprintf_internal_r+0x19f4>
   8429c:	d9414d17 	ldw	r5,1332(sp)
   842a0:	008011c4 	movi	r2,71
   842a4:	1140ce16 	blt	r2,r5,845e0 <___vfprintf_internal_r+0x1c54>
   842a8:	018002b4 	movhi	r6,10
   842ac:	31a3da04 	addi	r6,r6,-28824
   842b0:	d9814115 	stw	r6,1284(sp)
   842b4:	003de406 	br	83a48 <___vfprintf_internal_r+0x10bc>
   842b8:	d9014c17 	ldw	r4,1328(sp)
   842bc:	bdc00044 	addi	r23,r23,1
   842c0:	b8c00007 	ldb	r3,0(r23)
   842c4:	21000814 	ori	r4,r4,32
   842c8:	d9014c15 	stw	r4,1328(sp)
   842cc:	003a2e06 	br	82b88 <___vfprintf_internal_r+0x1fc>
   842d0:	dcc14515 	stw	r19,1300(sp)
   842d4:	98011016 	blt	r19,zero,84718 <___vfprintf_internal_r+0x1d8c>
   842d8:	980f883a 	mov	r7,r19
   842dc:	d8014615 	stw	zero,1304(sp)
   842e0:	003c4c06 	br	83414 <___vfprintf_internal_r+0xa88>
   842e4:	d9014f17 	ldw	r4,1340(sp)
   842e8:	b00b883a 	mov	r5,r22
   842ec:	d9800c04 	addi	r6,sp,48
   842f0:	00829340 	call	82934 <__sprint_r>
   842f4:	103b5d1e 	bne	r2,zero,8306c <___vfprintf_internal_r+0x6e0>
   842f8:	dc800e17 	ldw	r18,56(sp)
   842fc:	d9000517 	ldw	r4,20(sp)
   84300:	d8c01904 	addi	r3,sp,100
   84304:	003f2e06 	br	83fc0 <___vfprintf_internal_r+0x1634>
   84308:	d8c14c17 	ldw	r3,1328(sp)
   8430c:	1880100c 	andi	r2,r3,64
   84310:	1000a026 	beq	r2,zero,84594 <___vfprintf_internal_r+0x1c08>
   84314:	38800017 	ldw	r2,0(r7)
   84318:	39c00104 	addi	r7,r7,4
   8431c:	d9c14015 	stw	r7,1280(sp)
   84320:	d9014b17 	ldw	r4,1324(sp)
   84324:	d9c14017 	ldw	r7,1280(sp)
   84328:	1100000d 	sth	r4,0(r2)
   8432c:	0039f306 	br	82afc <___vfprintf_internal_r+0x170>
   84330:	d9014f17 	ldw	r4,1340(sp)
   84334:	b00b883a 	mov	r5,r22
   84338:	d9800c04 	addi	r6,sp,48
   8433c:	00829340 	call	82934 <__sprint_r>
   84340:	103b4a1e 	bne	r2,zero,8306c <___vfprintf_internal_r+0x6e0>
   84344:	dc800e17 	ldw	r18,56(sp)
   84348:	dc400d17 	ldw	r17,52(sp)
   8434c:	d9000517 	ldw	r4,20(sp)
   84350:	d8c01904 	addi	r3,sp,100
   84354:	003f2d06 	br	8400c <___vfprintf_internal_r+0x1680>
   84358:	00800184 	movi	r2,6
   8435c:	14c09a36 	bltu	r2,r19,845c8 <___vfprintf_internal_r+0x1c3c>
   84360:	dcc14515 	stw	r19,1300(sp)
   84364:	9800010e 	bge	r19,zero,8436c <___vfprintf_internal_r+0x19e0>
   84368:	d8014515 	stw	zero,1300(sp)
   8436c:	008002b4 	movhi	r2,10
   84370:	10a3dc04 	addi	r2,r2,-28816
   84374:	980f883a 	mov	r7,r19
   84378:	d8814115 	stw	r2,1284(sp)
   8437c:	003a7206 	br	82d48 <___vfprintf_internal_r+0x3bc>
   84380:	00bfffc4 	movi	r2,-1
   84384:	9880e226 	beq	r19,r2,84710 <___vfprintf_internal_r+0x1d84>
   84388:	d9414d17 	ldw	r5,1332(sp)
   8438c:	008019c4 	movi	r2,103
   84390:	2880dc26 	beq	r5,r2,84704 <___vfprintf_internal_r+0x1d78>
   84394:	008011c4 	movi	r2,71
   84398:	2880da26 	beq	r5,r2,84704 <___vfprintf_internal_r+0x1d78>
   8439c:	d9414c17 	ldw	r5,1328(sp)
   843a0:	d9014317 	ldw	r4,1292(sp)
   843a4:	d9814217 	ldw	r6,1288(sp)
   843a8:	29404014 	ori	r5,r5,256
   843ac:	d9414c15 	stw	r5,1328(sp)
   843b0:	2000cc16 	blt	r4,zero,846e4 <___vfprintf_internal_r+0x1d58>
   843b4:	3021883a 	mov	r16,r6
   843b8:	2023883a 	mov	r17,r4
   843bc:	0039883a 	mov	fp,zero
   843c0:	d9414d17 	ldw	r5,1332(sp)
   843c4:	00801984 	movi	r2,102
   843c8:	2880b726 	beq	r5,r2,846a8 <___vfprintf_internal_r+0x1d1c>
   843cc:	00801184 	movi	r2,70
   843d0:	2880b526 	beq	r5,r2,846a8 <___vfprintf_internal_r+0x1d1c>
   843d4:	00801944 	movi	r2,101
   843d8:	2880c826 	beq	r5,r2,846fc <___vfprintf_internal_r+0x1d70>
   843dc:	00801144 	movi	r2,69
   843e0:	2880c626 	beq	r5,r2,846fc <___vfprintf_internal_r+0x1d70>
   843e4:	9829883a 	mov	r20,r19
   843e8:	d9014f17 	ldw	r4,1340(sp)
   843ec:	d8800504 	addi	r2,sp,20
   843f0:	880d883a 	mov	r6,r17
   843f4:	d8800115 	stw	r2,4(sp)
   843f8:	d8c00604 	addi	r3,sp,24
   843fc:	d8800704 	addi	r2,sp,28
   84400:	800b883a 	mov	r5,r16
   84404:	01c00084 	movi	r7,2
   84408:	d8c00215 	stw	r3,8(sp)
   8440c:	d8800315 	stw	r2,12(sp)
   84410:	dd000015 	stw	r20,0(sp)
   84414:	0084bf40 	call	84bf4 <_dtoa_r>
   84418:	d9814d17 	ldw	r6,1332(sp)
   8441c:	d8814115 	stw	r2,1284(sp)
   84420:	008019c4 	movi	r2,103
   84424:	30809526 	beq	r6,r2,8467c <___vfprintf_internal_r+0x1cf0>
   84428:	d8c14d17 	ldw	r3,1332(sp)
   8442c:	008011c4 	movi	r2,71
   84430:	18809226 	beq	r3,r2,8467c <___vfprintf_internal_r+0x1cf0>
   84434:	d9414117 	ldw	r5,1284(sp)
   84438:	d9814d17 	ldw	r6,1332(sp)
   8443c:	00801984 	movi	r2,102
   84440:	2d25883a 	add	r18,r5,r20
   84444:	30808626 	beq	r6,r2,84660 <___vfprintf_internal_r+0x1cd4>
   84448:	00801184 	movi	r2,70
   8444c:	30808426 	beq	r6,r2,84660 <___vfprintf_internal_r+0x1cd4>
   84450:	000d883a 	mov	r6,zero
   84454:	000f883a 	mov	r7,zero
   84458:	880b883a 	mov	r5,r17
   8445c:	8009883a 	mov	r4,r16
   84460:	008b4dc0 	call	8b4dc <__eqdf2>
   84464:	1000751e 	bne	r2,zero,8463c <___vfprintf_internal_r+0x1cb0>
   84468:	9005883a 	mov	r2,r18
   8446c:	dc800715 	stw	r18,28(sp)
   84470:	d9014117 	ldw	r4,1284(sp)
   84474:	d9414d17 	ldw	r5,1332(sp)
   84478:	00c019c4 	movi	r3,103
   8447c:	1125c83a 	sub	r18,r2,r4
   84480:	28c06826 	beq	r5,r3,84624 <___vfprintf_internal_r+0x1c98>
   84484:	008011c4 	movi	r2,71
   84488:	28806626 	beq	r5,r2,84624 <___vfprintf_internal_r+0x1c98>
   8448c:	d9000517 	ldw	r4,20(sp)
   84490:	d8c14d17 	ldw	r3,1332(sp)
   84494:	00801944 	movi	r2,101
   84498:	10c05516 	blt	r2,r3,845f0 <___vfprintf_internal_r+0x1c64>
   8449c:	213fffc4 	addi	r4,r4,-1
   844a0:	d9000515 	stw	r4,20(sp)
   844a4:	d8c00805 	stb	r3,32(sp)
   844a8:	2021883a 	mov	r16,r4
   844ac:	2000c116 	blt	r4,zero,847b4 <___vfprintf_internal_r+0x1e28>
   844b0:	00800ac4 	movi	r2,43
   844b4:	d8800845 	stb	r2,33(sp)
   844b8:	00800244 	movi	r2,9
   844bc:	1400af0e 	bge	r2,r16,8477c <___vfprintf_internal_r+0x1df0>
   844c0:	1027883a 	mov	r19,r2
   844c4:	dc400b84 	addi	r17,sp,46
   844c8:	8009883a 	mov	r4,r16
   844cc:	01400284 	movi	r5,10
   844d0:	008250c0 	call	8250c <__modsi3>
   844d4:	10800c04 	addi	r2,r2,48
   844d8:	8c7fffc4 	addi	r17,r17,-1
   844dc:	8009883a 	mov	r4,r16
   844e0:	01400284 	movi	r5,10
   844e4:	88800005 	stb	r2,0(r17)
   844e8:	00824ac0 	call	824ac <__divsi3>
   844ec:	1021883a 	mov	r16,r2
   844f0:	98bff516 	blt	r19,r2,844c8 <___vfprintf_internal_r+0x1b3c>
   844f4:	10c00c04 	addi	r3,r2,48
   844f8:	d88009c4 	addi	r2,sp,39
   844fc:	108001c4 	addi	r2,r2,7
   84500:	897fffc4 	addi	r5,r17,-1
   84504:	88ffffc5 	stb	r3,-1(r17)
   84508:	2880a72e 	bgeu	r5,r2,847a8 <___vfprintf_internal_r+0x1e1c>
   8450c:	1009883a 	mov	r4,r2
   84510:	d9800804 	addi	r6,sp,32
   84514:	d8c00884 	addi	r3,sp,34
   84518:	28800003 	ldbu	r2,0(r5)
   8451c:	29400044 	addi	r5,r5,1
   84520:	18800005 	stb	r2,0(r3)
   84524:	18c00044 	addi	r3,r3,1
   84528:	293ffb36 	bltu	r5,r4,84518 <___vfprintf_internal_r+0x1b8c>
   8452c:	1987c83a 	sub	r3,r3,r6
   84530:	00800044 	movi	r2,1
   84534:	d8c14815 	stw	r3,1312(sp)
   84538:	90cf883a 	add	r7,r18,r3
   8453c:	1480960e 	bge	r2,r18,84798 <___vfprintf_internal_r+0x1e0c>
   84540:	39c00044 	addi	r7,r7,1
   84544:	d9c14515 	stw	r7,1300(sp)
   84548:	38003416 	blt	r7,zero,8461c <___vfprintf_internal_r+0x1c90>
   8454c:	e0803fcc 	andi	r2,fp,255
   84550:	1080201c 	xori	r2,r2,128
   84554:	10bfe004 	addi	r2,r2,-128
   84558:	10004e26 	beq	r2,zero,84694 <___vfprintf_internal_r+0x1d08>
   8455c:	00800b44 	movi	r2,45
   84560:	dc814715 	stw	r18,1308(sp)
   84564:	d8014615 	stw	zero,1304(sp)
   84568:	d8800405 	stb	r2,16(sp)
   8456c:	003bab06 	br	8341c <___vfprintf_internal_r+0xa90>
   84570:	00800b44 	movi	r2,45
   84574:	d8800405 	stb	r2,16(sp)
   84578:	003d2d06 	br	83a30 <___vfprintf_internal_r+0x10a4>
   8457c:	d9014f17 	ldw	r4,1340(sp)
   84580:	b00b883a 	mov	r5,r22
   84584:	d9800c04 	addi	r6,sp,48
   84588:	00829340 	call	82934 <__sprint_r>
   8458c:	103ab71e 	bne	r2,zero,8306c <___vfprintf_internal_r+0x6e0>
   84590:	003ab506 	br	83068 <___vfprintf_internal_r+0x6dc>
   84594:	38800017 	ldw	r2,0(r7)
   84598:	39c00104 	addi	r7,r7,4
   8459c:	d9c14015 	stw	r7,1280(sp)
   845a0:	d9414b17 	ldw	r5,1324(sp)
   845a4:	d9c14017 	ldw	r7,1280(sp)
   845a8:	11400015 	stw	r5,0(r2)
   845ac:	00395306 	br	82afc <___vfprintf_internal_r+0x170>
   845b0:	980f883a 	mov	r7,r19
   845b4:	dcc14515 	stw	r19,1300(sp)
   845b8:	d8014615 	stw	zero,1304(sp)
   845bc:	003b9506 	br	83414 <___vfprintf_internal_r+0xa88>
   845c0:	0027883a 	mov	r19,zero
   845c4:	00397206 	br	82b90 <___vfprintf_internal_r+0x204>
   845c8:	00c002b4 	movhi	r3,10
   845cc:	18e3dc04 	addi	r3,r3,-28816
   845d0:	100f883a 	mov	r7,r2
   845d4:	d8814515 	stw	r2,1300(sp)
   845d8:	d8c14115 	stw	r3,1284(sp)
   845dc:	0039da06 	br	82d48 <___vfprintf_internal_r+0x3bc>
   845e0:	008002b4 	movhi	r2,10
   845e4:	10a3db04 	addi	r2,r2,-28820
   845e8:	d8814115 	stw	r2,1284(sp)
   845ec:	003d1606 	br	83a48 <___vfprintf_internal_r+0x10bc>
   845f0:	d9414d17 	ldw	r5,1332(sp)
   845f4:	00801984 	movi	r2,102
   845f8:	28804926 	beq	r5,r2,84720 <___vfprintf_internal_r+0x1d94>
   845fc:	200f883a 	mov	r7,r4
   84600:	24805716 	blt	r4,r18,84760 <___vfprintf_internal_r+0x1dd4>
   84604:	d9414c17 	ldw	r5,1328(sp)
   84608:	2880004c 	andi	r2,r5,1
   8460c:	10000126 	beq	r2,zero,84614 <___vfprintf_internal_r+0x1c88>
   84610:	21c00044 	addi	r7,r4,1
   84614:	d9c14515 	stw	r7,1300(sp)
   84618:	383fcc0e 	bge	r7,zero,8454c <___vfprintf_internal_r+0x1bc0>
   8461c:	d8014515 	stw	zero,1300(sp)
   84620:	003fca06 	br	8454c <___vfprintf_internal_r+0x1bc0>
   84624:	d9000517 	ldw	r4,20(sp)
   84628:	00bfff04 	movi	r2,-4
   8462c:	1100480e 	bge	r2,r4,84750 <___vfprintf_internal_r+0x1dc4>
   84630:	99004716 	blt	r19,r4,84750 <___vfprintf_internal_r+0x1dc4>
   84634:	d8c14d15 	stw	r3,1332(sp)
   84638:	003ff006 	br	845fc <___vfprintf_internal_r+0x1c70>
   8463c:	d8800717 	ldw	r2,28(sp)
   84640:	14bf8b2e 	bgeu	r2,r18,84470 <___vfprintf_internal_r+0x1ae4>
   84644:	9007883a 	mov	r3,r18
   84648:	01000c04 	movi	r4,48
   8464c:	11000005 	stb	r4,0(r2)
   84650:	10800044 	addi	r2,r2,1
   84654:	d8800715 	stw	r2,28(sp)
   84658:	18bffc1e 	bne	r3,r2,8464c <___vfprintf_internal_r+0x1cc0>
   8465c:	003f8406 	br	84470 <___vfprintf_internal_r+0x1ae4>
   84660:	d8814117 	ldw	r2,1284(sp)
   84664:	10c00007 	ldb	r3,0(r2)
   84668:	00800c04 	movi	r2,48
   8466c:	18805b26 	beq	r3,r2,847dc <___vfprintf_internal_r+0x1e50>
   84670:	d9000517 	ldw	r4,20(sp)
   84674:	9125883a 	add	r18,r18,r4
   84678:	003f7506 	br	84450 <___vfprintf_internal_r+0x1ac4>
   8467c:	d9014c17 	ldw	r4,1328(sp)
   84680:	2080004c 	andi	r2,r4,1
   84684:	1005003a 	cmpeq	r2,r2,zero
   84688:	103f6a26 	beq	r2,zero,84434 <___vfprintf_internal_r+0x1aa8>
   8468c:	d8800717 	ldw	r2,28(sp)
   84690:	003f7706 	br	84470 <___vfprintf_internal_r+0x1ae4>
   84694:	d9c14515 	stw	r7,1300(sp)
   84698:	38004d16 	blt	r7,zero,847d0 <___vfprintf_internal_r+0x1e44>
   8469c:	dc814715 	stw	r18,1308(sp)
   846a0:	d8014615 	stw	zero,1304(sp)
   846a4:	003b5b06 	br	83414 <___vfprintf_internal_r+0xa88>
   846a8:	d9014f17 	ldw	r4,1340(sp)
   846ac:	d8800504 	addi	r2,sp,20
   846b0:	d8800115 	stw	r2,4(sp)
   846b4:	d8c00604 	addi	r3,sp,24
   846b8:	d8800704 	addi	r2,sp,28
   846bc:	800b883a 	mov	r5,r16
   846c0:	880d883a 	mov	r6,r17
   846c4:	01c000c4 	movi	r7,3
   846c8:	d8c00215 	stw	r3,8(sp)
   846cc:	d8800315 	stw	r2,12(sp)
   846d0:	dcc00015 	stw	r19,0(sp)
   846d4:	9829883a 	mov	r20,r19
   846d8:	0084bf40 	call	84bf4 <_dtoa_r>
   846dc:	d8814115 	stw	r2,1284(sp)
   846e0:	003f5106 	br	84428 <___vfprintf_internal_r+0x1a9c>
   846e4:	d8c14217 	ldw	r3,1288(sp)
   846e8:	d9014317 	ldw	r4,1292(sp)
   846ec:	07000b44 	movi	fp,45
   846f0:	1821883a 	mov	r16,r3
   846f4:	2460003c 	xorhi	r17,r4,32768
   846f8:	003f3106 	br	843c0 <___vfprintf_internal_r+0x1a34>
   846fc:	9d000044 	addi	r20,r19,1
   84700:	003f3906 	br	843e8 <___vfprintf_internal_r+0x1a5c>
   84704:	983f251e 	bne	r19,zero,8439c <___vfprintf_internal_r+0x1a10>
   84708:	04c00044 	movi	r19,1
   8470c:	003f2306 	br	8439c <___vfprintf_internal_r+0x1a10>
   84710:	04c00184 	movi	r19,6
   84714:	003f2106 	br	8439c <___vfprintf_internal_r+0x1a10>
   84718:	d8014515 	stw	zero,1300(sp)
   8471c:	003eee06 	br	842d8 <___vfprintf_internal_r+0x194c>
   84720:	200f883a 	mov	r7,r4
   84724:	0100370e 	bge	zero,r4,84804 <___vfprintf_internal_r+0x1e78>
   84728:	9800031e 	bne	r19,zero,84738 <___vfprintf_internal_r+0x1dac>
   8472c:	d9814c17 	ldw	r6,1328(sp)
   84730:	3080004c 	andi	r2,r6,1
   84734:	103fb726 	beq	r2,zero,84614 <___vfprintf_internal_r+0x1c88>
   84738:	20800044 	addi	r2,r4,1
   8473c:	98a7883a 	add	r19,r19,r2
   84740:	dcc14515 	stw	r19,1300(sp)
   84744:	980f883a 	mov	r7,r19
   84748:	983f800e 	bge	r19,zero,8454c <___vfprintf_internal_r+0x1bc0>
   8474c:	003fb306 	br	8461c <___vfprintf_internal_r+0x1c90>
   84750:	d9814d17 	ldw	r6,1332(sp)
   84754:	31bfff84 	addi	r6,r6,-2
   84758:	d9814d15 	stw	r6,1332(sp)
   8475c:	003f4c06 	br	84490 <___vfprintf_internal_r+0x1b04>
   84760:	0100180e 	bge	zero,r4,847c4 <___vfprintf_internal_r+0x1e38>
   84764:	00800044 	movi	r2,1
   84768:	1485883a 	add	r2,r2,r18
   8476c:	d8814515 	stw	r2,1300(sp)
   84770:	100f883a 	mov	r7,r2
   84774:	103f750e 	bge	r2,zero,8454c <___vfprintf_internal_r+0x1bc0>
   84778:	003fa806 	br	8461c <___vfprintf_internal_r+0x1c90>
   8477c:	80c00c04 	addi	r3,r16,48
   84780:	00800c04 	movi	r2,48
   84784:	d8c008c5 	stb	r3,35(sp)
   84788:	d9800804 	addi	r6,sp,32
   8478c:	d8c00904 	addi	r3,sp,36
   84790:	d8800885 	stb	r2,34(sp)
   84794:	003f6506 	br	8452c <___vfprintf_internal_r+0x1ba0>
   84798:	d9014c17 	ldw	r4,1328(sp)
   8479c:	2084703a 	and	r2,r4,r2
   847a0:	103f9c26 	beq	r2,zero,84614 <___vfprintf_internal_r+0x1c88>
   847a4:	003f6606 	br	84540 <___vfprintf_internal_r+0x1bb4>
   847a8:	d9800804 	addi	r6,sp,32
   847ac:	d8c00884 	addi	r3,sp,34
   847b0:	003f5e06 	br	8452c <___vfprintf_internal_r+0x1ba0>
   847b4:	00800b44 	movi	r2,45
   847b8:	0121c83a 	sub	r16,zero,r4
   847bc:	d8800845 	stb	r2,33(sp)
   847c0:	003f3d06 	br	844b8 <___vfprintf_internal_r+0x1b2c>
   847c4:	00800084 	movi	r2,2
   847c8:	1105c83a 	sub	r2,r2,r4
   847cc:	003fe606 	br	84768 <___vfprintf_internal_r+0x1ddc>
   847d0:	d8014515 	stw	zero,1300(sp)
   847d4:	dc814715 	stw	r18,1308(sp)
   847d8:	003fb106 	br	846a0 <___vfprintf_internal_r+0x1d14>
   847dc:	000d883a 	mov	r6,zero
   847e0:	000f883a 	mov	r7,zero
   847e4:	8009883a 	mov	r4,r16
   847e8:	880b883a 	mov	r5,r17
   847ec:	008b5640 	call	8b564 <__nedf2>
   847f0:	103f9f26 	beq	r2,zero,84670 <___vfprintf_internal_r+0x1ce4>
   847f4:	00800044 	movi	r2,1
   847f8:	1509c83a 	sub	r4,r2,r20
   847fc:	d9000515 	stw	r4,20(sp)
   84800:	003f9b06 	br	84670 <___vfprintf_internal_r+0x1ce4>
   84804:	98000d1e 	bne	r19,zero,8483c <___vfprintf_internal_r+0x1eb0>
   84808:	d8c14c17 	ldw	r3,1328(sp)
   8480c:	1880004c 	andi	r2,r3,1
   84810:	10000a1e 	bne	r2,zero,8483c <___vfprintf_internal_r+0x1eb0>
   84814:	01000044 	movi	r4,1
   84818:	200f883a 	mov	r7,r4
   8481c:	d9014515 	stw	r4,1300(sp)
   84820:	003f4a06 	br	8454c <___vfprintf_internal_r+0x1bc0>
   84824:	3cc00017 	ldw	r19,0(r7)
   84828:	39c00104 	addi	r7,r7,4
   8482c:	983d0e0e 	bge	r19,zero,83c68 <___vfprintf_internal_r+0x12dc>
   84830:	b8c00007 	ldb	r3,0(r23)
   84834:	04ffffc4 	movi	r19,-1
   84838:	0038d306 	br	82b88 <___vfprintf_internal_r+0x1fc>
   8483c:	9cc00084 	addi	r19,r19,2
   84840:	dcc14515 	stw	r19,1300(sp)
   84844:	980f883a 	mov	r7,r19
   84848:	983f400e 	bge	r19,zero,8454c <___vfprintf_internal_r+0x1bc0>
   8484c:	003f7306 	br	8461c <___vfprintf_internal_r+0x1c90>

00084850 <__vfprintf_internal>:
   84850:	008002b4 	movhi	r2,10
   84854:	10ab8704 	addi	r2,r2,-20964
   84858:	2013883a 	mov	r9,r4
   8485c:	11000017 	ldw	r4,0(r2)
   84860:	2805883a 	mov	r2,r5
   84864:	300f883a 	mov	r7,r6
   84868:	480b883a 	mov	r5,r9
   8486c:	100d883a 	mov	r6,r2
   84870:	008298c1 	jmpi	8298c <___vfprintf_internal_r>

00084874 <__swsetup_r>:
   84874:	008002b4 	movhi	r2,10
   84878:	10ab8704 	addi	r2,r2,-20964
   8487c:	10c00017 	ldw	r3,0(r2)
   84880:	defffd04 	addi	sp,sp,-12
   84884:	dc400115 	stw	r17,4(sp)
   84888:	dc000015 	stw	r16,0(sp)
   8488c:	dfc00215 	stw	ra,8(sp)
   84890:	2023883a 	mov	r17,r4
   84894:	2821883a 	mov	r16,r5
   84898:	18000226 	beq	r3,zero,848a4 <__swsetup_r+0x30>
   8489c:	18800e17 	ldw	r2,56(r3)
   848a0:	10001f26 	beq	r2,zero,84920 <__swsetup_r+0xac>
   848a4:	8100030b 	ldhu	r4,12(r16)
   848a8:	2080020c 	andi	r2,r4,8
   848ac:	10002826 	beq	r2,zero,84950 <__swsetup_r+0xdc>
   848b0:	81400417 	ldw	r5,16(r16)
   848b4:	28001d26 	beq	r5,zero,8492c <__swsetup_r+0xb8>
   848b8:	2080004c 	andi	r2,r4,1
   848bc:	1005003a 	cmpeq	r2,r2,zero
   848c0:	10000b26 	beq	r2,zero,848f0 <__swsetup_r+0x7c>
   848c4:	2080008c 	andi	r2,r4,2
   848c8:	10001226 	beq	r2,zero,84914 <__swsetup_r+0xa0>
   848cc:	0005883a 	mov	r2,zero
   848d0:	80800215 	stw	r2,8(r16)
   848d4:	28000b26 	beq	r5,zero,84904 <__swsetup_r+0x90>
   848d8:	0005883a 	mov	r2,zero
   848dc:	dfc00217 	ldw	ra,8(sp)
   848e0:	dc400117 	ldw	r17,4(sp)
   848e4:	dc000017 	ldw	r16,0(sp)
   848e8:	dec00304 	addi	sp,sp,12
   848ec:	f800283a 	ret
   848f0:	80800517 	ldw	r2,20(r16)
   848f4:	80000215 	stw	zero,8(r16)
   848f8:	0085c83a 	sub	r2,zero,r2
   848fc:	80800615 	stw	r2,24(r16)
   84900:	283ff51e 	bne	r5,zero,848d8 <__swsetup_r+0x64>
   84904:	2080200c 	andi	r2,r4,128
   84908:	103ff326 	beq	r2,zero,848d8 <__swsetup_r+0x64>
   8490c:	00bfffc4 	movi	r2,-1
   84910:	003ff206 	br	848dc <__swsetup_r+0x68>
   84914:	80800517 	ldw	r2,20(r16)
   84918:	80800215 	stw	r2,8(r16)
   8491c:	003fed06 	br	848d4 <__swsetup_r+0x60>
   84920:	1809883a 	mov	r4,r3
   84924:	00864400 	call	86440 <__sinit>
   84928:	003fde06 	br	848a4 <__swsetup_r+0x30>
   8492c:	20c0a00c 	andi	r3,r4,640
   84930:	00808004 	movi	r2,512
   84934:	18bfe026 	beq	r3,r2,848b8 <__swsetup_r+0x44>
   84938:	8809883a 	mov	r4,r17
   8493c:	800b883a 	mov	r5,r16
   84940:	00871ec0 	call	871ec <__smakebuf_r>
   84944:	8100030b 	ldhu	r4,12(r16)
   84948:	81400417 	ldw	r5,16(r16)
   8494c:	003fda06 	br	848b8 <__swsetup_r+0x44>
   84950:	2080040c 	andi	r2,r4,16
   84954:	103fed26 	beq	r2,zero,8490c <__swsetup_r+0x98>
   84958:	2080010c 	andi	r2,r4,4
   8495c:	10001226 	beq	r2,zero,849a8 <__swsetup_r+0x134>
   84960:	81400c17 	ldw	r5,48(r16)
   84964:	28000526 	beq	r5,zero,8497c <__swsetup_r+0x108>
   84968:	80801004 	addi	r2,r16,64
   8496c:	28800226 	beq	r5,r2,84978 <__swsetup_r+0x104>
   84970:	8809883a 	mov	r4,r17
   84974:	00867f80 	call	867f8 <_free_r>
   84978:	80000c15 	stw	zero,48(r16)
   8497c:	8080030b 	ldhu	r2,12(r16)
   84980:	81400417 	ldw	r5,16(r16)
   84984:	80000115 	stw	zero,4(r16)
   84988:	10bff6cc 	andi	r2,r2,65499
   8498c:	8080030d 	sth	r2,12(r16)
   84990:	81400015 	stw	r5,0(r16)
   84994:	8080030b 	ldhu	r2,12(r16)
   84998:	10800214 	ori	r2,r2,8
   8499c:	113fffcc 	andi	r4,r2,65535
   849a0:	8080030d 	sth	r2,12(r16)
   849a4:	003fc306 	br	848b4 <__swsetup_r+0x40>
   849a8:	81400417 	ldw	r5,16(r16)
   849ac:	003ff906 	br	84994 <__swsetup_r+0x120>

000849b0 <quorem>:
   849b0:	28c00417 	ldw	r3,16(r5)
   849b4:	20800417 	ldw	r2,16(r4)
   849b8:	defff104 	addi	sp,sp,-60
   849bc:	dfc00e15 	stw	ra,56(sp)
   849c0:	df000d15 	stw	fp,52(sp)
   849c4:	ddc00c15 	stw	r23,48(sp)
   849c8:	dd800b15 	stw	r22,44(sp)
   849cc:	dd400a15 	stw	r21,40(sp)
   849d0:	dd000915 	stw	r20,36(sp)
   849d4:	dcc00815 	stw	r19,32(sp)
   849d8:	dc800715 	stw	r18,28(sp)
   849dc:	dc400615 	stw	r17,24(sp)
   849e0:	dc000515 	stw	r16,20(sp)
   849e4:	d9000315 	stw	r4,12(sp)
   849e8:	d9400415 	stw	r5,16(sp)
   849ec:	10c07f16 	blt	r2,r3,84bec <quorem+0x23c>
   849f0:	1d3fffc4 	addi	r20,r3,-1
   849f4:	d8c00417 	ldw	r3,16(sp)
   849f8:	d9000317 	ldw	r4,12(sp)
   849fc:	a505883a 	add	r2,r20,r20
   84a00:	1085883a 	add	r2,r2,r2
   84a04:	1cc00504 	addi	r19,r3,20
   84a08:	25c00504 	addi	r23,r4,20
   84a0c:	98ad883a 	add	r22,r19,r2
   84a10:	15c7883a 	add	r3,r2,r23
   84a14:	b1400017 	ldw	r5,0(r22)
   84a18:	19000017 	ldw	r4,0(r3)
   84a1c:	d8c00015 	stw	r3,0(sp)
   84a20:	29400044 	addi	r5,r5,1
   84a24:	d9000215 	stw	r4,8(sp)
   84a28:	008256c0 	call	8256c <__udivsi3>
   84a2c:	1039883a 	mov	fp,r2
   84a30:	10003d1e 	bne	r2,zero,84b28 <quorem+0x178>
   84a34:	d9400417 	ldw	r5,16(sp)
   84a38:	d9000317 	ldw	r4,12(sp)
   84a3c:	0087f180 	call	87f18 <__mcmp>
   84a40:	10002c16 	blt	r2,zero,84af4 <quorem+0x144>
   84a44:	e7000044 	addi	fp,fp,1
   84a48:	b80f883a 	mov	r7,r23
   84a4c:	0011883a 	mov	r8,zero
   84a50:	0009883a 	mov	r4,zero
   84a54:	99400017 	ldw	r5,0(r19)
   84a58:	38c00017 	ldw	r3,0(r7)
   84a5c:	9cc00104 	addi	r19,r19,4
